ARM GAS  C:\Users\Alex\AppData\Local\Temp\ccfYuLQH.s 			page 1


   1              		.cpu cortex-m3
   2              		.eabi_attribute 20, 1
   3              		.eabi_attribute 21, 1
   4              		.eabi_attribute 23, 3
   5              		.eabi_attribute 24, 1
   6              		.eabi_attribute 25, 1
   7              		.eabi_attribute 26, 1
   8              		.eabi_attribute 30, 6
   9              		.eabi_attribute 34, 1
  10              		.eabi_attribute 18, 4
  11              		.file	"stm32f1xx_hal_spi.c"
  12              		.text
  13              	.Ltext0:
  14              		.cfi_sections	.debug_frame
  15              		.section	.text.HAL_SPI_Init,"ax",%progbits
  16              		.align	1
  17              		.global	HAL_SPI_Init
  18              		.arch armv7-m
  19              		.syntax unified
  20              		.thumb
  21              		.thumb_func
  22              		.fpu softvfp
  24              	HAL_SPI_Init:
  25              	.LFB65:
  26              		.file 1 "Drivers/STM32F1xx_HAL_Driver/Src/stm32f1xx_hal_spi.c"
   1:Drivers/STM32F1xx_HAL_Driver/Src/stm32f1xx_hal_spi.c **** /**
   2:Drivers/STM32F1xx_HAL_Driver/Src/stm32f1xx_hal_spi.c ****   ******************************************************************************
   3:Drivers/STM32F1xx_HAL_Driver/Src/stm32f1xx_hal_spi.c ****   * @file    stm32f1xx_hal_spi.c
   4:Drivers/STM32F1xx_HAL_Driver/Src/stm32f1xx_hal_spi.c ****   * @author  MCD Application Team
   5:Drivers/STM32F1xx_HAL_Driver/Src/stm32f1xx_hal_spi.c ****   * @brief   SPI HAL module driver.
   6:Drivers/STM32F1xx_HAL_Driver/Src/stm32f1xx_hal_spi.c ****   *          This file provides firmware functions to manage the following
   7:Drivers/STM32F1xx_HAL_Driver/Src/stm32f1xx_hal_spi.c ****   *          functionalities of the Serial Peripheral Interface (SPI) peripheral:
   8:Drivers/STM32F1xx_HAL_Driver/Src/stm32f1xx_hal_spi.c ****   *           + Initialization and de-initialization functions
   9:Drivers/STM32F1xx_HAL_Driver/Src/stm32f1xx_hal_spi.c ****   *           + IO operation functions
  10:Drivers/STM32F1xx_HAL_Driver/Src/stm32f1xx_hal_spi.c ****   *           + Peripheral Control functions
  11:Drivers/STM32F1xx_HAL_Driver/Src/stm32f1xx_hal_spi.c ****   *           + Peripheral State functions
  12:Drivers/STM32F1xx_HAL_Driver/Src/stm32f1xx_hal_spi.c ****   *
  13:Drivers/STM32F1xx_HAL_Driver/Src/stm32f1xx_hal_spi.c ****   @verbatim
  14:Drivers/STM32F1xx_HAL_Driver/Src/stm32f1xx_hal_spi.c ****   ==============================================================================
  15:Drivers/STM32F1xx_HAL_Driver/Src/stm32f1xx_hal_spi.c ****                         ##### How to use this driver #####
  16:Drivers/STM32F1xx_HAL_Driver/Src/stm32f1xx_hal_spi.c ****   ==============================================================================
  17:Drivers/STM32F1xx_HAL_Driver/Src/stm32f1xx_hal_spi.c ****     [..]
  18:Drivers/STM32F1xx_HAL_Driver/Src/stm32f1xx_hal_spi.c ****       The SPI HAL driver can be used as follows:
  19:Drivers/STM32F1xx_HAL_Driver/Src/stm32f1xx_hal_spi.c **** 
  20:Drivers/STM32F1xx_HAL_Driver/Src/stm32f1xx_hal_spi.c ****       (#) Declare a SPI_HandleTypeDef handle structure, for example:
  21:Drivers/STM32F1xx_HAL_Driver/Src/stm32f1xx_hal_spi.c ****           SPI_HandleTypeDef  hspi;
  22:Drivers/STM32F1xx_HAL_Driver/Src/stm32f1xx_hal_spi.c **** 
  23:Drivers/STM32F1xx_HAL_Driver/Src/stm32f1xx_hal_spi.c ****       (#)Initialize the SPI low level resources by implementing the HAL_SPI_MspInit() API:
  24:Drivers/STM32F1xx_HAL_Driver/Src/stm32f1xx_hal_spi.c ****           (##) Enable the SPIx interface clock
  25:Drivers/STM32F1xx_HAL_Driver/Src/stm32f1xx_hal_spi.c ****           (##) SPI pins configuration
  26:Drivers/STM32F1xx_HAL_Driver/Src/stm32f1xx_hal_spi.c ****               (+++) Enable the clock for the SPI GPIOs
  27:Drivers/STM32F1xx_HAL_Driver/Src/stm32f1xx_hal_spi.c ****               (+++) Configure these SPI pins as alternate function push-pull
  28:Drivers/STM32F1xx_HAL_Driver/Src/stm32f1xx_hal_spi.c ****           (##) NVIC configuration if you need to use interrupt process
  29:Drivers/STM32F1xx_HAL_Driver/Src/stm32f1xx_hal_spi.c ****               (+++) Configure the SPIx interrupt priority
  30:Drivers/STM32F1xx_HAL_Driver/Src/stm32f1xx_hal_spi.c ****               (+++) Enable the NVIC SPI IRQ handle
  31:Drivers/STM32F1xx_HAL_Driver/Src/stm32f1xx_hal_spi.c ****           (##) DMA Configuration if you need to use DMA process
  32:Drivers/STM32F1xx_HAL_Driver/Src/stm32f1xx_hal_spi.c ****               (+++) Declare a DMA_HandleTypeDef handle structure for the transmit or receive Stream
ARM GAS  C:\Users\Alex\AppData\Local\Temp\ccfYuLQH.s 			page 2


  33:Drivers/STM32F1xx_HAL_Driver/Src/stm32f1xx_hal_spi.c ****               (+++) Enable the DMAx clock
  34:Drivers/STM32F1xx_HAL_Driver/Src/stm32f1xx_hal_spi.c ****               (+++) Configure the DMA handle parameters
  35:Drivers/STM32F1xx_HAL_Driver/Src/stm32f1xx_hal_spi.c ****               (+++) Configure the DMA Tx or Rx Stream/Channel
  36:Drivers/STM32F1xx_HAL_Driver/Src/stm32f1xx_hal_spi.c ****               (+++) Associate the initialized hdma_tx(or _rx)  handle to the hspi DMA Tx or Rx hand
  37:Drivers/STM32F1xx_HAL_Driver/Src/stm32f1xx_hal_spi.c ****               (+++) Configure the priority and enable the NVIC for the transfer complete interrupt 
  38:Drivers/STM32F1xx_HAL_Driver/Src/stm32f1xx_hal_spi.c **** 
  39:Drivers/STM32F1xx_HAL_Driver/Src/stm32f1xx_hal_spi.c ****       (#) Program the Mode, BidirectionalMode , Data size, Baudrate Prescaler, NSS
  40:Drivers/STM32F1xx_HAL_Driver/Src/stm32f1xx_hal_spi.c ****           management, Clock polarity and phase, FirstBit and CRC configuration in the hspi Init str
  41:Drivers/STM32F1xx_HAL_Driver/Src/stm32f1xx_hal_spi.c **** 
  42:Drivers/STM32F1xx_HAL_Driver/Src/stm32f1xx_hal_spi.c ****       (#) Initialize the SPI registers by calling the HAL_SPI_Init() API:
  43:Drivers/STM32F1xx_HAL_Driver/Src/stm32f1xx_hal_spi.c ****           (++) This API configures also the low level Hardware GPIO, CLOCK, CORTEX...etc)
  44:Drivers/STM32F1xx_HAL_Driver/Src/stm32f1xx_hal_spi.c ****               by calling the customized HAL_SPI_MspInit() API.
  45:Drivers/STM32F1xx_HAL_Driver/Src/stm32f1xx_hal_spi.c ****      [..]
  46:Drivers/STM32F1xx_HAL_Driver/Src/stm32f1xx_hal_spi.c ****        Circular mode restriction:
  47:Drivers/STM32F1xx_HAL_Driver/Src/stm32f1xx_hal_spi.c ****       (#) The DMA circular mode cannot be used when the SPI is configured in these modes:
  48:Drivers/STM32F1xx_HAL_Driver/Src/stm32f1xx_hal_spi.c ****           (##) Master 2Lines RxOnly
  49:Drivers/STM32F1xx_HAL_Driver/Src/stm32f1xx_hal_spi.c ****           (##) Master 1Line Rx
  50:Drivers/STM32F1xx_HAL_Driver/Src/stm32f1xx_hal_spi.c ****       (#) The CRC feature is not managed when the DMA circular mode is enabled
  51:Drivers/STM32F1xx_HAL_Driver/Src/stm32f1xx_hal_spi.c ****       (#) When the SPI DMA Pause/Stop features are used, we must use the following APIs
  52:Drivers/STM32F1xx_HAL_Driver/Src/stm32f1xx_hal_spi.c ****           the HAL_SPI_DMAPause()/ HAL_SPI_DMAStop() only under the SPI callbacks
  53:Drivers/STM32F1xx_HAL_Driver/Src/stm32f1xx_hal_spi.c ****      [..]
  54:Drivers/STM32F1xx_HAL_Driver/Src/stm32f1xx_hal_spi.c ****        Master Receive mode restriction:
  55:Drivers/STM32F1xx_HAL_Driver/Src/stm32f1xx_hal_spi.c ****       (#) In Master unidirectional receive-only mode (MSTR =1, BIDIMODE=0, RXONLY=1) or
  56:Drivers/STM32F1xx_HAL_Driver/Src/stm32f1xx_hal_spi.c ****           bidirectional receive mode (MSTR=1, BIDIMODE=1, BIDIOE=0), to ensure that the SPI
  57:Drivers/STM32F1xx_HAL_Driver/Src/stm32f1xx_hal_spi.c ****           does not initiate a new transfer the following procedure has to be respected:
  58:Drivers/STM32F1xx_HAL_Driver/Src/stm32f1xx_hal_spi.c ****           (##) HAL_SPI_DeInit()
  59:Drivers/STM32F1xx_HAL_Driver/Src/stm32f1xx_hal_spi.c ****           (##) HAL_SPI_Init()
  60:Drivers/STM32F1xx_HAL_Driver/Src/stm32f1xx_hal_spi.c ****      [..]
  61:Drivers/STM32F1xx_HAL_Driver/Src/stm32f1xx_hal_spi.c ****        Callback registration:
  62:Drivers/STM32F1xx_HAL_Driver/Src/stm32f1xx_hal_spi.c **** 
  63:Drivers/STM32F1xx_HAL_Driver/Src/stm32f1xx_hal_spi.c ****       (#) The compilation flag USE_HAL_SPI_REGISTER_CALLBACKS when set to 1U
  64:Drivers/STM32F1xx_HAL_Driver/Src/stm32f1xx_hal_spi.c ****           allows the user to configure dynamically the driver callbacks.
  65:Drivers/STM32F1xx_HAL_Driver/Src/stm32f1xx_hal_spi.c ****           Use Functions HAL_SPI_RegisterCallback() to register an interrupt callback.
  66:Drivers/STM32F1xx_HAL_Driver/Src/stm32f1xx_hal_spi.c **** 
  67:Drivers/STM32F1xx_HAL_Driver/Src/stm32f1xx_hal_spi.c ****           Function HAL_SPI_RegisterCallback() allows to register following callbacks:
  68:Drivers/STM32F1xx_HAL_Driver/Src/stm32f1xx_hal_spi.c ****             (++) TxCpltCallback        : SPI Tx Completed callback
  69:Drivers/STM32F1xx_HAL_Driver/Src/stm32f1xx_hal_spi.c ****             (++) RxCpltCallback        : SPI Rx Completed callback
  70:Drivers/STM32F1xx_HAL_Driver/Src/stm32f1xx_hal_spi.c ****             (++) TxRxCpltCallback      : SPI TxRx Completed callback
  71:Drivers/STM32F1xx_HAL_Driver/Src/stm32f1xx_hal_spi.c ****             (++) TxHalfCpltCallback    : SPI Tx Half Completed callback
  72:Drivers/STM32F1xx_HAL_Driver/Src/stm32f1xx_hal_spi.c ****             (++) RxHalfCpltCallback    : SPI Rx Half Completed callback
  73:Drivers/STM32F1xx_HAL_Driver/Src/stm32f1xx_hal_spi.c ****             (++) TxRxHalfCpltCallback  : SPI TxRx Half Completed callback
  74:Drivers/STM32F1xx_HAL_Driver/Src/stm32f1xx_hal_spi.c ****             (++) ErrorCallback         : SPI Error callback
  75:Drivers/STM32F1xx_HAL_Driver/Src/stm32f1xx_hal_spi.c ****             (++) AbortCpltCallback     : SPI Abort callback
  76:Drivers/STM32F1xx_HAL_Driver/Src/stm32f1xx_hal_spi.c ****             (++) MspInitCallback       : SPI Msp Init callback
  77:Drivers/STM32F1xx_HAL_Driver/Src/stm32f1xx_hal_spi.c ****             (++) MspDeInitCallback     : SPI Msp DeInit callback
  78:Drivers/STM32F1xx_HAL_Driver/Src/stm32f1xx_hal_spi.c ****           This function takes as parameters the HAL peripheral handle, the Callback ID
  79:Drivers/STM32F1xx_HAL_Driver/Src/stm32f1xx_hal_spi.c ****           and a pointer to the user callback function.
  80:Drivers/STM32F1xx_HAL_Driver/Src/stm32f1xx_hal_spi.c **** 
  81:Drivers/STM32F1xx_HAL_Driver/Src/stm32f1xx_hal_spi.c **** 
  82:Drivers/STM32F1xx_HAL_Driver/Src/stm32f1xx_hal_spi.c ****       (#) Use function HAL_SPI_UnRegisterCallback to reset a callback to the default
  83:Drivers/STM32F1xx_HAL_Driver/Src/stm32f1xx_hal_spi.c ****           weak function.
  84:Drivers/STM32F1xx_HAL_Driver/Src/stm32f1xx_hal_spi.c ****           HAL_SPI_UnRegisterCallback takes as parameters the HAL peripheral handle,
  85:Drivers/STM32F1xx_HAL_Driver/Src/stm32f1xx_hal_spi.c ****           and the Callback ID.
  86:Drivers/STM32F1xx_HAL_Driver/Src/stm32f1xx_hal_spi.c ****           This function allows to reset following callbacks:
  87:Drivers/STM32F1xx_HAL_Driver/Src/stm32f1xx_hal_spi.c ****             (++) TxCpltCallback        : SPI Tx Completed callback
  88:Drivers/STM32F1xx_HAL_Driver/Src/stm32f1xx_hal_spi.c ****             (++) RxCpltCallback        : SPI Rx Completed callback
  89:Drivers/STM32F1xx_HAL_Driver/Src/stm32f1xx_hal_spi.c ****             (++) TxRxCpltCallback      : SPI TxRx Completed callback
ARM GAS  C:\Users\Alex\AppData\Local\Temp\ccfYuLQH.s 			page 3


  90:Drivers/STM32F1xx_HAL_Driver/Src/stm32f1xx_hal_spi.c ****             (++) TxHalfCpltCallback    : SPI Tx Half Completed callback
  91:Drivers/STM32F1xx_HAL_Driver/Src/stm32f1xx_hal_spi.c ****             (++) RxHalfCpltCallback    : SPI Rx Half Completed callback
  92:Drivers/STM32F1xx_HAL_Driver/Src/stm32f1xx_hal_spi.c ****             (++) TxRxHalfCpltCallback  : SPI TxRx Half Completed callback
  93:Drivers/STM32F1xx_HAL_Driver/Src/stm32f1xx_hal_spi.c ****             (++) ErrorCallback         : SPI Error callback
  94:Drivers/STM32F1xx_HAL_Driver/Src/stm32f1xx_hal_spi.c ****             (++) AbortCpltCallback     : SPI Abort callback
  95:Drivers/STM32F1xx_HAL_Driver/Src/stm32f1xx_hal_spi.c ****             (++) MspInitCallback       : SPI Msp Init callback
  96:Drivers/STM32F1xx_HAL_Driver/Src/stm32f1xx_hal_spi.c ****             (++) MspDeInitCallback     : SPI Msp DeInit callback
  97:Drivers/STM32F1xx_HAL_Driver/Src/stm32f1xx_hal_spi.c **** 
  98:Drivers/STM32F1xx_HAL_Driver/Src/stm32f1xx_hal_spi.c ****        [..]
  99:Drivers/STM32F1xx_HAL_Driver/Src/stm32f1xx_hal_spi.c ****        By default, after the HAL_SPI_Init() and when the state is HAL_SPI_STATE_RESET
 100:Drivers/STM32F1xx_HAL_Driver/Src/stm32f1xx_hal_spi.c ****        all callbacks are set to the corresponding weak functions:
 101:Drivers/STM32F1xx_HAL_Driver/Src/stm32f1xx_hal_spi.c ****        examples HAL_SPI_MasterTxCpltCallback(), HAL_SPI_MasterRxCpltCallback().
 102:Drivers/STM32F1xx_HAL_Driver/Src/stm32f1xx_hal_spi.c ****        Exception done for MspInit and MspDeInit functions that are
 103:Drivers/STM32F1xx_HAL_Driver/Src/stm32f1xx_hal_spi.c ****        reset to the legacy weak functions in the HAL_SPI_Init()/ HAL_SPI_DeInit() only when
 104:Drivers/STM32F1xx_HAL_Driver/Src/stm32f1xx_hal_spi.c ****        these callbacks are null (not registered beforehand).
 105:Drivers/STM32F1xx_HAL_Driver/Src/stm32f1xx_hal_spi.c ****        If MspInit or MspDeInit are not null, the HAL_SPI_Init()/ HAL_SPI_DeInit()
 106:Drivers/STM32F1xx_HAL_Driver/Src/stm32f1xx_hal_spi.c ****        keep and use the user MspInit/MspDeInit callbacks (registered beforehand) whatever the state
 107:Drivers/STM32F1xx_HAL_Driver/Src/stm32f1xx_hal_spi.c **** 
 108:Drivers/STM32F1xx_HAL_Driver/Src/stm32f1xx_hal_spi.c ****        [..]
 109:Drivers/STM32F1xx_HAL_Driver/Src/stm32f1xx_hal_spi.c ****        Callbacks can be registered/unregistered in HAL_SPI_STATE_READY state only.
 110:Drivers/STM32F1xx_HAL_Driver/Src/stm32f1xx_hal_spi.c ****        Exception done MspInit/MspDeInit functions that can be registered/unregistered
 111:Drivers/STM32F1xx_HAL_Driver/Src/stm32f1xx_hal_spi.c ****        in HAL_SPI_STATE_READY or HAL_SPI_STATE_RESET state,
 112:Drivers/STM32F1xx_HAL_Driver/Src/stm32f1xx_hal_spi.c ****        thus registered (user) MspInit/DeInit callbacks can be used during the Init/DeInit.
 113:Drivers/STM32F1xx_HAL_Driver/Src/stm32f1xx_hal_spi.c ****        Then, the user first registers the MspInit/MspDeInit user callbacks
 114:Drivers/STM32F1xx_HAL_Driver/Src/stm32f1xx_hal_spi.c ****        using HAL_SPI_RegisterCallback() before calling HAL_SPI_DeInit()
 115:Drivers/STM32F1xx_HAL_Driver/Src/stm32f1xx_hal_spi.c ****        or HAL_SPI_Init() function.
 116:Drivers/STM32F1xx_HAL_Driver/Src/stm32f1xx_hal_spi.c **** 
 117:Drivers/STM32F1xx_HAL_Driver/Src/stm32f1xx_hal_spi.c ****        [..]
 118:Drivers/STM32F1xx_HAL_Driver/Src/stm32f1xx_hal_spi.c ****        When the compilation define USE_HAL_PPP_REGISTER_CALLBACKS is set to 0 or
 119:Drivers/STM32F1xx_HAL_Driver/Src/stm32f1xx_hal_spi.c ****        not defined, the callback registering feature is not available
 120:Drivers/STM32F1xx_HAL_Driver/Src/stm32f1xx_hal_spi.c ****        and weak (surcharged) callbacks are used.
 121:Drivers/STM32F1xx_HAL_Driver/Src/stm32f1xx_hal_spi.c **** 
 122:Drivers/STM32F1xx_HAL_Driver/Src/stm32f1xx_hal_spi.c ****      [..]
 123:Drivers/STM32F1xx_HAL_Driver/Src/stm32f1xx_hal_spi.c ****        Using the HAL it is not possible to reach all supported SPI frequency with the different SPI
 124:Drivers/STM32F1xx_HAL_Driver/Src/stm32f1xx_hal_spi.c ****        the following table resume the max SPI frequency reached with data size 8bits/16bits,
 125:Drivers/STM32F1xx_HAL_Driver/Src/stm32f1xx_hal_spi.c ****          according to frequency of the APBx Peripheral Clock (fPCLK) used by the SPI instance.
 126:Drivers/STM32F1xx_HAL_Driver/Src/stm32f1xx_hal_spi.c **** 
 127:Drivers/STM32F1xx_HAL_Driver/Src/stm32f1xx_hal_spi.c ****   @endverbatim
 128:Drivers/STM32F1xx_HAL_Driver/Src/stm32f1xx_hal_spi.c **** 
 129:Drivers/STM32F1xx_HAL_Driver/Src/stm32f1xx_hal_spi.c ****   Additional table :
 130:Drivers/STM32F1xx_HAL_Driver/Src/stm32f1xx_hal_spi.c **** 
 131:Drivers/STM32F1xx_HAL_Driver/Src/stm32f1xx_hal_spi.c ****        DataSize = SPI_DATASIZE_8BIT:
 132:Drivers/STM32F1xx_HAL_Driver/Src/stm32f1xx_hal_spi.c ****        +-------------------------------------------------------------------------------------------
 133:Drivers/STM32F1xx_HAL_Driver/Src/stm32f1xx_hal_spi.c ****        |         |                | 2Lines Fullduplex   |     2Lines RxOnly    |         1Line     
 134:Drivers/STM32F1xx_HAL_Driver/Src/stm32f1xx_hal_spi.c ****        | Process | Tranfert mode  |---------------------|----------------------|-------------------
 135:Drivers/STM32F1xx_HAL_Driver/Src/stm32f1xx_hal_spi.c ****        |         |                |  Master  |  Slave   |  Master   |  Slave   |  Master   |  Slave
 136:Drivers/STM32F1xx_HAL_Driver/Src/stm32f1xx_hal_spi.c ****        |===========================================================================================
 137:Drivers/STM32F1xx_HAL_Driver/Src/stm32f1xx_hal_spi.c ****        |    T    |     Polling    | Fpclk/2  | Fpclk/2  |    NA     |    NA    |    NA     |   NA  
 138:Drivers/STM32F1xx_HAL_Driver/Src/stm32f1xx_hal_spi.c ****        |    X    |----------------|----------|----------|-----------|----------|-----------|-------
 139:Drivers/STM32F1xx_HAL_Driver/Src/stm32f1xx_hal_spi.c ****        |    /    |     Interrupt  | Fpclk/4  | Fpclk/8  |    NA     |    NA    |    NA     |   NA  
 140:Drivers/STM32F1xx_HAL_Driver/Src/stm32f1xx_hal_spi.c ****        |    R    |----------------|----------|----------|-----------|----------|-----------|-------
 141:Drivers/STM32F1xx_HAL_Driver/Src/stm32f1xx_hal_spi.c ****        |    X    |       DMA      | Fpclk/2  | Fpclk/2  |    NA     |    NA    |    NA     |   NA  
 142:Drivers/STM32F1xx_HAL_Driver/Src/stm32f1xx_hal_spi.c ****        |=========|================|==========|==========|===========|==========|===========|=======
 143:Drivers/STM32F1xx_HAL_Driver/Src/stm32f1xx_hal_spi.c ****        |         |     Polling    | Fpclk/2  | Fpclk/2  | Fpclk/64  | Fpclk/2  | Fpclk/64  | Fpclk/
 144:Drivers/STM32F1xx_HAL_Driver/Src/stm32f1xx_hal_spi.c ****        |         |----------------|----------|----------|-----------|----------|-----------|-------
 145:Drivers/STM32F1xx_HAL_Driver/Src/stm32f1xx_hal_spi.c ****        |    R    |     Interrupt  | Fpclk/8  | Fpclk/8  | Fpclk/64  | Fpclk/2  | Fpclk/64  | Fpclk/
 146:Drivers/STM32F1xx_HAL_Driver/Src/stm32f1xx_hal_spi.c ****        |    X    |----------------|----------|----------|-----------|----------|-----------|-------
ARM GAS  C:\Users\Alex\AppData\Local\Temp\ccfYuLQH.s 			page 4


 147:Drivers/STM32F1xx_HAL_Driver/Src/stm32f1xx_hal_spi.c ****        |         |       DMA      | Fpclk/2  | Fpclk/2  | Fpclk/64  | Fpclk/2  | Fpclk/128 | Fpclk/
 148:Drivers/STM32F1xx_HAL_Driver/Src/stm32f1xx_hal_spi.c ****        |=========|================|==========|==========|===========|==========|===========|=======
 149:Drivers/STM32F1xx_HAL_Driver/Src/stm32f1xx_hal_spi.c ****        |         |     Polling    | Fpclk/2  | Fpclk/4  |     NA    |    NA    | Fpclk/2   | Fpclk/
 150:Drivers/STM32F1xx_HAL_Driver/Src/stm32f1xx_hal_spi.c ****        |         |----------------|----------|----------|-----------|----------|-----------|-------
 151:Drivers/STM32F1xx_HAL_Driver/Src/stm32f1xx_hal_spi.c ****        |    T    |     Interrupt  | Fpclk/2  | Fpclk/4  |     NA    |    NA    | Fpclk/2   | Fpclk/
 152:Drivers/STM32F1xx_HAL_Driver/Src/stm32f1xx_hal_spi.c ****        |    X    |----------------|----------|----------|-----------|----------|-----------|-------
 153:Drivers/STM32F1xx_HAL_Driver/Src/stm32f1xx_hal_spi.c ****        |         |       DMA      | Fpclk/2  | Fpclk/2  |     NA    |    NA    | Fpclk/2   | Fpclk/
 154:Drivers/STM32F1xx_HAL_Driver/Src/stm32f1xx_hal_spi.c ****        +-------------------------------------------------------------------------------------------
 155:Drivers/STM32F1xx_HAL_Driver/Src/stm32f1xx_hal_spi.c **** 
 156:Drivers/STM32F1xx_HAL_Driver/Src/stm32f1xx_hal_spi.c ****        DataSize = SPI_DATASIZE_16BIT:
 157:Drivers/STM32F1xx_HAL_Driver/Src/stm32f1xx_hal_spi.c ****        +-------------------------------------------------------------------------------------------
 158:Drivers/STM32F1xx_HAL_Driver/Src/stm32f1xx_hal_spi.c ****        |         |                | 2Lines Fullduplex   |     2Lines RxOnly    |         1Line     
 159:Drivers/STM32F1xx_HAL_Driver/Src/stm32f1xx_hal_spi.c ****        | Process | Tranfert mode  |---------------------|----------------------|-------------------
 160:Drivers/STM32F1xx_HAL_Driver/Src/stm32f1xx_hal_spi.c ****        |         |                |  Master  |  Slave   |  Master   |  Slave   |  Master   |  Slave
 161:Drivers/STM32F1xx_HAL_Driver/Src/stm32f1xx_hal_spi.c ****        |===========================================================================================
 162:Drivers/STM32F1xx_HAL_Driver/Src/stm32f1xx_hal_spi.c ****        |    T    |     Polling    | Fpclk/2  | Fpclk/2  |    NA     |    NA    |    NA     |   NA  
 163:Drivers/STM32F1xx_HAL_Driver/Src/stm32f1xx_hal_spi.c ****        |    X    |----------------|----------|----------|-----------|----------|-----------|-------
 164:Drivers/STM32F1xx_HAL_Driver/Src/stm32f1xx_hal_spi.c ****        |    /    |     Interrupt  | Fpclk/4  | Fpclk/4  |    NA     |    NA    |    NA     |   NA  
 165:Drivers/STM32F1xx_HAL_Driver/Src/stm32f1xx_hal_spi.c ****        |    R    |----------------|----------|----------|-----------|----------|-----------|-------
 166:Drivers/STM32F1xx_HAL_Driver/Src/stm32f1xx_hal_spi.c ****        |    X    |       DMA      | Fpclk/2  | Fpclk/2  |    NA     |    NA    |    NA     |   NA  
 167:Drivers/STM32F1xx_HAL_Driver/Src/stm32f1xx_hal_spi.c ****        |=========|================|==========|==========|===========|==========|===========|=======
 168:Drivers/STM32F1xx_HAL_Driver/Src/stm32f1xx_hal_spi.c ****        |         |     Polling    | Fpclk/2  | Fpclk/2  | Fpclk/64  | Fpclk/2  | Fpclk/32  | Fpclk/
 169:Drivers/STM32F1xx_HAL_Driver/Src/stm32f1xx_hal_spi.c ****        |         |----------------|----------|----------|-----------|----------|-----------|-------
 170:Drivers/STM32F1xx_HAL_Driver/Src/stm32f1xx_hal_spi.c ****        |    R    |     Interrupt  | Fpclk/4  | Fpclk/4  | Fpclk/64  | Fpclk/2  | Fpclk/64  | Fpclk/
 171:Drivers/STM32F1xx_HAL_Driver/Src/stm32f1xx_hal_spi.c ****        |    X    |----------------|----------|----------|-----------|----------|-----------|-------
 172:Drivers/STM32F1xx_HAL_Driver/Src/stm32f1xx_hal_spi.c ****        |         |       DMA      | Fpclk/2  | Fpclk/2  | Fpclk/64  | Fpclk/2  | Fpclk/128 | Fpclk/
 173:Drivers/STM32F1xx_HAL_Driver/Src/stm32f1xx_hal_spi.c ****        |=========|================|==========|==========|===========|==========|===========|=======
 174:Drivers/STM32F1xx_HAL_Driver/Src/stm32f1xx_hal_spi.c ****        |         |     Polling    | Fpclk/2  | Fpclk/2  |     NA    |    NA    | Fpclk/2   | Fpclk/
 175:Drivers/STM32F1xx_HAL_Driver/Src/stm32f1xx_hal_spi.c ****        |         |----------------|----------|----------|-----------|----------|-----------|-------
 176:Drivers/STM32F1xx_HAL_Driver/Src/stm32f1xx_hal_spi.c ****        |    T    |     Interrupt  | Fpclk/2  | Fpclk/2  |     NA    |    NA    | Fpclk/2   | Fpclk/
 177:Drivers/STM32F1xx_HAL_Driver/Src/stm32f1xx_hal_spi.c ****        |    X    |----------------|----------|----------|-----------|----------|-----------|-------
 178:Drivers/STM32F1xx_HAL_Driver/Src/stm32f1xx_hal_spi.c ****        |         |       DMA      | Fpclk/2  | Fpclk/2  |     NA    |    NA    | Fpclk/2   | Fpclk/
 179:Drivers/STM32F1xx_HAL_Driver/Src/stm32f1xx_hal_spi.c ****        +-------------------------------------------------------------------------------------------
 180:Drivers/STM32F1xx_HAL_Driver/Src/stm32f1xx_hal_spi.c ****        @note The max SPI frequency depend on SPI data size (8bits, 16bits),
 181:Drivers/STM32F1xx_HAL_Driver/Src/stm32f1xx_hal_spi.c ****              SPI mode(2 Lines fullduplex, 2 lines RxOnly, 1 line TX/RX) and Process mode (Polling, 
 182:Drivers/STM32F1xx_HAL_Driver/Src/stm32f1xx_hal_spi.c ****        @note
 183:Drivers/STM32F1xx_HAL_Driver/Src/stm32f1xx_hal_spi.c ****             (#) TX/RX processes are HAL_SPI_TransmitReceive(), HAL_SPI_TransmitReceive_IT() and HAL
 184:Drivers/STM32F1xx_HAL_Driver/Src/stm32f1xx_hal_spi.c ****             (#) RX processes are HAL_SPI_Receive(), HAL_SPI_Receive_IT() and HAL_SPI_Receive_DMA()
 185:Drivers/STM32F1xx_HAL_Driver/Src/stm32f1xx_hal_spi.c ****             (#) TX processes are HAL_SPI_Transmit(), HAL_SPI_Transmit_IT() and HAL_SPI_Transmit_DMA
 186:Drivers/STM32F1xx_HAL_Driver/Src/stm32f1xx_hal_spi.c **** 
 187:Drivers/STM32F1xx_HAL_Driver/Src/stm32f1xx_hal_spi.c ****   ******************************************************************************
 188:Drivers/STM32F1xx_HAL_Driver/Src/stm32f1xx_hal_spi.c ****   * @attention
 189:Drivers/STM32F1xx_HAL_Driver/Src/stm32f1xx_hal_spi.c ****   *
 190:Drivers/STM32F1xx_HAL_Driver/Src/stm32f1xx_hal_spi.c ****   * <h2><center>&copy; Copyright (c) 2016 STMicroelectronics.
 191:Drivers/STM32F1xx_HAL_Driver/Src/stm32f1xx_hal_spi.c ****   * All rights reserved.</center></h2>
 192:Drivers/STM32F1xx_HAL_Driver/Src/stm32f1xx_hal_spi.c ****   *
 193:Drivers/STM32F1xx_HAL_Driver/Src/stm32f1xx_hal_spi.c ****   * This software component is licensed by ST under BSD 3-Clause license,
 194:Drivers/STM32F1xx_HAL_Driver/Src/stm32f1xx_hal_spi.c ****   * the "License"; You may not use this file except in compliance with the
 195:Drivers/STM32F1xx_HAL_Driver/Src/stm32f1xx_hal_spi.c ****   * License. You may obtain a copy of the License at:
 196:Drivers/STM32F1xx_HAL_Driver/Src/stm32f1xx_hal_spi.c ****   *                        opensource.org/licenses/BSD-3-Clause
 197:Drivers/STM32F1xx_HAL_Driver/Src/stm32f1xx_hal_spi.c ****   *
 198:Drivers/STM32F1xx_HAL_Driver/Src/stm32f1xx_hal_spi.c ****   ******************************************************************************
 199:Drivers/STM32F1xx_HAL_Driver/Src/stm32f1xx_hal_spi.c ****   */
 200:Drivers/STM32F1xx_HAL_Driver/Src/stm32f1xx_hal_spi.c **** 
 201:Drivers/STM32F1xx_HAL_Driver/Src/stm32f1xx_hal_spi.c **** /* Includes ------------------------------------------------------------------*/
 202:Drivers/STM32F1xx_HAL_Driver/Src/stm32f1xx_hal_spi.c **** #include "stm32f1xx_hal.h"
 203:Drivers/STM32F1xx_HAL_Driver/Src/stm32f1xx_hal_spi.c **** 
ARM GAS  C:\Users\Alex\AppData\Local\Temp\ccfYuLQH.s 			page 5


 204:Drivers/STM32F1xx_HAL_Driver/Src/stm32f1xx_hal_spi.c **** /** @addtogroup STM32F1xx_HAL_Driver
 205:Drivers/STM32F1xx_HAL_Driver/Src/stm32f1xx_hal_spi.c ****   * @{
 206:Drivers/STM32F1xx_HAL_Driver/Src/stm32f1xx_hal_spi.c ****   */
 207:Drivers/STM32F1xx_HAL_Driver/Src/stm32f1xx_hal_spi.c **** 
 208:Drivers/STM32F1xx_HAL_Driver/Src/stm32f1xx_hal_spi.c **** /** @defgroup SPI SPI
 209:Drivers/STM32F1xx_HAL_Driver/Src/stm32f1xx_hal_spi.c ****   * @brief SPI HAL module driver
 210:Drivers/STM32F1xx_HAL_Driver/Src/stm32f1xx_hal_spi.c ****   * @{
 211:Drivers/STM32F1xx_HAL_Driver/Src/stm32f1xx_hal_spi.c ****   */
 212:Drivers/STM32F1xx_HAL_Driver/Src/stm32f1xx_hal_spi.c **** #ifdef HAL_SPI_MODULE_ENABLED
 213:Drivers/STM32F1xx_HAL_Driver/Src/stm32f1xx_hal_spi.c **** 
 214:Drivers/STM32F1xx_HAL_Driver/Src/stm32f1xx_hal_spi.c **** /* Private typedef -----------------------------------------------------------*/
 215:Drivers/STM32F1xx_HAL_Driver/Src/stm32f1xx_hal_spi.c **** /* Private defines -----------------------------------------------------------*/
 216:Drivers/STM32F1xx_HAL_Driver/Src/stm32f1xx_hal_spi.c **** #if (USE_SPI_CRC != 0U) && defined(SPI_CRC_ERROR_WORKAROUND_FEATURE)
 217:Drivers/STM32F1xx_HAL_Driver/Src/stm32f1xx_hal_spi.c **** /* CRC WORKAOUND FEATURE: Variable used to determine if device is impacted by implementation
 218:Drivers/STM32F1xx_HAL_Driver/Src/stm32f1xx_hal_spi.c ****  * of workaround related to wrong CRC errors detection on SPI2. Conditions in which this workaround
 219:Drivers/STM32F1xx_HAL_Driver/Src/stm32f1xx_hal_spi.c ****  * has to be applied, are:
 220:Drivers/STM32F1xx_HAL_Driver/Src/stm32f1xx_hal_spi.c ****  *  - STM32F101CDE/STM32F103CDE
 221:Drivers/STM32F1xx_HAL_Driver/Src/stm32f1xx_hal_spi.c ****  *  - Revision ID : Z
 222:Drivers/STM32F1xx_HAL_Driver/Src/stm32f1xx_hal_spi.c ****  *  - SPI2
 223:Drivers/STM32F1xx_HAL_Driver/Src/stm32f1xx_hal_spi.c ****  *  - In receive only mode, with CRC calculation enabled, at the end of the CRC reception,
 224:Drivers/STM32F1xx_HAL_Driver/Src/stm32f1xx_hal_spi.c ****  *     the software needs to check the CRCERR flag. If it is found set, read back the SPI_RXCRC:
 225:Drivers/STM32F1xx_HAL_Driver/Src/stm32f1xx_hal_spi.c ****  *       + If the value is 0, the complete data transfer is successful.
 226:Drivers/STM32F1xx_HAL_Driver/Src/stm32f1xx_hal_spi.c ****  *       + Otherwise, one or more errors have been detected during the data transfer by CPU or DMA.
 227:Drivers/STM32F1xx_HAL_Driver/Src/stm32f1xx_hal_spi.c ****  *    If CRCERR is found reset, the complete data transfer is considered successful.
 228:Drivers/STM32F1xx_HAL_Driver/Src/stm32f1xx_hal_spi.c ****  *
 229:Drivers/STM32F1xx_HAL_Driver/Src/stm32f1xx_hal_spi.c ****  * Check RevisionID value for identifying if Device is Rev Z (0x0001) in order to enable workaround
 230:Drivers/STM32F1xx_HAL_Driver/Src/stm32f1xx_hal_spi.c ****  * CRC errors wrongly detected
 231:Drivers/STM32F1xx_HAL_Driver/Src/stm32f1xx_hal_spi.c ****  */
 232:Drivers/STM32F1xx_HAL_Driver/Src/stm32f1xx_hal_spi.c **** /* Pb is that ES_STM32F10xxCDE also identify an issue in Debug registers access while not in Debug 
 233:Drivers/STM32F1xx_HAL_Driver/Src/stm32f1xx_hal_spi.c ****  * Revision ID information is only available in Debug mode, so Workaround could not be implemented
 234:Drivers/STM32F1xx_HAL_Driver/Src/stm32f1xx_hal_spi.c ****  * to distinguish Rev Z devices (issue present) from more recent version (issue fixed).
 235:Drivers/STM32F1xx_HAL_Driver/Src/stm32f1xx_hal_spi.c ****  * So, in case of Revison Z F101 or F103 devices, below define should be assigned to 1.
 236:Drivers/STM32F1xx_HAL_Driver/Src/stm32f1xx_hal_spi.c ****  */
 237:Drivers/STM32F1xx_HAL_Driver/Src/stm32f1xx_hal_spi.c **** #define  USE_SPI_CRC_ERROR_WORKAROUND   0U
 238:Drivers/STM32F1xx_HAL_Driver/Src/stm32f1xx_hal_spi.c **** #endif
 239:Drivers/STM32F1xx_HAL_Driver/Src/stm32f1xx_hal_spi.c **** /** @defgroup SPI_Private_Constants SPI Private Constants
 240:Drivers/STM32F1xx_HAL_Driver/Src/stm32f1xx_hal_spi.c ****   * @{
 241:Drivers/STM32F1xx_HAL_Driver/Src/stm32f1xx_hal_spi.c ****   */
 242:Drivers/STM32F1xx_HAL_Driver/Src/stm32f1xx_hal_spi.c **** #define SPI_DEFAULT_TIMEOUT 100U
 243:Drivers/STM32F1xx_HAL_Driver/Src/stm32f1xx_hal_spi.c **** /**
 244:Drivers/STM32F1xx_HAL_Driver/Src/stm32f1xx_hal_spi.c ****   * @}
 245:Drivers/STM32F1xx_HAL_Driver/Src/stm32f1xx_hal_spi.c ****   */
 246:Drivers/STM32F1xx_HAL_Driver/Src/stm32f1xx_hal_spi.c **** 
 247:Drivers/STM32F1xx_HAL_Driver/Src/stm32f1xx_hal_spi.c **** /* Private macros ------------------------------------------------------------*/
 248:Drivers/STM32F1xx_HAL_Driver/Src/stm32f1xx_hal_spi.c **** /* Private variables ---------------------------------------------------------*/
 249:Drivers/STM32F1xx_HAL_Driver/Src/stm32f1xx_hal_spi.c **** /* Private function prototypes -----------------------------------------------*/
 250:Drivers/STM32F1xx_HAL_Driver/Src/stm32f1xx_hal_spi.c **** /** @defgroup SPI_Private_Functions SPI Private Functions
 251:Drivers/STM32F1xx_HAL_Driver/Src/stm32f1xx_hal_spi.c ****   * @{
 252:Drivers/STM32F1xx_HAL_Driver/Src/stm32f1xx_hal_spi.c ****   */
 253:Drivers/STM32F1xx_HAL_Driver/Src/stm32f1xx_hal_spi.c **** static void SPI_DMATransmitCplt(DMA_HandleTypeDef *hdma);
 254:Drivers/STM32F1xx_HAL_Driver/Src/stm32f1xx_hal_spi.c **** static void SPI_DMAReceiveCplt(DMA_HandleTypeDef *hdma);
 255:Drivers/STM32F1xx_HAL_Driver/Src/stm32f1xx_hal_spi.c **** static void SPI_DMATransmitReceiveCplt(DMA_HandleTypeDef *hdma);
 256:Drivers/STM32F1xx_HAL_Driver/Src/stm32f1xx_hal_spi.c **** static void SPI_DMAHalfTransmitCplt(DMA_HandleTypeDef *hdma);
 257:Drivers/STM32F1xx_HAL_Driver/Src/stm32f1xx_hal_spi.c **** static void SPI_DMAHalfReceiveCplt(DMA_HandleTypeDef *hdma);
 258:Drivers/STM32F1xx_HAL_Driver/Src/stm32f1xx_hal_spi.c **** static void SPI_DMAHalfTransmitReceiveCplt(DMA_HandleTypeDef *hdma);
 259:Drivers/STM32F1xx_HAL_Driver/Src/stm32f1xx_hal_spi.c **** static void SPI_DMAError(DMA_HandleTypeDef *hdma);
 260:Drivers/STM32F1xx_HAL_Driver/Src/stm32f1xx_hal_spi.c **** static void SPI_DMAAbortOnError(DMA_HandleTypeDef *hdma);
ARM GAS  C:\Users\Alex\AppData\Local\Temp\ccfYuLQH.s 			page 6


 261:Drivers/STM32F1xx_HAL_Driver/Src/stm32f1xx_hal_spi.c **** static void SPI_DMATxAbortCallback(DMA_HandleTypeDef *hdma);
 262:Drivers/STM32F1xx_HAL_Driver/Src/stm32f1xx_hal_spi.c **** static void SPI_DMARxAbortCallback(DMA_HandleTypeDef *hdma);
 263:Drivers/STM32F1xx_HAL_Driver/Src/stm32f1xx_hal_spi.c **** static HAL_StatusTypeDef SPI_WaitFlagStateUntilTimeout(SPI_HandleTypeDef *hspi, uint32_t Flag, Flag
 264:Drivers/STM32F1xx_HAL_Driver/Src/stm32f1xx_hal_spi.c ****                                                        uint32_t Timeout, uint32_t Tickstart);
 265:Drivers/STM32F1xx_HAL_Driver/Src/stm32f1xx_hal_spi.c **** static void SPI_TxISR_8BIT(struct __SPI_HandleTypeDef *hspi);
 266:Drivers/STM32F1xx_HAL_Driver/Src/stm32f1xx_hal_spi.c **** static void SPI_TxISR_16BIT(struct __SPI_HandleTypeDef *hspi);
 267:Drivers/STM32F1xx_HAL_Driver/Src/stm32f1xx_hal_spi.c **** static void SPI_RxISR_8BIT(struct __SPI_HandleTypeDef *hspi);
 268:Drivers/STM32F1xx_HAL_Driver/Src/stm32f1xx_hal_spi.c **** static void SPI_RxISR_16BIT(struct __SPI_HandleTypeDef *hspi);
 269:Drivers/STM32F1xx_HAL_Driver/Src/stm32f1xx_hal_spi.c **** static void SPI_2linesRxISR_8BIT(struct __SPI_HandleTypeDef *hspi);
 270:Drivers/STM32F1xx_HAL_Driver/Src/stm32f1xx_hal_spi.c **** static void SPI_2linesTxISR_8BIT(struct __SPI_HandleTypeDef *hspi);
 271:Drivers/STM32F1xx_HAL_Driver/Src/stm32f1xx_hal_spi.c **** static void SPI_2linesTxISR_16BIT(struct __SPI_HandleTypeDef *hspi);
 272:Drivers/STM32F1xx_HAL_Driver/Src/stm32f1xx_hal_spi.c **** static void SPI_2linesRxISR_16BIT(struct __SPI_HandleTypeDef *hspi);
 273:Drivers/STM32F1xx_HAL_Driver/Src/stm32f1xx_hal_spi.c **** #if (USE_SPI_CRC != 0U)
 274:Drivers/STM32F1xx_HAL_Driver/Src/stm32f1xx_hal_spi.c **** static void SPI_RxISR_8BITCRC(struct __SPI_HandleTypeDef *hspi);
 275:Drivers/STM32F1xx_HAL_Driver/Src/stm32f1xx_hal_spi.c **** static void SPI_RxISR_16BITCRC(struct __SPI_HandleTypeDef *hspi);
 276:Drivers/STM32F1xx_HAL_Driver/Src/stm32f1xx_hal_spi.c **** static void SPI_2linesRxISR_8BITCRC(struct __SPI_HandleTypeDef *hspi);
 277:Drivers/STM32F1xx_HAL_Driver/Src/stm32f1xx_hal_spi.c **** static void SPI_2linesRxISR_16BITCRC(struct __SPI_HandleTypeDef *hspi);
 278:Drivers/STM32F1xx_HAL_Driver/Src/stm32f1xx_hal_spi.c **** #endif /* USE_SPI_CRC */
 279:Drivers/STM32F1xx_HAL_Driver/Src/stm32f1xx_hal_spi.c **** static void SPI_AbortRx_ISR(SPI_HandleTypeDef *hspi);
 280:Drivers/STM32F1xx_HAL_Driver/Src/stm32f1xx_hal_spi.c **** static void SPI_AbortTx_ISR(SPI_HandleTypeDef *hspi);
 281:Drivers/STM32F1xx_HAL_Driver/Src/stm32f1xx_hal_spi.c **** static void SPI_CloseRxTx_ISR(SPI_HandleTypeDef *hspi);
 282:Drivers/STM32F1xx_HAL_Driver/Src/stm32f1xx_hal_spi.c **** static void SPI_CloseRx_ISR(SPI_HandleTypeDef *hspi);
 283:Drivers/STM32F1xx_HAL_Driver/Src/stm32f1xx_hal_spi.c **** static void SPI_CloseTx_ISR(SPI_HandleTypeDef *hspi);
 284:Drivers/STM32F1xx_HAL_Driver/Src/stm32f1xx_hal_spi.c **** static HAL_StatusTypeDef SPI_EndRxTransaction(SPI_HandleTypeDef *hspi, uint32_t Timeout, uint32_t T
 285:Drivers/STM32F1xx_HAL_Driver/Src/stm32f1xx_hal_spi.c **** static HAL_StatusTypeDef SPI_EndRxTxTransaction(SPI_HandleTypeDef *hspi, uint32_t Timeout, uint32_t
 286:Drivers/STM32F1xx_HAL_Driver/Src/stm32f1xx_hal_spi.c **** /**
 287:Drivers/STM32F1xx_HAL_Driver/Src/stm32f1xx_hal_spi.c ****   * @}
 288:Drivers/STM32F1xx_HAL_Driver/Src/stm32f1xx_hal_spi.c ****   */
 289:Drivers/STM32F1xx_HAL_Driver/Src/stm32f1xx_hal_spi.c **** 
 290:Drivers/STM32F1xx_HAL_Driver/Src/stm32f1xx_hal_spi.c **** /* Exported functions --------------------------------------------------------*/
 291:Drivers/STM32F1xx_HAL_Driver/Src/stm32f1xx_hal_spi.c **** /** @defgroup SPI_Exported_Functions SPI Exported Functions
 292:Drivers/STM32F1xx_HAL_Driver/Src/stm32f1xx_hal_spi.c ****   * @{
 293:Drivers/STM32F1xx_HAL_Driver/Src/stm32f1xx_hal_spi.c ****   */
 294:Drivers/STM32F1xx_HAL_Driver/Src/stm32f1xx_hal_spi.c **** 
 295:Drivers/STM32F1xx_HAL_Driver/Src/stm32f1xx_hal_spi.c **** /** @defgroup SPI_Exported_Functions_Group1 Initialization and de-initialization functions
 296:Drivers/STM32F1xx_HAL_Driver/Src/stm32f1xx_hal_spi.c ****   *  @brief    Initialization and Configuration functions
 297:Drivers/STM32F1xx_HAL_Driver/Src/stm32f1xx_hal_spi.c ****   *
 298:Drivers/STM32F1xx_HAL_Driver/Src/stm32f1xx_hal_spi.c **** @verbatim
 299:Drivers/STM32F1xx_HAL_Driver/Src/stm32f1xx_hal_spi.c ****  ===============================================================================
 300:Drivers/STM32F1xx_HAL_Driver/Src/stm32f1xx_hal_spi.c ****               ##### Initialization and de-initialization functions #####
 301:Drivers/STM32F1xx_HAL_Driver/Src/stm32f1xx_hal_spi.c ****  ===============================================================================
 302:Drivers/STM32F1xx_HAL_Driver/Src/stm32f1xx_hal_spi.c ****     [..]  This subsection provides a set of functions allowing to initialize and
 303:Drivers/STM32F1xx_HAL_Driver/Src/stm32f1xx_hal_spi.c ****           de-initialize the SPIx peripheral:
 304:Drivers/STM32F1xx_HAL_Driver/Src/stm32f1xx_hal_spi.c **** 
 305:Drivers/STM32F1xx_HAL_Driver/Src/stm32f1xx_hal_spi.c ****       (+) User must implement HAL_SPI_MspInit() function in which he configures
 306:Drivers/STM32F1xx_HAL_Driver/Src/stm32f1xx_hal_spi.c ****           all related peripherals resources (CLOCK, GPIO, DMA, IT and NVIC ).
 307:Drivers/STM32F1xx_HAL_Driver/Src/stm32f1xx_hal_spi.c **** 
 308:Drivers/STM32F1xx_HAL_Driver/Src/stm32f1xx_hal_spi.c ****       (+) Call the function HAL_SPI_Init() to configure the selected device with
 309:Drivers/STM32F1xx_HAL_Driver/Src/stm32f1xx_hal_spi.c ****           the selected configuration:
 310:Drivers/STM32F1xx_HAL_Driver/Src/stm32f1xx_hal_spi.c ****         (++) Mode
 311:Drivers/STM32F1xx_HAL_Driver/Src/stm32f1xx_hal_spi.c ****         (++) Direction
 312:Drivers/STM32F1xx_HAL_Driver/Src/stm32f1xx_hal_spi.c ****         (++) Data Size
 313:Drivers/STM32F1xx_HAL_Driver/Src/stm32f1xx_hal_spi.c ****         (++) Clock Polarity and Phase
 314:Drivers/STM32F1xx_HAL_Driver/Src/stm32f1xx_hal_spi.c ****         (++) NSS Management
 315:Drivers/STM32F1xx_HAL_Driver/Src/stm32f1xx_hal_spi.c ****         (++) BaudRate Prescaler
 316:Drivers/STM32F1xx_HAL_Driver/Src/stm32f1xx_hal_spi.c ****         (++) FirstBit
 317:Drivers/STM32F1xx_HAL_Driver/Src/stm32f1xx_hal_spi.c ****         (++) TIMode
ARM GAS  C:\Users\Alex\AppData\Local\Temp\ccfYuLQH.s 			page 7


 318:Drivers/STM32F1xx_HAL_Driver/Src/stm32f1xx_hal_spi.c ****         (++) CRC Calculation
 319:Drivers/STM32F1xx_HAL_Driver/Src/stm32f1xx_hal_spi.c ****         (++) CRC Polynomial if CRC enabled
 320:Drivers/STM32F1xx_HAL_Driver/Src/stm32f1xx_hal_spi.c **** 
 321:Drivers/STM32F1xx_HAL_Driver/Src/stm32f1xx_hal_spi.c ****       (+) Call the function HAL_SPI_DeInit() to restore the default configuration
 322:Drivers/STM32F1xx_HAL_Driver/Src/stm32f1xx_hal_spi.c ****           of the selected SPIx peripheral.
 323:Drivers/STM32F1xx_HAL_Driver/Src/stm32f1xx_hal_spi.c **** 
 324:Drivers/STM32F1xx_HAL_Driver/Src/stm32f1xx_hal_spi.c **** @endverbatim
 325:Drivers/STM32F1xx_HAL_Driver/Src/stm32f1xx_hal_spi.c ****   * @{
 326:Drivers/STM32F1xx_HAL_Driver/Src/stm32f1xx_hal_spi.c ****   */
 327:Drivers/STM32F1xx_HAL_Driver/Src/stm32f1xx_hal_spi.c **** 
 328:Drivers/STM32F1xx_HAL_Driver/Src/stm32f1xx_hal_spi.c **** /**
 329:Drivers/STM32F1xx_HAL_Driver/Src/stm32f1xx_hal_spi.c ****   * @brief  Initialize the SPI according to the specified parameters
 330:Drivers/STM32F1xx_HAL_Driver/Src/stm32f1xx_hal_spi.c ****   *         in the SPI_InitTypeDef and initialize the associated handle.
 331:Drivers/STM32F1xx_HAL_Driver/Src/stm32f1xx_hal_spi.c ****   * @param  hspi pointer to a SPI_HandleTypeDef structure that contains
 332:Drivers/STM32F1xx_HAL_Driver/Src/stm32f1xx_hal_spi.c ****   *               the configuration information for SPI module.
 333:Drivers/STM32F1xx_HAL_Driver/Src/stm32f1xx_hal_spi.c ****   * @retval HAL status
 334:Drivers/STM32F1xx_HAL_Driver/Src/stm32f1xx_hal_spi.c ****   */
 335:Drivers/STM32F1xx_HAL_Driver/Src/stm32f1xx_hal_spi.c **** HAL_StatusTypeDef HAL_SPI_Init(SPI_HandleTypeDef *hspi)
 336:Drivers/STM32F1xx_HAL_Driver/Src/stm32f1xx_hal_spi.c **** {
  27              		.loc 1 336 1
  28              		.cfi_startproc
  29              		@ args = 0, pretend = 0, frame = 8
  30              		@ frame_needed = 1, uses_anonymous_args = 0
  31 0000 80B5     		push	{r7, lr}
  32              	.LCFI0:
  33              		.cfi_def_cfa_offset 8
  34              		.cfi_offset 7, -8
  35              		.cfi_offset 14, -4
  36 0002 82B0     		sub	sp, sp, #8
  37              	.LCFI1:
  38              		.cfi_def_cfa_offset 16
  39 0004 00AF     		add	r7, sp, #0
  40              	.LCFI2:
  41              		.cfi_def_cfa_register 7
  42 0006 7860     		str	r0, [r7, #4]
 337:Drivers/STM32F1xx_HAL_Driver/Src/stm32f1xx_hal_spi.c ****   /* Check the SPI handle allocation */
 338:Drivers/STM32F1xx_HAL_Driver/Src/stm32f1xx_hal_spi.c ****   if (hspi == NULL)
  43              		.loc 1 338 6
  44 0008 7B68     		ldr	r3, [r7, #4]
  45 000a 002B     		cmp	r3, #0
  46 000c 01D1     		bne	.L2
 339:Drivers/STM32F1xx_HAL_Driver/Src/stm32f1xx_hal_spi.c ****   {
 340:Drivers/STM32F1xx_HAL_Driver/Src/stm32f1xx_hal_spi.c ****     return HAL_ERROR;
  47              		.loc 1 340 12
  48 000e 0123     		movs	r3, #1
  49 0010 53E0     		b	.L3
  50              	.L2:
 341:Drivers/STM32F1xx_HAL_Driver/Src/stm32f1xx_hal_spi.c ****   }
 342:Drivers/STM32F1xx_HAL_Driver/Src/stm32f1xx_hal_spi.c **** 
 343:Drivers/STM32F1xx_HAL_Driver/Src/stm32f1xx_hal_spi.c ****   /* Check the parameters */
 344:Drivers/STM32F1xx_HAL_Driver/Src/stm32f1xx_hal_spi.c ****   assert_param(IS_SPI_ALL_INSTANCE(hspi->Instance));
 345:Drivers/STM32F1xx_HAL_Driver/Src/stm32f1xx_hal_spi.c ****   assert_param(IS_SPI_MODE(hspi->Init.Mode));
 346:Drivers/STM32F1xx_HAL_Driver/Src/stm32f1xx_hal_spi.c ****   assert_param(IS_SPI_DIRECTION(hspi->Init.Direction));
 347:Drivers/STM32F1xx_HAL_Driver/Src/stm32f1xx_hal_spi.c ****   assert_param(IS_SPI_DATASIZE(hspi->Init.DataSize));
 348:Drivers/STM32F1xx_HAL_Driver/Src/stm32f1xx_hal_spi.c ****   assert_param(IS_SPI_NSS(hspi->Init.NSS));
 349:Drivers/STM32F1xx_HAL_Driver/Src/stm32f1xx_hal_spi.c ****   assert_param(IS_SPI_BAUDRATE_PRESCALER(hspi->Init.BaudRatePrescaler));
 350:Drivers/STM32F1xx_HAL_Driver/Src/stm32f1xx_hal_spi.c ****   assert_param(IS_SPI_FIRST_BIT(hspi->Init.FirstBit));
ARM GAS  C:\Users\Alex\AppData\Local\Temp\ccfYuLQH.s 			page 8


 351:Drivers/STM32F1xx_HAL_Driver/Src/stm32f1xx_hal_spi.c ****   /* TI mode is not supported on this device.
 352:Drivers/STM32F1xx_HAL_Driver/Src/stm32f1xx_hal_spi.c ****      TIMode parameter is mandatory equal to SPI_TIMODE_DISABLE */
 353:Drivers/STM32F1xx_HAL_Driver/Src/stm32f1xx_hal_spi.c ****   assert_param(IS_SPI_TIMODE(hspi->Init.TIMode));
 354:Drivers/STM32F1xx_HAL_Driver/Src/stm32f1xx_hal_spi.c ****   if (hspi->Init.TIMode == SPI_TIMODE_DISABLE)
 355:Drivers/STM32F1xx_HAL_Driver/Src/stm32f1xx_hal_spi.c ****   {
 356:Drivers/STM32F1xx_HAL_Driver/Src/stm32f1xx_hal_spi.c ****     assert_param(IS_SPI_CPOL(hspi->Init.CLKPolarity));
 357:Drivers/STM32F1xx_HAL_Driver/Src/stm32f1xx_hal_spi.c ****     assert_param(IS_SPI_CPHA(hspi->Init.CLKPhase));
 358:Drivers/STM32F1xx_HAL_Driver/Src/stm32f1xx_hal_spi.c ****   }
 359:Drivers/STM32F1xx_HAL_Driver/Src/stm32f1xx_hal_spi.c **** #if (USE_SPI_CRC != 0U)
 360:Drivers/STM32F1xx_HAL_Driver/Src/stm32f1xx_hal_spi.c ****   assert_param(IS_SPI_CRC_CALCULATION(hspi->Init.CRCCalculation));
 361:Drivers/STM32F1xx_HAL_Driver/Src/stm32f1xx_hal_spi.c ****   if (hspi->Init.CRCCalculation == SPI_CRCCALCULATION_ENABLE)
 362:Drivers/STM32F1xx_HAL_Driver/Src/stm32f1xx_hal_spi.c ****   {
 363:Drivers/STM32F1xx_HAL_Driver/Src/stm32f1xx_hal_spi.c ****     assert_param(IS_SPI_CRC_POLYNOMIAL(hspi->Init.CRCPolynomial));
 364:Drivers/STM32F1xx_HAL_Driver/Src/stm32f1xx_hal_spi.c ****   }
 365:Drivers/STM32F1xx_HAL_Driver/Src/stm32f1xx_hal_spi.c **** #else
 366:Drivers/STM32F1xx_HAL_Driver/Src/stm32f1xx_hal_spi.c ****   hspi->Init.CRCCalculation = SPI_CRCCALCULATION_DISABLE;
  51              		.loc 1 366 29
  52 0012 7B68     		ldr	r3, [r7, #4]
  53 0014 0022     		movs	r2, #0
  54 0016 9A62     		str	r2, [r3, #40]
 367:Drivers/STM32F1xx_HAL_Driver/Src/stm32f1xx_hal_spi.c **** #endif /* USE_SPI_CRC */
 368:Drivers/STM32F1xx_HAL_Driver/Src/stm32f1xx_hal_spi.c **** 
 369:Drivers/STM32F1xx_HAL_Driver/Src/stm32f1xx_hal_spi.c ****   if (hspi->State == HAL_SPI_STATE_RESET)
  55              		.loc 1 369 11
  56 0018 7B68     		ldr	r3, [r7, #4]
  57 001a 93F85130 		ldrb	r3, [r3, #81]
  58 001e DBB2     		uxtb	r3, r3
  59              		.loc 1 369 6
  60 0020 002B     		cmp	r3, #0
  61 0022 06D1     		bne	.L4
 370:Drivers/STM32F1xx_HAL_Driver/Src/stm32f1xx_hal_spi.c ****   {
 371:Drivers/STM32F1xx_HAL_Driver/Src/stm32f1xx_hal_spi.c ****     /* Allocate lock resource and initialize it */
 372:Drivers/STM32F1xx_HAL_Driver/Src/stm32f1xx_hal_spi.c ****     hspi->Lock = HAL_UNLOCKED;
  62              		.loc 1 372 16
  63 0024 7B68     		ldr	r3, [r7, #4]
  64 0026 0022     		movs	r2, #0
  65 0028 83F85020 		strb	r2, [r3, #80]
 373:Drivers/STM32F1xx_HAL_Driver/Src/stm32f1xx_hal_spi.c **** 
 374:Drivers/STM32F1xx_HAL_Driver/Src/stm32f1xx_hal_spi.c **** #if (USE_HAL_SPI_REGISTER_CALLBACKS == 1U)
 375:Drivers/STM32F1xx_HAL_Driver/Src/stm32f1xx_hal_spi.c ****     /* Init the SPI Callback settings */
 376:Drivers/STM32F1xx_HAL_Driver/Src/stm32f1xx_hal_spi.c ****     hspi->TxCpltCallback       = HAL_SPI_TxCpltCallback;       /* Legacy weak TxCpltCallback       
 377:Drivers/STM32F1xx_HAL_Driver/Src/stm32f1xx_hal_spi.c ****     hspi->RxCpltCallback       = HAL_SPI_RxCpltCallback;       /* Legacy weak RxCpltCallback       
 378:Drivers/STM32F1xx_HAL_Driver/Src/stm32f1xx_hal_spi.c ****     hspi->TxRxCpltCallback     = HAL_SPI_TxRxCpltCallback;     /* Legacy weak TxRxCpltCallback     
 379:Drivers/STM32F1xx_HAL_Driver/Src/stm32f1xx_hal_spi.c ****     hspi->TxHalfCpltCallback   = HAL_SPI_TxHalfCpltCallback;   /* Legacy weak TxHalfCpltCallback   
 380:Drivers/STM32F1xx_HAL_Driver/Src/stm32f1xx_hal_spi.c ****     hspi->RxHalfCpltCallback   = HAL_SPI_RxHalfCpltCallback;   /* Legacy weak RxHalfCpltCallback   
 381:Drivers/STM32F1xx_HAL_Driver/Src/stm32f1xx_hal_spi.c ****     hspi->TxRxHalfCpltCallback = HAL_SPI_TxRxHalfCpltCallback; /* Legacy weak TxRxHalfCpltCallback 
 382:Drivers/STM32F1xx_HAL_Driver/Src/stm32f1xx_hal_spi.c ****     hspi->ErrorCallback        = HAL_SPI_ErrorCallback;        /* Legacy weak ErrorCallback        
 383:Drivers/STM32F1xx_HAL_Driver/Src/stm32f1xx_hal_spi.c ****     hspi->AbortCpltCallback    = HAL_SPI_AbortCpltCallback;    /* Legacy weak AbortCpltCallback    
 384:Drivers/STM32F1xx_HAL_Driver/Src/stm32f1xx_hal_spi.c **** 
 385:Drivers/STM32F1xx_HAL_Driver/Src/stm32f1xx_hal_spi.c ****     if (hspi->MspInitCallback == NULL)
 386:Drivers/STM32F1xx_HAL_Driver/Src/stm32f1xx_hal_spi.c ****     {
 387:Drivers/STM32F1xx_HAL_Driver/Src/stm32f1xx_hal_spi.c ****       hspi->MspInitCallback = HAL_SPI_MspInit; /* Legacy weak MspInit  */
 388:Drivers/STM32F1xx_HAL_Driver/Src/stm32f1xx_hal_spi.c ****     }
 389:Drivers/STM32F1xx_HAL_Driver/Src/stm32f1xx_hal_spi.c **** 
 390:Drivers/STM32F1xx_HAL_Driver/Src/stm32f1xx_hal_spi.c ****     /* Init the low level hardware : GPIO, CLOCK, NVIC... */
 391:Drivers/STM32F1xx_HAL_Driver/Src/stm32f1xx_hal_spi.c ****     hspi->MspInitCallback(hspi);
 392:Drivers/STM32F1xx_HAL_Driver/Src/stm32f1xx_hal_spi.c **** #else
ARM GAS  C:\Users\Alex\AppData\Local\Temp\ccfYuLQH.s 			page 9


 393:Drivers/STM32F1xx_HAL_Driver/Src/stm32f1xx_hal_spi.c ****     /* Init the low level hardware : GPIO, CLOCK, NVIC... */
 394:Drivers/STM32F1xx_HAL_Driver/Src/stm32f1xx_hal_spi.c ****     HAL_SPI_MspInit(hspi);
  66              		.loc 1 394 5
  67 002c 7868     		ldr	r0, [r7, #4]
  68 002e FFF7FEFF 		bl	HAL_SPI_MspInit
  69              	.L4:
 395:Drivers/STM32F1xx_HAL_Driver/Src/stm32f1xx_hal_spi.c **** #endif /* USE_HAL_SPI_REGISTER_CALLBACKS */
 396:Drivers/STM32F1xx_HAL_Driver/Src/stm32f1xx_hal_spi.c ****   }
 397:Drivers/STM32F1xx_HAL_Driver/Src/stm32f1xx_hal_spi.c **** 
 398:Drivers/STM32F1xx_HAL_Driver/Src/stm32f1xx_hal_spi.c ****   hspi->State = HAL_SPI_STATE_BUSY;
  70              		.loc 1 398 15
  71 0032 7B68     		ldr	r3, [r7, #4]
  72 0034 0222     		movs	r2, #2
  73 0036 83F85120 		strb	r2, [r3, #81]
 399:Drivers/STM32F1xx_HAL_Driver/Src/stm32f1xx_hal_spi.c **** 
 400:Drivers/STM32F1xx_HAL_Driver/Src/stm32f1xx_hal_spi.c ****   /* Disable the selected SPI peripheral */
 401:Drivers/STM32F1xx_HAL_Driver/Src/stm32f1xx_hal_spi.c ****   __HAL_SPI_DISABLE(hspi);
  74              		.loc 1 401 3
  75 003a 7B68     		ldr	r3, [r7, #4]
  76 003c 1B68     		ldr	r3, [r3]
  77 003e 1A68     		ldr	r2, [r3]
  78 0040 7B68     		ldr	r3, [r7, #4]
  79 0042 1B68     		ldr	r3, [r3]
  80 0044 22F04002 		bic	r2, r2, #64
  81 0048 1A60     		str	r2, [r3]
 402:Drivers/STM32F1xx_HAL_Driver/Src/stm32f1xx_hal_spi.c **** 
 403:Drivers/STM32F1xx_HAL_Driver/Src/stm32f1xx_hal_spi.c ****   /*----------------------- SPIx CR1 & CR2 Configuration ---------------------*/
 404:Drivers/STM32F1xx_HAL_Driver/Src/stm32f1xx_hal_spi.c ****   /* Configure : SPI Mode, Communication Mode, Data size, Clock polarity and phase, NSS management,
 405:Drivers/STM32F1xx_HAL_Driver/Src/stm32f1xx_hal_spi.c ****   Communication speed, First bit and CRC calculation state */
 406:Drivers/STM32F1xx_HAL_Driver/Src/stm32f1xx_hal_spi.c ****   WRITE_REG(hspi->Instance->CR1, (hspi->Init.Mode | hspi->Init.Direction | hspi->Init.DataSize |
  82              		.loc 1 406 3
  83 004a 7B68     		ldr	r3, [r7, #4]
  84 004c 5A68     		ldr	r2, [r3, #4]
  85 004e 7B68     		ldr	r3, [r7, #4]
  86 0050 9B68     		ldr	r3, [r3, #8]
  87 0052 1A43     		orrs	r2, r2, r3
  88 0054 7B68     		ldr	r3, [r7, #4]
  89 0056 DB68     		ldr	r3, [r3, #12]
  90 0058 1A43     		orrs	r2, r2, r3
  91 005a 7B68     		ldr	r3, [r7, #4]
  92 005c 1B69     		ldr	r3, [r3, #16]
  93 005e 1A43     		orrs	r2, r2, r3
  94 0060 7B68     		ldr	r3, [r7, #4]
  95 0062 5B69     		ldr	r3, [r3, #20]
  96 0064 1A43     		orrs	r2, r2, r3
  97 0066 7B68     		ldr	r3, [r7, #4]
  98 0068 9B69     		ldr	r3, [r3, #24]
  99 006a 03F40073 		and	r3, r3, #512
 100 006e 1A43     		orrs	r2, r2, r3
 101 0070 7B68     		ldr	r3, [r7, #4]
 102 0072 DB69     		ldr	r3, [r3, #28]
 103 0074 1A43     		orrs	r2, r2, r3
 104 0076 7B68     		ldr	r3, [r7, #4]
 105 0078 1B6A     		ldr	r3, [r3, #32]
 106 007a 42EA0301 		orr	r1, r2, r3
 107 007e 7B68     		ldr	r3, [r7, #4]
 108 0080 9A6A     		ldr	r2, [r3, #40]
ARM GAS  C:\Users\Alex\AppData\Local\Temp\ccfYuLQH.s 			page 10


 109 0082 7B68     		ldr	r3, [r7, #4]
 110 0084 1B68     		ldr	r3, [r3]
 111 0086 0A43     		orrs	r2, r2, r1
 112 0088 1A60     		str	r2, [r3]
 407:Drivers/STM32F1xx_HAL_Driver/Src/stm32f1xx_hal_spi.c ****                                   hspi->Init.CLKPolarity | hspi->Init.CLKPhase | (hspi->Init.NSS & 
 408:Drivers/STM32F1xx_HAL_Driver/Src/stm32f1xx_hal_spi.c ****                                   hspi->Init.BaudRatePrescaler | hspi->Init.FirstBit  | hspi->Init.
 409:Drivers/STM32F1xx_HAL_Driver/Src/stm32f1xx_hal_spi.c **** 
 410:Drivers/STM32F1xx_HAL_Driver/Src/stm32f1xx_hal_spi.c ****   /* Configure : NSS management */
 411:Drivers/STM32F1xx_HAL_Driver/Src/stm32f1xx_hal_spi.c ****   WRITE_REG(hspi->Instance->CR2, ((hspi->Init.NSS >> 16U) & SPI_CR2_SSOE));
 113              		.loc 1 411 3
 114 008a 7B68     		ldr	r3, [r7, #4]
 115 008c 9B69     		ldr	r3, [r3, #24]
 116 008e 1A0C     		lsrs	r2, r3, #16
 117 0090 7B68     		ldr	r3, [r7, #4]
 118 0092 1B68     		ldr	r3, [r3]
 119 0094 02F00402 		and	r2, r2, #4
 120 0098 5A60     		str	r2, [r3, #4]
 412:Drivers/STM32F1xx_HAL_Driver/Src/stm32f1xx_hal_spi.c **** 
 413:Drivers/STM32F1xx_HAL_Driver/Src/stm32f1xx_hal_spi.c **** #if (USE_SPI_CRC != 0U)
 414:Drivers/STM32F1xx_HAL_Driver/Src/stm32f1xx_hal_spi.c ****   /*---------------------------- SPIx CRCPOLY Configuration ------------------*/
 415:Drivers/STM32F1xx_HAL_Driver/Src/stm32f1xx_hal_spi.c ****   /* Configure : CRC Polynomial */
 416:Drivers/STM32F1xx_HAL_Driver/Src/stm32f1xx_hal_spi.c ****   if (hspi->Init.CRCCalculation == SPI_CRCCALCULATION_ENABLE)
 417:Drivers/STM32F1xx_HAL_Driver/Src/stm32f1xx_hal_spi.c ****   {
 418:Drivers/STM32F1xx_HAL_Driver/Src/stm32f1xx_hal_spi.c ****     WRITE_REG(hspi->Instance->CRCPR, hspi->Init.CRCPolynomial);
 419:Drivers/STM32F1xx_HAL_Driver/Src/stm32f1xx_hal_spi.c ****   }
 420:Drivers/STM32F1xx_HAL_Driver/Src/stm32f1xx_hal_spi.c **** #endif /* USE_SPI_CRC */
 421:Drivers/STM32F1xx_HAL_Driver/Src/stm32f1xx_hal_spi.c **** 
 422:Drivers/STM32F1xx_HAL_Driver/Src/stm32f1xx_hal_spi.c **** #if defined(SPI_I2SCFGR_I2SMOD)
 423:Drivers/STM32F1xx_HAL_Driver/Src/stm32f1xx_hal_spi.c ****   /* Activate the SPI mode (Make sure that I2SMOD bit in I2SCFGR register is reset) */
 424:Drivers/STM32F1xx_HAL_Driver/Src/stm32f1xx_hal_spi.c ****   CLEAR_BIT(hspi->Instance->I2SCFGR, SPI_I2SCFGR_I2SMOD);
 121              		.loc 1 424 3
 122 009a 7B68     		ldr	r3, [r7, #4]
 123 009c 1B68     		ldr	r3, [r3]
 124 009e DA69     		ldr	r2, [r3, #28]
 125 00a0 7B68     		ldr	r3, [r7, #4]
 126 00a2 1B68     		ldr	r3, [r3]
 127 00a4 22F40062 		bic	r2, r2, #2048
 128 00a8 DA61     		str	r2, [r3, #28]
 425:Drivers/STM32F1xx_HAL_Driver/Src/stm32f1xx_hal_spi.c **** #endif /* SPI_I2SCFGR_I2SMOD */
 426:Drivers/STM32F1xx_HAL_Driver/Src/stm32f1xx_hal_spi.c **** 
 427:Drivers/STM32F1xx_HAL_Driver/Src/stm32f1xx_hal_spi.c ****   hspi->ErrorCode = HAL_SPI_ERROR_NONE;
 129              		.loc 1 427 19
 130 00aa 7B68     		ldr	r3, [r7, #4]
 131 00ac 0022     		movs	r2, #0
 132 00ae 5A65     		str	r2, [r3, #84]
 428:Drivers/STM32F1xx_HAL_Driver/Src/stm32f1xx_hal_spi.c ****   hspi->State     = HAL_SPI_STATE_READY;
 133              		.loc 1 428 19
 134 00b0 7B68     		ldr	r3, [r7, #4]
 135 00b2 0122     		movs	r2, #1
 136 00b4 83F85120 		strb	r2, [r3, #81]
 429:Drivers/STM32F1xx_HAL_Driver/Src/stm32f1xx_hal_spi.c **** 
 430:Drivers/STM32F1xx_HAL_Driver/Src/stm32f1xx_hal_spi.c ****   return HAL_OK;
 137              		.loc 1 430 10
 138 00b8 0023     		movs	r3, #0
 139              	.L3:
 431:Drivers/STM32F1xx_HAL_Driver/Src/stm32f1xx_hal_spi.c **** }
 140              		.loc 1 431 1
ARM GAS  C:\Users\Alex\AppData\Local\Temp\ccfYuLQH.s 			page 11


 141 00ba 1846     		mov	r0, r3
 142 00bc 0837     		adds	r7, r7, #8
 143              	.LCFI3:
 144              		.cfi_def_cfa_offset 8
 145 00be BD46     		mov	sp, r7
 146              	.LCFI4:
 147              		.cfi_def_cfa_register 13
 148              		@ sp needed
 149 00c0 80BD     		pop	{r7, pc}
 150              		.cfi_endproc
 151              	.LFE65:
 153              		.section	.text.HAL_SPI_DeInit,"ax",%progbits
 154              		.align	1
 155              		.global	HAL_SPI_DeInit
 156              		.syntax unified
 157              		.thumb
 158              		.thumb_func
 159              		.fpu softvfp
 161              	HAL_SPI_DeInit:
 162              	.LFB66:
 432:Drivers/STM32F1xx_HAL_Driver/Src/stm32f1xx_hal_spi.c **** 
 433:Drivers/STM32F1xx_HAL_Driver/Src/stm32f1xx_hal_spi.c **** /**
 434:Drivers/STM32F1xx_HAL_Driver/Src/stm32f1xx_hal_spi.c ****   * @brief  De-Initialize the SPI peripheral.
 435:Drivers/STM32F1xx_HAL_Driver/Src/stm32f1xx_hal_spi.c ****   * @param  hspi pointer to a SPI_HandleTypeDef structure that contains
 436:Drivers/STM32F1xx_HAL_Driver/Src/stm32f1xx_hal_spi.c ****   *               the configuration information for SPI module.
 437:Drivers/STM32F1xx_HAL_Driver/Src/stm32f1xx_hal_spi.c ****   * @retval HAL status
 438:Drivers/STM32F1xx_HAL_Driver/Src/stm32f1xx_hal_spi.c ****   */
 439:Drivers/STM32F1xx_HAL_Driver/Src/stm32f1xx_hal_spi.c **** HAL_StatusTypeDef HAL_SPI_DeInit(SPI_HandleTypeDef *hspi)
 440:Drivers/STM32F1xx_HAL_Driver/Src/stm32f1xx_hal_spi.c **** {
 163              		.loc 1 440 1
 164              		.cfi_startproc
 165              		@ args = 0, pretend = 0, frame = 8
 166              		@ frame_needed = 1, uses_anonymous_args = 0
 167 0000 80B5     		push	{r7, lr}
 168              	.LCFI5:
 169              		.cfi_def_cfa_offset 8
 170              		.cfi_offset 7, -8
 171              		.cfi_offset 14, -4
 172 0002 82B0     		sub	sp, sp, #8
 173              	.LCFI6:
 174              		.cfi_def_cfa_offset 16
 175 0004 00AF     		add	r7, sp, #0
 176              	.LCFI7:
 177              		.cfi_def_cfa_register 7
 178 0006 7860     		str	r0, [r7, #4]
 441:Drivers/STM32F1xx_HAL_Driver/Src/stm32f1xx_hal_spi.c ****   /* Check the SPI handle allocation */
 442:Drivers/STM32F1xx_HAL_Driver/Src/stm32f1xx_hal_spi.c ****   if (hspi == NULL)
 179              		.loc 1 442 6
 180 0008 7B68     		ldr	r3, [r7, #4]
 181 000a 002B     		cmp	r3, #0
 182 000c 01D1     		bne	.L6
 443:Drivers/STM32F1xx_HAL_Driver/Src/stm32f1xx_hal_spi.c ****   {
 444:Drivers/STM32F1xx_HAL_Driver/Src/stm32f1xx_hal_spi.c ****     return HAL_ERROR;
 183              		.loc 1 444 12
 184 000e 0123     		movs	r3, #1
 185 0010 1AE0     		b	.L7
 186              	.L6:
ARM GAS  C:\Users\Alex\AppData\Local\Temp\ccfYuLQH.s 			page 12


 445:Drivers/STM32F1xx_HAL_Driver/Src/stm32f1xx_hal_spi.c ****   }
 446:Drivers/STM32F1xx_HAL_Driver/Src/stm32f1xx_hal_spi.c **** 
 447:Drivers/STM32F1xx_HAL_Driver/Src/stm32f1xx_hal_spi.c ****   /* Check SPI Instance parameter */
 448:Drivers/STM32F1xx_HAL_Driver/Src/stm32f1xx_hal_spi.c ****   assert_param(IS_SPI_ALL_INSTANCE(hspi->Instance));
 449:Drivers/STM32F1xx_HAL_Driver/Src/stm32f1xx_hal_spi.c **** 
 450:Drivers/STM32F1xx_HAL_Driver/Src/stm32f1xx_hal_spi.c ****   hspi->State = HAL_SPI_STATE_BUSY;
 187              		.loc 1 450 15
 188 0012 7B68     		ldr	r3, [r7, #4]
 189 0014 0222     		movs	r2, #2
 190 0016 83F85120 		strb	r2, [r3, #81]
 451:Drivers/STM32F1xx_HAL_Driver/Src/stm32f1xx_hal_spi.c **** 
 452:Drivers/STM32F1xx_HAL_Driver/Src/stm32f1xx_hal_spi.c ****   /* Disable the SPI Peripheral Clock */
 453:Drivers/STM32F1xx_HAL_Driver/Src/stm32f1xx_hal_spi.c ****   __HAL_SPI_DISABLE(hspi);
 191              		.loc 1 453 3
 192 001a 7B68     		ldr	r3, [r7, #4]
 193 001c 1B68     		ldr	r3, [r3]
 194 001e 1A68     		ldr	r2, [r3]
 195 0020 7B68     		ldr	r3, [r7, #4]
 196 0022 1B68     		ldr	r3, [r3]
 197 0024 22F04002 		bic	r2, r2, #64
 198 0028 1A60     		str	r2, [r3]
 454:Drivers/STM32F1xx_HAL_Driver/Src/stm32f1xx_hal_spi.c **** 
 455:Drivers/STM32F1xx_HAL_Driver/Src/stm32f1xx_hal_spi.c **** #if (USE_HAL_SPI_REGISTER_CALLBACKS == 1U)
 456:Drivers/STM32F1xx_HAL_Driver/Src/stm32f1xx_hal_spi.c ****   if (hspi->MspDeInitCallback == NULL)
 457:Drivers/STM32F1xx_HAL_Driver/Src/stm32f1xx_hal_spi.c ****   {
 458:Drivers/STM32F1xx_HAL_Driver/Src/stm32f1xx_hal_spi.c ****     hspi->MspDeInitCallback = HAL_SPI_MspDeInit; /* Legacy weak MspDeInit  */
 459:Drivers/STM32F1xx_HAL_Driver/Src/stm32f1xx_hal_spi.c ****   }
 460:Drivers/STM32F1xx_HAL_Driver/Src/stm32f1xx_hal_spi.c **** 
 461:Drivers/STM32F1xx_HAL_Driver/Src/stm32f1xx_hal_spi.c ****   /* DeInit the low level hardware: GPIO, CLOCK, NVIC... */
 462:Drivers/STM32F1xx_HAL_Driver/Src/stm32f1xx_hal_spi.c ****   hspi->MspDeInitCallback(hspi);
 463:Drivers/STM32F1xx_HAL_Driver/Src/stm32f1xx_hal_spi.c **** #else
 464:Drivers/STM32F1xx_HAL_Driver/Src/stm32f1xx_hal_spi.c ****   /* DeInit the low level hardware: GPIO, CLOCK, NVIC... */
 465:Drivers/STM32F1xx_HAL_Driver/Src/stm32f1xx_hal_spi.c ****   HAL_SPI_MspDeInit(hspi);
 199              		.loc 1 465 3
 200 002a 7868     		ldr	r0, [r7, #4]
 201 002c FFF7FEFF 		bl	HAL_SPI_MspDeInit
 466:Drivers/STM32F1xx_HAL_Driver/Src/stm32f1xx_hal_spi.c **** #endif /* USE_HAL_SPI_REGISTER_CALLBACKS */
 467:Drivers/STM32F1xx_HAL_Driver/Src/stm32f1xx_hal_spi.c **** 
 468:Drivers/STM32F1xx_HAL_Driver/Src/stm32f1xx_hal_spi.c ****   hspi->ErrorCode = HAL_SPI_ERROR_NONE;
 202              		.loc 1 468 19
 203 0030 7B68     		ldr	r3, [r7, #4]
 204 0032 0022     		movs	r2, #0
 205 0034 5A65     		str	r2, [r3, #84]
 469:Drivers/STM32F1xx_HAL_Driver/Src/stm32f1xx_hal_spi.c ****   hspi->State = HAL_SPI_STATE_RESET;
 206              		.loc 1 469 15
 207 0036 7B68     		ldr	r3, [r7, #4]
 208 0038 0022     		movs	r2, #0
 209 003a 83F85120 		strb	r2, [r3, #81]
 470:Drivers/STM32F1xx_HAL_Driver/Src/stm32f1xx_hal_spi.c **** 
 471:Drivers/STM32F1xx_HAL_Driver/Src/stm32f1xx_hal_spi.c ****   /* Release Lock */
 472:Drivers/STM32F1xx_HAL_Driver/Src/stm32f1xx_hal_spi.c ****   __HAL_UNLOCK(hspi);
 210              		.loc 1 472 3
 211 003e 7B68     		ldr	r3, [r7, #4]
 212 0040 0022     		movs	r2, #0
 213 0042 83F85020 		strb	r2, [r3, #80]
 473:Drivers/STM32F1xx_HAL_Driver/Src/stm32f1xx_hal_spi.c **** 
 474:Drivers/STM32F1xx_HAL_Driver/Src/stm32f1xx_hal_spi.c ****   return HAL_OK;
ARM GAS  C:\Users\Alex\AppData\Local\Temp\ccfYuLQH.s 			page 13


 214              		.loc 1 474 10
 215 0046 0023     		movs	r3, #0
 216              	.L7:
 475:Drivers/STM32F1xx_HAL_Driver/Src/stm32f1xx_hal_spi.c **** }
 217              		.loc 1 475 1
 218 0048 1846     		mov	r0, r3
 219 004a 0837     		adds	r7, r7, #8
 220              	.LCFI8:
 221              		.cfi_def_cfa_offset 8
 222 004c BD46     		mov	sp, r7
 223              	.LCFI9:
 224              		.cfi_def_cfa_register 13
 225              		@ sp needed
 226 004e 80BD     		pop	{r7, pc}
 227              		.cfi_endproc
 228              	.LFE66:
 230              		.section	.text.HAL_SPI_MspInit,"ax",%progbits
 231              		.align	1
 232              		.weak	HAL_SPI_MspInit
 233              		.syntax unified
 234              		.thumb
 235              		.thumb_func
 236              		.fpu softvfp
 238              	HAL_SPI_MspInit:
 239              	.LFB67:
 476:Drivers/STM32F1xx_HAL_Driver/Src/stm32f1xx_hal_spi.c **** 
 477:Drivers/STM32F1xx_HAL_Driver/Src/stm32f1xx_hal_spi.c **** /**
 478:Drivers/STM32F1xx_HAL_Driver/Src/stm32f1xx_hal_spi.c ****   * @brief  Initialize the SPI MSP.
 479:Drivers/STM32F1xx_HAL_Driver/Src/stm32f1xx_hal_spi.c ****   * @param  hspi pointer to a SPI_HandleTypeDef structure that contains
 480:Drivers/STM32F1xx_HAL_Driver/Src/stm32f1xx_hal_spi.c ****   *               the configuration information for SPI module.
 481:Drivers/STM32F1xx_HAL_Driver/Src/stm32f1xx_hal_spi.c ****   * @retval None
 482:Drivers/STM32F1xx_HAL_Driver/Src/stm32f1xx_hal_spi.c ****   */
 483:Drivers/STM32F1xx_HAL_Driver/Src/stm32f1xx_hal_spi.c **** __weak void HAL_SPI_MspInit(SPI_HandleTypeDef *hspi)
 484:Drivers/STM32F1xx_HAL_Driver/Src/stm32f1xx_hal_spi.c **** {
 240              		.loc 1 484 1
 241              		.cfi_startproc
 242              		@ args = 0, pretend = 0, frame = 8
 243              		@ frame_needed = 1, uses_anonymous_args = 0
 244              		@ link register save eliminated.
 245 0000 80B4     		push	{r7}
 246              	.LCFI10:
 247              		.cfi_def_cfa_offset 4
 248              		.cfi_offset 7, -4
 249 0002 83B0     		sub	sp, sp, #12
 250              	.LCFI11:
 251              		.cfi_def_cfa_offset 16
 252 0004 00AF     		add	r7, sp, #0
 253              	.LCFI12:
 254              		.cfi_def_cfa_register 7
 255 0006 7860     		str	r0, [r7, #4]
 485:Drivers/STM32F1xx_HAL_Driver/Src/stm32f1xx_hal_spi.c ****   /* Prevent unused argument(s) compilation warning */
 486:Drivers/STM32F1xx_HAL_Driver/Src/stm32f1xx_hal_spi.c ****   UNUSED(hspi);
 487:Drivers/STM32F1xx_HAL_Driver/Src/stm32f1xx_hal_spi.c **** 
 488:Drivers/STM32F1xx_HAL_Driver/Src/stm32f1xx_hal_spi.c ****   /* NOTE : This function should not be modified, when the callback is needed,
 489:Drivers/STM32F1xx_HAL_Driver/Src/stm32f1xx_hal_spi.c ****             the HAL_SPI_MspInit should be implemented in the user file
 490:Drivers/STM32F1xx_HAL_Driver/Src/stm32f1xx_hal_spi.c ****    */
 491:Drivers/STM32F1xx_HAL_Driver/Src/stm32f1xx_hal_spi.c **** }
ARM GAS  C:\Users\Alex\AppData\Local\Temp\ccfYuLQH.s 			page 14


 256              		.loc 1 491 1
 257 0008 00BF     		nop
 258 000a 0C37     		adds	r7, r7, #12
 259              	.LCFI13:
 260              		.cfi_def_cfa_offset 4
 261 000c BD46     		mov	sp, r7
 262              	.LCFI14:
 263              		.cfi_def_cfa_register 13
 264              		@ sp needed
 265 000e 80BC     		pop	{r7}
 266              	.LCFI15:
 267              		.cfi_restore 7
 268              		.cfi_def_cfa_offset 0
 269 0010 7047     		bx	lr
 270              		.cfi_endproc
 271              	.LFE67:
 273              		.section	.text.HAL_SPI_MspDeInit,"ax",%progbits
 274              		.align	1
 275              		.weak	HAL_SPI_MspDeInit
 276              		.syntax unified
 277              		.thumb
 278              		.thumb_func
 279              		.fpu softvfp
 281              	HAL_SPI_MspDeInit:
 282              	.LFB68:
 492:Drivers/STM32F1xx_HAL_Driver/Src/stm32f1xx_hal_spi.c **** 
 493:Drivers/STM32F1xx_HAL_Driver/Src/stm32f1xx_hal_spi.c **** /**
 494:Drivers/STM32F1xx_HAL_Driver/Src/stm32f1xx_hal_spi.c ****   * @brief  De-Initialize the SPI MSP.
 495:Drivers/STM32F1xx_HAL_Driver/Src/stm32f1xx_hal_spi.c ****   * @param  hspi pointer to a SPI_HandleTypeDef structure that contains
 496:Drivers/STM32F1xx_HAL_Driver/Src/stm32f1xx_hal_spi.c ****   *               the configuration information for SPI module.
 497:Drivers/STM32F1xx_HAL_Driver/Src/stm32f1xx_hal_spi.c ****   * @retval None
 498:Drivers/STM32F1xx_HAL_Driver/Src/stm32f1xx_hal_spi.c ****   */
 499:Drivers/STM32F1xx_HAL_Driver/Src/stm32f1xx_hal_spi.c **** __weak void HAL_SPI_MspDeInit(SPI_HandleTypeDef *hspi)
 500:Drivers/STM32F1xx_HAL_Driver/Src/stm32f1xx_hal_spi.c **** {
 283              		.loc 1 500 1
 284              		.cfi_startproc
 285              		@ args = 0, pretend = 0, frame = 8
 286              		@ frame_needed = 1, uses_anonymous_args = 0
 287              		@ link register save eliminated.
 288 0000 80B4     		push	{r7}
 289              	.LCFI16:
 290              		.cfi_def_cfa_offset 4
 291              		.cfi_offset 7, -4
 292 0002 83B0     		sub	sp, sp, #12
 293              	.LCFI17:
 294              		.cfi_def_cfa_offset 16
 295 0004 00AF     		add	r7, sp, #0
 296              	.LCFI18:
 297              		.cfi_def_cfa_register 7
 298 0006 7860     		str	r0, [r7, #4]
 501:Drivers/STM32F1xx_HAL_Driver/Src/stm32f1xx_hal_spi.c ****   /* Prevent unused argument(s) compilation warning */
 502:Drivers/STM32F1xx_HAL_Driver/Src/stm32f1xx_hal_spi.c ****   UNUSED(hspi);
 503:Drivers/STM32F1xx_HAL_Driver/Src/stm32f1xx_hal_spi.c **** 
 504:Drivers/STM32F1xx_HAL_Driver/Src/stm32f1xx_hal_spi.c ****   /* NOTE : This function should not be modified, when the callback is needed,
 505:Drivers/STM32F1xx_HAL_Driver/Src/stm32f1xx_hal_spi.c ****             the HAL_SPI_MspDeInit should be implemented in the user file
 506:Drivers/STM32F1xx_HAL_Driver/Src/stm32f1xx_hal_spi.c ****    */
 507:Drivers/STM32F1xx_HAL_Driver/Src/stm32f1xx_hal_spi.c **** }
ARM GAS  C:\Users\Alex\AppData\Local\Temp\ccfYuLQH.s 			page 15


 299              		.loc 1 507 1
 300 0008 00BF     		nop
 301 000a 0C37     		adds	r7, r7, #12
 302              	.LCFI19:
 303              		.cfi_def_cfa_offset 4
 304 000c BD46     		mov	sp, r7
 305              	.LCFI20:
 306              		.cfi_def_cfa_register 13
 307              		@ sp needed
 308 000e 80BC     		pop	{r7}
 309              	.LCFI21:
 310              		.cfi_restore 7
 311              		.cfi_def_cfa_offset 0
 312 0010 7047     		bx	lr
 313              		.cfi_endproc
 314              	.LFE68:
 316              		.section	.text.HAL_SPI_Transmit,"ax",%progbits
 317              		.align	1
 318              		.global	HAL_SPI_Transmit
 319              		.syntax unified
 320              		.thumb
 321              		.thumb_func
 322              		.fpu softvfp
 324              	HAL_SPI_Transmit:
 325              	.LFB69:
 508:Drivers/STM32F1xx_HAL_Driver/Src/stm32f1xx_hal_spi.c **** 
 509:Drivers/STM32F1xx_HAL_Driver/Src/stm32f1xx_hal_spi.c **** #if (USE_HAL_SPI_REGISTER_CALLBACKS == 1U)
 510:Drivers/STM32F1xx_HAL_Driver/Src/stm32f1xx_hal_spi.c **** /**
 511:Drivers/STM32F1xx_HAL_Driver/Src/stm32f1xx_hal_spi.c ****   * @brief  Register a User SPI Callback
 512:Drivers/STM32F1xx_HAL_Driver/Src/stm32f1xx_hal_spi.c ****   *         To be used instead of the weak predefined callback
 513:Drivers/STM32F1xx_HAL_Driver/Src/stm32f1xx_hal_spi.c ****   * @param  hspi Pointer to a SPI_HandleTypeDef structure that contains
 514:Drivers/STM32F1xx_HAL_Driver/Src/stm32f1xx_hal_spi.c ****   *                the configuration information for the specified SPI.
 515:Drivers/STM32F1xx_HAL_Driver/Src/stm32f1xx_hal_spi.c ****   * @param  CallbackID ID of the callback to be registered
 516:Drivers/STM32F1xx_HAL_Driver/Src/stm32f1xx_hal_spi.c ****   * @param  pCallback pointer to the Callback function
 517:Drivers/STM32F1xx_HAL_Driver/Src/stm32f1xx_hal_spi.c ****   * @retval HAL status
 518:Drivers/STM32F1xx_HAL_Driver/Src/stm32f1xx_hal_spi.c ****   */
 519:Drivers/STM32F1xx_HAL_Driver/Src/stm32f1xx_hal_spi.c **** HAL_StatusTypeDef HAL_SPI_RegisterCallback(SPI_HandleTypeDef *hspi, HAL_SPI_CallbackIDTypeDef Callb
 520:Drivers/STM32F1xx_HAL_Driver/Src/stm32f1xx_hal_spi.c ****                                            pSPI_CallbackTypeDef pCallback)
 521:Drivers/STM32F1xx_HAL_Driver/Src/stm32f1xx_hal_spi.c **** {
 522:Drivers/STM32F1xx_HAL_Driver/Src/stm32f1xx_hal_spi.c ****   HAL_StatusTypeDef status = HAL_OK;
 523:Drivers/STM32F1xx_HAL_Driver/Src/stm32f1xx_hal_spi.c **** 
 524:Drivers/STM32F1xx_HAL_Driver/Src/stm32f1xx_hal_spi.c ****   if (pCallback == NULL)
 525:Drivers/STM32F1xx_HAL_Driver/Src/stm32f1xx_hal_spi.c ****   {
 526:Drivers/STM32F1xx_HAL_Driver/Src/stm32f1xx_hal_spi.c ****     /* Update the error code */
 527:Drivers/STM32F1xx_HAL_Driver/Src/stm32f1xx_hal_spi.c ****     hspi->ErrorCode |= HAL_SPI_ERROR_INVALID_CALLBACK;
 528:Drivers/STM32F1xx_HAL_Driver/Src/stm32f1xx_hal_spi.c **** 
 529:Drivers/STM32F1xx_HAL_Driver/Src/stm32f1xx_hal_spi.c ****     return HAL_ERROR;
 530:Drivers/STM32F1xx_HAL_Driver/Src/stm32f1xx_hal_spi.c ****   }
 531:Drivers/STM32F1xx_HAL_Driver/Src/stm32f1xx_hal_spi.c ****   /* Process locked */
 532:Drivers/STM32F1xx_HAL_Driver/Src/stm32f1xx_hal_spi.c ****   __HAL_LOCK(hspi);
 533:Drivers/STM32F1xx_HAL_Driver/Src/stm32f1xx_hal_spi.c **** 
 534:Drivers/STM32F1xx_HAL_Driver/Src/stm32f1xx_hal_spi.c ****   if (HAL_SPI_STATE_READY == hspi->State)
 535:Drivers/STM32F1xx_HAL_Driver/Src/stm32f1xx_hal_spi.c ****   {
 536:Drivers/STM32F1xx_HAL_Driver/Src/stm32f1xx_hal_spi.c ****     switch (CallbackID)
 537:Drivers/STM32F1xx_HAL_Driver/Src/stm32f1xx_hal_spi.c ****     {
 538:Drivers/STM32F1xx_HAL_Driver/Src/stm32f1xx_hal_spi.c ****       case HAL_SPI_TX_COMPLETE_CB_ID :
 539:Drivers/STM32F1xx_HAL_Driver/Src/stm32f1xx_hal_spi.c ****         hspi->TxCpltCallback = pCallback;
ARM GAS  C:\Users\Alex\AppData\Local\Temp\ccfYuLQH.s 			page 16


 540:Drivers/STM32F1xx_HAL_Driver/Src/stm32f1xx_hal_spi.c ****         break;
 541:Drivers/STM32F1xx_HAL_Driver/Src/stm32f1xx_hal_spi.c **** 
 542:Drivers/STM32F1xx_HAL_Driver/Src/stm32f1xx_hal_spi.c ****       case HAL_SPI_RX_COMPLETE_CB_ID :
 543:Drivers/STM32F1xx_HAL_Driver/Src/stm32f1xx_hal_spi.c ****         hspi->RxCpltCallback = pCallback;
 544:Drivers/STM32F1xx_HAL_Driver/Src/stm32f1xx_hal_spi.c ****         break;
 545:Drivers/STM32F1xx_HAL_Driver/Src/stm32f1xx_hal_spi.c **** 
 546:Drivers/STM32F1xx_HAL_Driver/Src/stm32f1xx_hal_spi.c ****       case HAL_SPI_TX_RX_COMPLETE_CB_ID :
 547:Drivers/STM32F1xx_HAL_Driver/Src/stm32f1xx_hal_spi.c ****         hspi->TxRxCpltCallback = pCallback;
 548:Drivers/STM32F1xx_HAL_Driver/Src/stm32f1xx_hal_spi.c ****         break;
 549:Drivers/STM32F1xx_HAL_Driver/Src/stm32f1xx_hal_spi.c **** 
 550:Drivers/STM32F1xx_HAL_Driver/Src/stm32f1xx_hal_spi.c ****       case HAL_SPI_TX_HALF_COMPLETE_CB_ID :
 551:Drivers/STM32F1xx_HAL_Driver/Src/stm32f1xx_hal_spi.c ****         hspi->TxHalfCpltCallback = pCallback;
 552:Drivers/STM32F1xx_HAL_Driver/Src/stm32f1xx_hal_spi.c ****         break;
 553:Drivers/STM32F1xx_HAL_Driver/Src/stm32f1xx_hal_spi.c **** 
 554:Drivers/STM32F1xx_HAL_Driver/Src/stm32f1xx_hal_spi.c ****       case HAL_SPI_RX_HALF_COMPLETE_CB_ID :
 555:Drivers/STM32F1xx_HAL_Driver/Src/stm32f1xx_hal_spi.c ****         hspi->RxHalfCpltCallback = pCallback;
 556:Drivers/STM32F1xx_HAL_Driver/Src/stm32f1xx_hal_spi.c ****         break;
 557:Drivers/STM32F1xx_HAL_Driver/Src/stm32f1xx_hal_spi.c **** 
 558:Drivers/STM32F1xx_HAL_Driver/Src/stm32f1xx_hal_spi.c ****       case HAL_SPI_TX_RX_HALF_COMPLETE_CB_ID :
 559:Drivers/STM32F1xx_HAL_Driver/Src/stm32f1xx_hal_spi.c ****         hspi->TxRxHalfCpltCallback = pCallback;
 560:Drivers/STM32F1xx_HAL_Driver/Src/stm32f1xx_hal_spi.c ****         break;
 561:Drivers/STM32F1xx_HAL_Driver/Src/stm32f1xx_hal_spi.c **** 
 562:Drivers/STM32F1xx_HAL_Driver/Src/stm32f1xx_hal_spi.c ****       case HAL_SPI_ERROR_CB_ID :
 563:Drivers/STM32F1xx_HAL_Driver/Src/stm32f1xx_hal_spi.c ****         hspi->ErrorCallback = pCallback;
 564:Drivers/STM32F1xx_HAL_Driver/Src/stm32f1xx_hal_spi.c ****         break;
 565:Drivers/STM32F1xx_HAL_Driver/Src/stm32f1xx_hal_spi.c **** 
 566:Drivers/STM32F1xx_HAL_Driver/Src/stm32f1xx_hal_spi.c ****       case HAL_SPI_ABORT_CB_ID :
 567:Drivers/STM32F1xx_HAL_Driver/Src/stm32f1xx_hal_spi.c ****         hspi->AbortCpltCallback = pCallback;
 568:Drivers/STM32F1xx_HAL_Driver/Src/stm32f1xx_hal_spi.c ****         break;
 569:Drivers/STM32F1xx_HAL_Driver/Src/stm32f1xx_hal_spi.c **** 
 570:Drivers/STM32F1xx_HAL_Driver/Src/stm32f1xx_hal_spi.c ****       case HAL_SPI_MSPINIT_CB_ID :
 571:Drivers/STM32F1xx_HAL_Driver/Src/stm32f1xx_hal_spi.c ****         hspi->MspInitCallback = pCallback;
 572:Drivers/STM32F1xx_HAL_Driver/Src/stm32f1xx_hal_spi.c ****         break;
 573:Drivers/STM32F1xx_HAL_Driver/Src/stm32f1xx_hal_spi.c **** 
 574:Drivers/STM32F1xx_HAL_Driver/Src/stm32f1xx_hal_spi.c ****       case HAL_SPI_MSPDEINIT_CB_ID :
 575:Drivers/STM32F1xx_HAL_Driver/Src/stm32f1xx_hal_spi.c ****         hspi->MspDeInitCallback = pCallback;
 576:Drivers/STM32F1xx_HAL_Driver/Src/stm32f1xx_hal_spi.c ****         break;
 577:Drivers/STM32F1xx_HAL_Driver/Src/stm32f1xx_hal_spi.c **** 
 578:Drivers/STM32F1xx_HAL_Driver/Src/stm32f1xx_hal_spi.c ****       default :
 579:Drivers/STM32F1xx_HAL_Driver/Src/stm32f1xx_hal_spi.c ****         /* Update the error code */
 580:Drivers/STM32F1xx_HAL_Driver/Src/stm32f1xx_hal_spi.c ****         SET_BIT(hspi->ErrorCode, HAL_SPI_ERROR_INVALID_CALLBACK);
 581:Drivers/STM32F1xx_HAL_Driver/Src/stm32f1xx_hal_spi.c **** 
 582:Drivers/STM32F1xx_HAL_Driver/Src/stm32f1xx_hal_spi.c ****         /* Return error status */
 583:Drivers/STM32F1xx_HAL_Driver/Src/stm32f1xx_hal_spi.c ****         status =  HAL_ERROR;
 584:Drivers/STM32F1xx_HAL_Driver/Src/stm32f1xx_hal_spi.c ****         break;
 585:Drivers/STM32F1xx_HAL_Driver/Src/stm32f1xx_hal_spi.c ****     }
 586:Drivers/STM32F1xx_HAL_Driver/Src/stm32f1xx_hal_spi.c ****   }
 587:Drivers/STM32F1xx_HAL_Driver/Src/stm32f1xx_hal_spi.c ****   else if (HAL_SPI_STATE_RESET == hspi->State)
 588:Drivers/STM32F1xx_HAL_Driver/Src/stm32f1xx_hal_spi.c ****   {
 589:Drivers/STM32F1xx_HAL_Driver/Src/stm32f1xx_hal_spi.c ****     switch (CallbackID)
 590:Drivers/STM32F1xx_HAL_Driver/Src/stm32f1xx_hal_spi.c ****     {
 591:Drivers/STM32F1xx_HAL_Driver/Src/stm32f1xx_hal_spi.c ****       case HAL_SPI_MSPINIT_CB_ID :
 592:Drivers/STM32F1xx_HAL_Driver/Src/stm32f1xx_hal_spi.c ****         hspi->MspInitCallback = pCallback;
 593:Drivers/STM32F1xx_HAL_Driver/Src/stm32f1xx_hal_spi.c ****         break;
 594:Drivers/STM32F1xx_HAL_Driver/Src/stm32f1xx_hal_spi.c **** 
 595:Drivers/STM32F1xx_HAL_Driver/Src/stm32f1xx_hal_spi.c ****       case HAL_SPI_MSPDEINIT_CB_ID :
 596:Drivers/STM32F1xx_HAL_Driver/Src/stm32f1xx_hal_spi.c ****         hspi->MspDeInitCallback = pCallback;
ARM GAS  C:\Users\Alex\AppData\Local\Temp\ccfYuLQH.s 			page 17


 597:Drivers/STM32F1xx_HAL_Driver/Src/stm32f1xx_hal_spi.c ****         break;
 598:Drivers/STM32F1xx_HAL_Driver/Src/stm32f1xx_hal_spi.c **** 
 599:Drivers/STM32F1xx_HAL_Driver/Src/stm32f1xx_hal_spi.c ****       default :
 600:Drivers/STM32F1xx_HAL_Driver/Src/stm32f1xx_hal_spi.c ****         /* Update the error code */
 601:Drivers/STM32F1xx_HAL_Driver/Src/stm32f1xx_hal_spi.c ****         SET_BIT(hspi->ErrorCode, HAL_SPI_ERROR_INVALID_CALLBACK);
 602:Drivers/STM32F1xx_HAL_Driver/Src/stm32f1xx_hal_spi.c **** 
 603:Drivers/STM32F1xx_HAL_Driver/Src/stm32f1xx_hal_spi.c ****         /* Return error status */
 604:Drivers/STM32F1xx_HAL_Driver/Src/stm32f1xx_hal_spi.c ****         status =  HAL_ERROR;
 605:Drivers/STM32F1xx_HAL_Driver/Src/stm32f1xx_hal_spi.c ****         break;
 606:Drivers/STM32F1xx_HAL_Driver/Src/stm32f1xx_hal_spi.c ****     }
 607:Drivers/STM32F1xx_HAL_Driver/Src/stm32f1xx_hal_spi.c ****   }
 608:Drivers/STM32F1xx_HAL_Driver/Src/stm32f1xx_hal_spi.c ****   else
 609:Drivers/STM32F1xx_HAL_Driver/Src/stm32f1xx_hal_spi.c ****   {
 610:Drivers/STM32F1xx_HAL_Driver/Src/stm32f1xx_hal_spi.c ****     /* Update the error code */
 611:Drivers/STM32F1xx_HAL_Driver/Src/stm32f1xx_hal_spi.c ****     SET_BIT(hspi->ErrorCode, HAL_SPI_ERROR_INVALID_CALLBACK);
 612:Drivers/STM32F1xx_HAL_Driver/Src/stm32f1xx_hal_spi.c **** 
 613:Drivers/STM32F1xx_HAL_Driver/Src/stm32f1xx_hal_spi.c ****     /* Return error status */
 614:Drivers/STM32F1xx_HAL_Driver/Src/stm32f1xx_hal_spi.c ****     status =  HAL_ERROR;
 615:Drivers/STM32F1xx_HAL_Driver/Src/stm32f1xx_hal_spi.c ****   }
 616:Drivers/STM32F1xx_HAL_Driver/Src/stm32f1xx_hal_spi.c **** 
 617:Drivers/STM32F1xx_HAL_Driver/Src/stm32f1xx_hal_spi.c ****   /* Release Lock */
 618:Drivers/STM32F1xx_HAL_Driver/Src/stm32f1xx_hal_spi.c ****   __HAL_UNLOCK(hspi);
 619:Drivers/STM32F1xx_HAL_Driver/Src/stm32f1xx_hal_spi.c ****   return status;
 620:Drivers/STM32F1xx_HAL_Driver/Src/stm32f1xx_hal_spi.c **** }
 621:Drivers/STM32F1xx_HAL_Driver/Src/stm32f1xx_hal_spi.c **** 
 622:Drivers/STM32F1xx_HAL_Driver/Src/stm32f1xx_hal_spi.c **** /**
 623:Drivers/STM32F1xx_HAL_Driver/Src/stm32f1xx_hal_spi.c ****   * @brief  Unregister an SPI Callback
 624:Drivers/STM32F1xx_HAL_Driver/Src/stm32f1xx_hal_spi.c ****   *         SPI callback is redirected to the weak predefined callback
 625:Drivers/STM32F1xx_HAL_Driver/Src/stm32f1xx_hal_spi.c ****   * @param  hspi Pointer to a SPI_HandleTypeDef structure that contains
 626:Drivers/STM32F1xx_HAL_Driver/Src/stm32f1xx_hal_spi.c ****   *                the configuration information for the specified SPI.
 627:Drivers/STM32F1xx_HAL_Driver/Src/stm32f1xx_hal_spi.c ****   * @param  CallbackID ID of the callback to be unregistered
 628:Drivers/STM32F1xx_HAL_Driver/Src/stm32f1xx_hal_spi.c ****   * @retval HAL status
 629:Drivers/STM32F1xx_HAL_Driver/Src/stm32f1xx_hal_spi.c ****   */
 630:Drivers/STM32F1xx_HAL_Driver/Src/stm32f1xx_hal_spi.c **** HAL_StatusTypeDef HAL_SPI_UnRegisterCallback(SPI_HandleTypeDef *hspi, HAL_SPI_CallbackIDTypeDef Cal
 631:Drivers/STM32F1xx_HAL_Driver/Src/stm32f1xx_hal_spi.c **** {
 632:Drivers/STM32F1xx_HAL_Driver/Src/stm32f1xx_hal_spi.c ****   HAL_StatusTypeDef status = HAL_OK;
 633:Drivers/STM32F1xx_HAL_Driver/Src/stm32f1xx_hal_spi.c **** 
 634:Drivers/STM32F1xx_HAL_Driver/Src/stm32f1xx_hal_spi.c ****   /* Process locked */
 635:Drivers/STM32F1xx_HAL_Driver/Src/stm32f1xx_hal_spi.c ****   __HAL_LOCK(hspi);
 636:Drivers/STM32F1xx_HAL_Driver/Src/stm32f1xx_hal_spi.c **** 
 637:Drivers/STM32F1xx_HAL_Driver/Src/stm32f1xx_hal_spi.c ****   if (HAL_SPI_STATE_READY == hspi->State)
 638:Drivers/STM32F1xx_HAL_Driver/Src/stm32f1xx_hal_spi.c ****   {
 639:Drivers/STM32F1xx_HAL_Driver/Src/stm32f1xx_hal_spi.c ****     switch (CallbackID)
 640:Drivers/STM32F1xx_HAL_Driver/Src/stm32f1xx_hal_spi.c ****     {
 641:Drivers/STM32F1xx_HAL_Driver/Src/stm32f1xx_hal_spi.c ****       case HAL_SPI_TX_COMPLETE_CB_ID :
 642:Drivers/STM32F1xx_HAL_Driver/Src/stm32f1xx_hal_spi.c ****         hspi->TxCpltCallback = HAL_SPI_TxCpltCallback;             /* Legacy weak TxCpltCallback   
 643:Drivers/STM32F1xx_HAL_Driver/Src/stm32f1xx_hal_spi.c ****         break;
 644:Drivers/STM32F1xx_HAL_Driver/Src/stm32f1xx_hal_spi.c **** 
 645:Drivers/STM32F1xx_HAL_Driver/Src/stm32f1xx_hal_spi.c ****       case HAL_SPI_RX_COMPLETE_CB_ID :
 646:Drivers/STM32F1xx_HAL_Driver/Src/stm32f1xx_hal_spi.c ****         hspi->RxCpltCallback = HAL_SPI_RxCpltCallback;             /* Legacy weak RxCpltCallback   
 647:Drivers/STM32F1xx_HAL_Driver/Src/stm32f1xx_hal_spi.c ****         break;
 648:Drivers/STM32F1xx_HAL_Driver/Src/stm32f1xx_hal_spi.c **** 
 649:Drivers/STM32F1xx_HAL_Driver/Src/stm32f1xx_hal_spi.c ****       case HAL_SPI_TX_RX_COMPLETE_CB_ID :
 650:Drivers/STM32F1xx_HAL_Driver/Src/stm32f1xx_hal_spi.c ****         hspi->TxRxCpltCallback = HAL_SPI_TxRxCpltCallback;         /* Legacy weak TxRxCpltCallback 
 651:Drivers/STM32F1xx_HAL_Driver/Src/stm32f1xx_hal_spi.c ****         break;
 652:Drivers/STM32F1xx_HAL_Driver/Src/stm32f1xx_hal_spi.c **** 
 653:Drivers/STM32F1xx_HAL_Driver/Src/stm32f1xx_hal_spi.c ****       case HAL_SPI_TX_HALF_COMPLETE_CB_ID :
ARM GAS  C:\Users\Alex\AppData\Local\Temp\ccfYuLQH.s 			page 18


 654:Drivers/STM32F1xx_HAL_Driver/Src/stm32f1xx_hal_spi.c ****         hspi->TxHalfCpltCallback = HAL_SPI_TxHalfCpltCallback;     /* Legacy weak TxHalfCpltCallbac
 655:Drivers/STM32F1xx_HAL_Driver/Src/stm32f1xx_hal_spi.c ****         break;
 656:Drivers/STM32F1xx_HAL_Driver/Src/stm32f1xx_hal_spi.c **** 
 657:Drivers/STM32F1xx_HAL_Driver/Src/stm32f1xx_hal_spi.c ****       case HAL_SPI_RX_HALF_COMPLETE_CB_ID :
 658:Drivers/STM32F1xx_HAL_Driver/Src/stm32f1xx_hal_spi.c ****         hspi->RxHalfCpltCallback = HAL_SPI_RxHalfCpltCallback;     /* Legacy weak RxHalfCpltCallbac
 659:Drivers/STM32F1xx_HAL_Driver/Src/stm32f1xx_hal_spi.c ****         break;
 660:Drivers/STM32F1xx_HAL_Driver/Src/stm32f1xx_hal_spi.c **** 
 661:Drivers/STM32F1xx_HAL_Driver/Src/stm32f1xx_hal_spi.c ****       case HAL_SPI_TX_RX_HALF_COMPLETE_CB_ID :
 662:Drivers/STM32F1xx_HAL_Driver/Src/stm32f1xx_hal_spi.c ****         hspi->TxRxHalfCpltCallback = HAL_SPI_TxRxHalfCpltCallback; /* Legacy weak TxRxHalfCpltCallb
 663:Drivers/STM32F1xx_HAL_Driver/Src/stm32f1xx_hal_spi.c ****         break;
 664:Drivers/STM32F1xx_HAL_Driver/Src/stm32f1xx_hal_spi.c **** 
 665:Drivers/STM32F1xx_HAL_Driver/Src/stm32f1xx_hal_spi.c ****       case HAL_SPI_ERROR_CB_ID :
 666:Drivers/STM32F1xx_HAL_Driver/Src/stm32f1xx_hal_spi.c ****         hspi->ErrorCallback = HAL_SPI_ErrorCallback;               /* Legacy weak ErrorCallback    
 667:Drivers/STM32F1xx_HAL_Driver/Src/stm32f1xx_hal_spi.c ****         break;
 668:Drivers/STM32F1xx_HAL_Driver/Src/stm32f1xx_hal_spi.c **** 
 669:Drivers/STM32F1xx_HAL_Driver/Src/stm32f1xx_hal_spi.c ****       case HAL_SPI_ABORT_CB_ID :
 670:Drivers/STM32F1xx_HAL_Driver/Src/stm32f1xx_hal_spi.c ****         hspi->AbortCpltCallback = HAL_SPI_AbortCpltCallback;       /* Legacy weak AbortCpltCallback
 671:Drivers/STM32F1xx_HAL_Driver/Src/stm32f1xx_hal_spi.c ****         break;
 672:Drivers/STM32F1xx_HAL_Driver/Src/stm32f1xx_hal_spi.c **** 
 673:Drivers/STM32F1xx_HAL_Driver/Src/stm32f1xx_hal_spi.c ****       case HAL_SPI_MSPINIT_CB_ID :
 674:Drivers/STM32F1xx_HAL_Driver/Src/stm32f1xx_hal_spi.c ****         hspi->MspInitCallback = HAL_SPI_MspInit;                   /* Legacy weak MspInit          
 675:Drivers/STM32F1xx_HAL_Driver/Src/stm32f1xx_hal_spi.c ****         break;
 676:Drivers/STM32F1xx_HAL_Driver/Src/stm32f1xx_hal_spi.c **** 
 677:Drivers/STM32F1xx_HAL_Driver/Src/stm32f1xx_hal_spi.c ****       case HAL_SPI_MSPDEINIT_CB_ID :
 678:Drivers/STM32F1xx_HAL_Driver/Src/stm32f1xx_hal_spi.c ****         hspi->MspDeInitCallback = HAL_SPI_MspDeInit;               /* Legacy weak MspDeInit        
 679:Drivers/STM32F1xx_HAL_Driver/Src/stm32f1xx_hal_spi.c ****         break;
 680:Drivers/STM32F1xx_HAL_Driver/Src/stm32f1xx_hal_spi.c **** 
 681:Drivers/STM32F1xx_HAL_Driver/Src/stm32f1xx_hal_spi.c ****       default :
 682:Drivers/STM32F1xx_HAL_Driver/Src/stm32f1xx_hal_spi.c ****         /* Update the error code */
 683:Drivers/STM32F1xx_HAL_Driver/Src/stm32f1xx_hal_spi.c ****         SET_BIT(hspi->ErrorCode, HAL_SPI_ERROR_INVALID_CALLBACK);
 684:Drivers/STM32F1xx_HAL_Driver/Src/stm32f1xx_hal_spi.c **** 
 685:Drivers/STM32F1xx_HAL_Driver/Src/stm32f1xx_hal_spi.c ****         /* Return error status */
 686:Drivers/STM32F1xx_HAL_Driver/Src/stm32f1xx_hal_spi.c ****         status =  HAL_ERROR;
 687:Drivers/STM32F1xx_HAL_Driver/Src/stm32f1xx_hal_spi.c ****         break;
 688:Drivers/STM32F1xx_HAL_Driver/Src/stm32f1xx_hal_spi.c ****     }
 689:Drivers/STM32F1xx_HAL_Driver/Src/stm32f1xx_hal_spi.c ****   }
 690:Drivers/STM32F1xx_HAL_Driver/Src/stm32f1xx_hal_spi.c ****   else if (HAL_SPI_STATE_RESET == hspi->State)
 691:Drivers/STM32F1xx_HAL_Driver/Src/stm32f1xx_hal_spi.c ****   {
 692:Drivers/STM32F1xx_HAL_Driver/Src/stm32f1xx_hal_spi.c ****     switch (CallbackID)
 693:Drivers/STM32F1xx_HAL_Driver/Src/stm32f1xx_hal_spi.c ****     {
 694:Drivers/STM32F1xx_HAL_Driver/Src/stm32f1xx_hal_spi.c ****       case HAL_SPI_MSPINIT_CB_ID :
 695:Drivers/STM32F1xx_HAL_Driver/Src/stm32f1xx_hal_spi.c ****         hspi->MspInitCallback = HAL_SPI_MspInit;                   /* Legacy weak MspInit          
 696:Drivers/STM32F1xx_HAL_Driver/Src/stm32f1xx_hal_spi.c ****         break;
 697:Drivers/STM32F1xx_HAL_Driver/Src/stm32f1xx_hal_spi.c **** 
 698:Drivers/STM32F1xx_HAL_Driver/Src/stm32f1xx_hal_spi.c ****       case HAL_SPI_MSPDEINIT_CB_ID :
 699:Drivers/STM32F1xx_HAL_Driver/Src/stm32f1xx_hal_spi.c ****         hspi->MspDeInitCallback = HAL_SPI_MspDeInit;               /* Legacy weak MspDeInit        
 700:Drivers/STM32F1xx_HAL_Driver/Src/stm32f1xx_hal_spi.c ****         break;
 701:Drivers/STM32F1xx_HAL_Driver/Src/stm32f1xx_hal_spi.c **** 
 702:Drivers/STM32F1xx_HAL_Driver/Src/stm32f1xx_hal_spi.c ****       default :
 703:Drivers/STM32F1xx_HAL_Driver/Src/stm32f1xx_hal_spi.c ****         /* Update the error code */
 704:Drivers/STM32F1xx_HAL_Driver/Src/stm32f1xx_hal_spi.c ****         SET_BIT(hspi->ErrorCode, HAL_SPI_ERROR_INVALID_CALLBACK);
 705:Drivers/STM32F1xx_HAL_Driver/Src/stm32f1xx_hal_spi.c **** 
 706:Drivers/STM32F1xx_HAL_Driver/Src/stm32f1xx_hal_spi.c ****         /* Return error status */
 707:Drivers/STM32F1xx_HAL_Driver/Src/stm32f1xx_hal_spi.c ****         status =  HAL_ERROR;
 708:Drivers/STM32F1xx_HAL_Driver/Src/stm32f1xx_hal_spi.c ****         break;
 709:Drivers/STM32F1xx_HAL_Driver/Src/stm32f1xx_hal_spi.c ****     }
 710:Drivers/STM32F1xx_HAL_Driver/Src/stm32f1xx_hal_spi.c ****   }
ARM GAS  C:\Users\Alex\AppData\Local\Temp\ccfYuLQH.s 			page 19


 711:Drivers/STM32F1xx_HAL_Driver/Src/stm32f1xx_hal_spi.c ****   else
 712:Drivers/STM32F1xx_HAL_Driver/Src/stm32f1xx_hal_spi.c ****   {
 713:Drivers/STM32F1xx_HAL_Driver/Src/stm32f1xx_hal_spi.c ****     /* Update the error code */
 714:Drivers/STM32F1xx_HAL_Driver/Src/stm32f1xx_hal_spi.c ****     SET_BIT(hspi->ErrorCode, HAL_SPI_ERROR_INVALID_CALLBACK);
 715:Drivers/STM32F1xx_HAL_Driver/Src/stm32f1xx_hal_spi.c **** 
 716:Drivers/STM32F1xx_HAL_Driver/Src/stm32f1xx_hal_spi.c ****     /* Return error status */
 717:Drivers/STM32F1xx_HAL_Driver/Src/stm32f1xx_hal_spi.c ****     status =  HAL_ERROR;
 718:Drivers/STM32F1xx_HAL_Driver/Src/stm32f1xx_hal_spi.c ****   }
 719:Drivers/STM32F1xx_HAL_Driver/Src/stm32f1xx_hal_spi.c **** 
 720:Drivers/STM32F1xx_HAL_Driver/Src/stm32f1xx_hal_spi.c ****   /* Release Lock */
 721:Drivers/STM32F1xx_HAL_Driver/Src/stm32f1xx_hal_spi.c ****   __HAL_UNLOCK(hspi);
 722:Drivers/STM32F1xx_HAL_Driver/Src/stm32f1xx_hal_spi.c ****   return status;
 723:Drivers/STM32F1xx_HAL_Driver/Src/stm32f1xx_hal_spi.c **** }
 724:Drivers/STM32F1xx_HAL_Driver/Src/stm32f1xx_hal_spi.c **** #endif /* USE_HAL_SPI_REGISTER_CALLBACKS */
 725:Drivers/STM32F1xx_HAL_Driver/Src/stm32f1xx_hal_spi.c **** /**
 726:Drivers/STM32F1xx_HAL_Driver/Src/stm32f1xx_hal_spi.c ****   * @}
 727:Drivers/STM32F1xx_HAL_Driver/Src/stm32f1xx_hal_spi.c ****   */
 728:Drivers/STM32F1xx_HAL_Driver/Src/stm32f1xx_hal_spi.c **** 
 729:Drivers/STM32F1xx_HAL_Driver/Src/stm32f1xx_hal_spi.c **** /** @defgroup SPI_Exported_Functions_Group2 IO operation functions
 730:Drivers/STM32F1xx_HAL_Driver/Src/stm32f1xx_hal_spi.c ****   *  @brief   Data transfers functions
 731:Drivers/STM32F1xx_HAL_Driver/Src/stm32f1xx_hal_spi.c ****   *
 732:Drivers/STM32F1xx_HAL_Driver/Src/stm32f1xx_hal_spi.c **** @verbatim
 733:Drivers/STM32F1xx_HAL_Driver/Src/stm32f1xx_hal_spi.c ****   ==============================================================================
 734:Drivers/STM32F1xx_HAL_Driver/Src/stm32f1xx_hal_spi.c ****                       ##### IO operation functions #####
 735:Drivers/STM32F1xx_HAL_Driver/Src/stm32f1xx_hal_spi.c ****  ===============================================================================
 736:Drivers/STM32F1xx_HAL_Driver/Src/stm32f1xx_hal_spi.c ****  [..]
 737:Drivers/STM32F1xx_HAL_Driver/Src/stm32f1xx_hal_spi.c ****     This subsection provides a set of functions allowing to manage the SPI
 738:Drivers/STM32F1xx_HAL_Driver/Src/stm32f1xx_hal_spi.c ****     data transfers.
 739:Drivers/STM32F1xx_HAL_Driver/Src/stm32f1xx_hal_spi.c **** 
 740:Drivers/STM32F1xx_HAL_Driver/Src/stm32f1xx_hal_spi.c ****     [..] The SPI supports master and slave mode :
 741:Drivers/STM32F1xx_HAL_Driver/Src/stm32f1xx_hal_spi.c **** 
 742:Drivers/STM32F1xx_HAL_Driver/Src/stm32f1xx_hal_spi.c ****     (#) There are two modes of transfer:
 743:Drivers/STM32F1xx_HAL_Driver/Src/stm32f1xx_hal_spi.c ****        (++) Blocking mode: The communication is performed in polling mode.
 744:Drivers/STM32F1xx_HAL_Driver/Src/stm32f1xx_hal_spi.c ****             The HAL status of all data processing is returned by the same function
 745:Drivers/STM32F1xx_HAL_Driver/Src/stm32f1xx_hal_spi.c ****             after finishing transfer.
 746:Drivers/STM32F1xx_HAL_Driver/Src/stm32f1xx_hal_spi.c ****        (++) No-Blocking mode: The communication is performed using Interrupts
 747:Drivers/STM32F1xx_HAL_Driver/Src/stm32f1xx_hal_spi.c ****             or DMA, These APIs return the HAL status.
 748:Drivers/STM32F1xx_HAL_Driver/Src/stm32f1xx_hal_spi.c ****             The end of the data processing will be indicated through the
 749:Drivers/STM32F1xx_HAL_Driver/Src/stm32f1xx_hal_spi.c ****             dedicated SPI IRQ when using Interrupt mode or the DMA IRQ when
 750:Drivers/STM32F1xx_HAL_Driver/Src/stm32f1xx_hal_spi.c ****             using DMA mode.
 751:Drivers/STM32F1xx_HAL_Driver/Src/stm32f1xx_hal_spi.c ****             The HAL_SPI_TxCpltCallback(), HAL_SPI_RxCpltCallback() and HAL_SPI_TxRxCpltCallback() u
 752:Drivers/STM32F1xx_HAL_Driver/Src/stm32f1xx_hal_spi.c ****             will be executed respectively at the end of the transmit or Receive process
 753:Drivers/STM32F1xx_HAL_Driver/Src/stm32f1xx_hal_spi.c ****             The HAL_SPI_ErrorCallback()user callback will be executed when a communication error is
 754:Drivers/STM32F1xx_HAL_Driver/Src/stm32f1xx_hal_spi.c **** 
 755:Drivers/STM32F1xx_HAL_Driver/Src/stm32f1xx_hal_spi.c ****     (#) APIs provided for these 2 transfer modes (Blocking mode or Non blocking mode using either I
 756:Drivers/STM32F1xx_HAL_Driver/Src/stm32f1xx_hal_spi.c ****         exist for 1Line (simplex) and 2Lines (full duplex) modes.
 757:Drivers/STM32F1xx_HAL_Driver/Src/stm32f1xx_hal_spi.c **** 
 758:Drivers/STM32F1xx_HAL_Driver/Src/stm32f1xx_hal_spi.c **** @endverbatim
 759:Drivers/STM32F1xx_HAL_Driver/Src/stm32f1xx_hal_spi.c ****   * @{
 760:Drivers/STM32F1xx_HAL_Driver/Src/stm32f1xx_hal_spi.c ****   */
 761:Drivers/STM32F1xx_HAL_Driver/Src/stm32f1xx_hal_spi.c **** 
 762:Drivers/STM32F1xx_HAL_Driver/Src/stm32f1xx_hal_spi.c **** /**
 763:Drivers/STM32F1xx_HAL_Driver/Src/stm32f1xx_hal_spi.c ****   * @brief  Transmit an amount of data in blocking mode.
 764:Drivers/STM32F1xx_HAL_Driver/Src/stm32f1xx_hal_spi.c ****   * @param  hspi pointer to a SPI_HandleTypeDef structure that contains
 765:Drivers/STM32F1xx_HAL_Driver/Src/stm32f1xx_hal_spi.c ****   *               the configuration information for SPI module.
 766:Drivers/STM32F1xx_HAL_Driver/Src/stm32f1xx_hal_spi.c ****   * @param  pData pointer to data buffer
 767:Drivers/STM32F1xx_HAL_Driver/Src/stm32f1xx_hal_spi.c ****   * @param  Size amount of data to be sent
ARM GAS  C:\Users\Alex\AppData\Local\Temp\ccfYuLQH.s 			page 20


 768:Drivers/STM32F1xx_HAL_Driver/Src/stm32f1xx_hal_spi.c ****   * @param  Timeout Timeout duration
 769:Drivers/STM32F1xx_HAL_Driver/Src/stm32f1xx_hal_spi.c ****   * @retval HAL status
 770:Drivers/STM32F1xx_HAL_Driver/Src/stm32f1xx_hal_spi.c ****   */
 771:Drivers/STM32F1xx_HAL_Driver/Src/stm32f1xx_hal_spi.c **** HAL_StatusTypeDef HAL_SPI_Transmit(SPI_HandleTypeDef *hspi, uint8_t *pData, uint16_t Size, uint32_t
 772:Drivers/STM32F1xx_HAL_Driver/Src/stm32f1xx_hal_spi.c **** {
 326              		.loc 1 772 1
 327              		.cfi_startproc
 328              		@ args = 0, pretend = 0, frame = 32
 329              		@ frame_needed = 1, uses_anonymous_args = 0
 330 0000 80B5     		push	{r7, lr}
 331              	.LCFI22:
 332              		.cfi_def_cfa_offset 8
 333              		.cfi_offset 7, -8
 334              		.cfi_offset 14, -4
 335 0002 88B0     		sub	sp, sp, #32
 336              	.LCFI23:
 337              		.cfi_def_cfa_offset 40
 338 0004 00AF     		add	r7, sp, #0
 339              	.LCFI24:
 340              		.cfi_def_cfa_register 7
 341 0006 F860     		str	r0, [r7, #12]
 342 0008 B960     		str	r1, [r7, #8]
 343 000a 3B60     		str	r3, [r7]
 344 000c 1346     		mov	r3, r2	@ movhi
 345 000e FB80     		strh	r3, [r7, #6]	@ movhi
 773:Drivers/STM32F1xx_HAL_Driver/Src/stm32f1xx_hal_spi.c ****   uint32_t tickstart;
 774:Drivers/STM32F1xx_HAL_Driver/Src/stm32f1xx_hal_spi.c ****   HAL_StatusTypeDef errorcode = HAL_OK;
 346              		.loc 1 774 21
 347 0010 0023     		movs	r3, #0
 348 0012 FB77     		strb	r3, [r7, #31]
 775:Drivers/STM32F1xx_HAL_Driver/Src/stm32f1xx_hal_spi.c ****   uint16_t initial_TxXferCount;
 776:Drivers/STM32F1xx_HAL_Driver/Src/stm32f1xx_hal_spi.c **** 
 777:Drivers/STM32F1xx_HAL_Driver/Src/stm32f1xx_hal_spi.c ****   /* Check Direction parameter */
 778:Drivers/STM32F1xx_HAL_Driver/Src/stm32f1xx_hal_spi.c ****   assert_param(IS_SPI_DIRECTION_2LINES_OR_1LINE(hspi->Init.Direction));
 779:Drivers/STM32F1xx_HAL_Driver/Src/stm32f1xx_hal_spi.c **** 
 780:Drivers/STM32F1xx_HAL_Driver/Src/stm32f1xx_hal_spi.c ****   /* Process Locked */
 781:Drivers/STM32F1xx_HAL_Driver/Src/stm32f1xx_hal_spi.c ****   __HAL_LOCK(hspi);
 349              		.loc 1 781 3
 350 0014 FB68     		ldr	r3, [r7, #12]
 351 0016 93F85030 		ldrb	r3, [r3, #80]	@ zero_extendqisi2
 352 001a 012B     		cmp	r3, #1
 353 001c 01D1     		bne	.L11
 354              		.loc 1 781 3 is_stmt 0 discriminator 1
 355 001e 0223     		movs	r3, #2
 356 0020 1EE1     		b	.L12
 357              	.L11:
 358              		.loc 1 781 3 discriminator 2
 359 0022 FB68     		ldr	r3, [r7, #12]
 360 0024 0122     		movs	r2, #1
 361 0026 83F85020 		strb	r2, [r3, #80]
 782:Drivers/STM32F1xx_HAL_Driver/Src/stm32f1xx_hal_spi.c **** 
 783:Drivers/STM32F1xx_HAL_Driver/Src/stm32f1xx_hal_spi.c ****   /* Init tickstart for timeout management*/
 784:Drivers/STM32F1xx_HAL_Driver/Src/stm32f1xx_hal_spi.c ****   tickstart = HAL_GetTick();
 362              		.loc 1 784 15 is_stmt 1 discriminator 2
 363 002a FFF7FEFF 		bl	HAL_GetTick
 364 002e B861     		str	r0, [r7, #24]
 785:Drivers/STM32F1xx_HAL_Driver/Src/stm32f1xx_hal_spi.c ****   initial_TxXferCount = Size;
ARM GAS  C:\Users\Alex\AppData\Local\Temp\ccfYuLQH.s 			page 21


 365              		.loc 1 785 23 discriminator 2
 366 0030 FB88     		ldrh	r3, [r7, #6]	@ movhi
 367 0032 FB82     		strh	r3, [r7, #22]	@ movhi
 786:Drivers/STM32F1xx_HAL_Driver/Src/stm32f1xx_hal_spi.c **** 
 787:Drivers/STM32F1xx_HAL_Driver/Src/stm32f1xx_hal_spi.c ****   if (hspi->State != HAL_SPI_STATE_READY)
 368              		.loc 1 787 11 discriminator 2
 369 0034 FB68     		ldr	r3, [r7, #12]
 370 0036 93F85130 		ldrb	r3, [r3, #81]
 371 003a DBB2     		uxtb	r3, r3
 372              		.loc 1 787 6 discriminator 2
 373 003c 012B     		cmp	r3, #1
 374 003e 02D0     		beq	.L13
 788:Drivers/STM32F1xx_HAL_Driver/Src/stm32f1xx_hal_spi.c ****   {
 789:Drivers/STM32F1xx_HAL_Driver/Src/stm32f1xx_hal_spi.c ****     errorcode = HAL_BUSY;
 375              		.loc 1 789 15
 376 0040 0223     		movs	r3, #2
 377 0042 FB77     		strb	r3, [r7, #31]
 790:Drivers/STM32F1xx_HAL_Driver/Src/stm32f1xx_hal_spi.c ****     goto error;
 378              		.loc 1 790 5
 379 0044 03E1     		b	.L14
 380              	.L13:
 791:Drivers/STM32F1xx_HAL_Driver/Src/stm32f1xx_hal_spi.c ****   }
 792:Drivers/STM32F1xx_HAL_Driver/Src/stm32f1xx_hal_spi.c **** 
 793:Drivers/STM32F1xx_HAL_Driver/Src/stm32f1xx_hal_spi.c ****   if ((pData == NULL) || (Size == 0U))
 381              		.loc 1 793 6
 382 0046 BB68     		ldr	r3, [r7, #8]
 383 0048 002B     		cmp	r3, #0
 384 004a 02D0     		beq	.L15
 385              		.loc 1 793 23 discriminator 1
 386 004c FB88     		ldrh	r3, [r7, #6]
 387 004e 002B     		cmp	r3, #0
 388 0050 02D1     		bne	.L16
 389              	.L15:
 794:Drivers/STM32F1xx_HAL_Driver/Src/stm32f1xx_hal_spi.c ****   {
 795:Drivers/STM32F1xx_HAL_Driver/Src/stm32f1xx_hal_spi.c ****     errorcode = HAL_ERROR;
 390              		.loc 1 795 15
 391 0052 0123     		movs	r3, #1
 392 0054 FB77     		strb	r3, [r7, #31]
 796:Drivers/STM32F1xx_HAL_Driver/Src/stm32f1xx_hal_spi.c ****     goto error;
 393              		.loc 1 796 5
 394 0056 FAE0     		b	.L14
 395              	.L16:
 797:Drivers/STM32F1xx_HAL_Driver/Src/stm32f1xx_hal_spi.c ****   }
 798:Drivers/STM32F1xx_HAL_Driver/Src/stm32f1xx_hal_spi.c **** 
 799:Drivers/STM32F1xx_HAL_Driver/Src/stm32f1xx_hal_spi.c ****   /* Set the transaction information */
 800:Drivers/STM32F1xx_HAL_Driver/Src/stm32f1xx_hal_spi.c ****   hspi->State       = HAL_SPI_STATE_BUSY_TX;
 396              		.loc 1 800 21
 397 0058 FB68     		ldr	r3, [r7, #12]
 398 005a 0322     		movs	r2, #3
 399 005c 83F85120 		strb	r2, [r3, #81]
 801:Drivers/STM32F1xx_HAL_Driver/Src/stm32f1xx_hal_spi.c ****   hspi->ErrorCode   = HAL_SPI_ERROR_NONE;
 400              		.loc 1 801 21
 401 0060 FB68     		ldr	r3, [r7, #12]
 402 0062 0022     		movs	r2, #0
 403 0064 5A65     		str	r2, [r3, #84]
 802:Drivers/STM32F1xx_HAL_Driver/Src/stm32f1xx_hal_spi.c ****   hspi->pTxBuffPtr  = (uint8_t *)pData;
 404              		.loc 1 802 21
ARM GAS  C:\Users\Alex\AppData\Local\Temp\ccfYuLQH.s 			page 22


 405 0066 FB68     		ldr	r3, [r7, #12]
 406 0068 BA68     		ldr	r2, [r7, #8]
 407 006a 1A63     		str	r2, [r3, #48]
 803:Drivers/STM32F1xx_HAL_Driver/Src/stm32f1xx_hal_spi.c ****   hspi->TxXferSize  = Size;
 408              		.loc 1 803 21
 409 006c FB68     		ldr	r3, [r7, #12]
 410 006e FA88     		ldrh	r2, [r7, #6]	@ movhi
 411 0070 9A86     		strh	r2, [r3, #52]	@ movhi
 804:Drivers/STM32F1xx_HAL_Driver/Src/stm32f1xx_hal_spi.c ****   hspi->TxXferCount = Size;
 412              		.loc 1 804 21
 413 0072 FB68     		ldr	r3, [r7, #12]
 414 0074 FA88     		ldrh	r2, [r7, #6]	@ movhi
 415 0076 DA86     		strh	r2, [r3, #54]	@ movhi
 805:Drivers/STM32F1xx_HAL_Driver/Src/stm32f1xx_hal_spi.c **** 
 806:Drivers/STM32F1xx_HAL_Driver/Src/stm32f1xx_hal_spi.c ****   /*Init field not used in handle to zero */
 807:Drivers/STM32F1xx_HAL_Driver/Src/stm32f1xx_hal_spi.c ****   hspi->pRxBuffPtr  = (uint8_t *)NULL;
 416              		.loc 1 807 21
 417 0078 FB68     		ldr	r3, [r7, #12]
 418 007a 0022     		movs	r2, #0
 419 007c 9A63     		str	r2, [r3, #56]
 808:Drivers/STM32F1xx_HAL_Driver/Src/stm32f1xx_hal_spi.c ****   hspi->RxXferSize  = 0U;
 420              		.loc 1 808 21
 421 007e FB68     		ldr	r3, [r7, #12]
 422 0080 0022     		movs	r2, #0
 423 0082 9A87     		strh	r2, [r3, #60]	@ movhi
 809:Drivers/STM32F1xx_HAL_Driver/Src/stm32f1xx_hal_spi.c ****   hspi->RxXferCount = 0U;
 424              		.loc 1 809 21
 425 0084 FB68     		ldr	r3, [r7, #12]
 426 0086 0022     		movs	r2, #0
 427 0088 DA87     		strh	r2, [r3, #62]	@ movhi
 810:Drivers/STM32F1xx_HAL_Driver/Src/stm32f1xx_hal_spi.c ****   hspi->TxISR       = NULL;
 428              		.loc 1 810 21
 429 008a FB68     		ldr	r3, [r7, #12]
 430 008c 0022     		movs	r2, #0
 431 008e 5A64     		str	r2, [r3, #68]
 811:Drivers/STM32F1xx_HAL_Driver/Src/stm32f1xx_hal_spi.c ****   hspi->RxISR       = NULL;
 432              		.loc 1 811 21
 433 0090 FB68     		ldr	r3, [r7, #12]
 434 0092 0022     		movs	r2, #0
 435 0094 1A64     		str	r2, [r3, #64]
 812:Drivers/STM32F1xx_HAL_Driver/Src/stm32f1xx_hal_spi.c **** 
 813:Drivers/STM32F1xx_HAL_Driver/Src/stm32f1xx_hal_spi.c ****   /* Configure communication direction : 1Line */
 814:Drivers/STM32F1xx_HAL_Driver/Src/stm32f1xx_hal_spi.c ****   if (hspi->Init.Direction == SPI_DIRECTION_1LINE)
 436              		.loc 1 814 17
 437 0096 FB68     		ldr	r3, [r7, #12]
 438 0098 9B68     		ldr	r3, [r3, #8]
 439              		.loc 1 814 6
 440 009a B3F5004F 		cmp	r3, #32768
 441 009e 07D1     		bne	.L17
 815:Drivers/STM32F1xx_HAL_Driver/Src/stm32f1xx_hal_spi.c ****   {
 816:Drivers/STM32F1xx_HAL_Driver/Src/stm32f1xx_hal_spi.c ****     SPI_1LINE_TX(hspi);
 442              		.loc 1 816 5
 443 00a0 FB68     		ldr	r3, [r7, #12]
 444 00a2 1B68     		ldr	r3, [r3]
 445 00a4 1A68     		ldr	r2, [r3]
 446 00a6 FB68     		ldr	r3, [r7, #12]
 447 00a8 1B68     		ldr	r3, [r3]
ARM GAS  C:\Users\Alex\AppData\Local\Temp\ccfYuLQH.s 			page 23


 448 00aa 42F48042 		orr	r2, r2, #16384
 449 00ae 1A60     		str	r2, [r3]
 450              	.L17:
 817:Drivers/STM32F1xx_HAL_Driver/Src/stm32f1xx_hal_spi.c ****   }
 818:Drivers/STM32F1xx_HAL_Driver/Src/stm32f1xx_hal_spi.c **** 
 819:Drivers/STM32F1xx_HAL_Driver/Src/stm32f1xx_hal_spi.c **** #if (USE_SPI_CRC != 0U)
 820:Drivers/STM32F1xx_HAL_Driver/Src/stm32f1xx_hal_spi.c ****   /* Reset CRC Calculation */
 821:Drivers/STM32F1xx_HAL_Driver/Src/stm32f1xx_hal_spi.c ****   if (hspi->Init.CRCCalculation == SPI_CRCCALCULATION_ENABLE)
 822:Drivers/STM32F1xx_HAL_Driver/Src/stm32f1xx_hal_spi.c ****   {
 823:Drivers/STM32F1xx_HAL_Driver/Src/stm32f1xx_hal_spi.c ****     SPI_RESET_CRC(hspi);
 824:Drivers/STM32F1xx_HAL_Driver/Src/stm32f1xx_hal_spi.c ****   }
 825:Drivers/STM32F1xx_HAL_Driver/Src/stm32f1xx_hal_spi.c **** #endif /* USE_SPI_CRC */
 826:Drivers/STM32F1xx_HAL_Driver/Src/stm32f1xx_hal_spi.c **** 
 827:Drivers/STM32F1xx_HAL_Driver/Src/stm32f1xx_hal_spi.c ****   /* Check if the SPI is already enabled */
 828:Drivers/STM32F1xx_HAL_Driver/Src/stm32f1xx_hal_spi.c ****   if ((hspi->Instance->CR1 & SPI_CR1_SPE) != SPI_CR1_SPE)
 451              		.loc 1 828 12
 452 00b0 FB68     		ldr	r3, [r7, #12]
 453 00b2 1B68     		ldr	r3, [r3]
 454              		.loc 1 828 22
 455 00b4 1B68     		ldr	r3, [r3]
 456              		.loc 1 828 28
 457 00b6 03F04003 		and	r3, r3, #64
 458              		.loc 1 828 6
 459 00ba 402B     		cmp	r3, #64
 460 00bc 07D0     		beq	.L18
 829:Drivers/STM32F1xx_HAL_Driver/Src/stm32f1xx_hal_spi.c ****   {
 830:Drivers/STM32F1xx_HAL_Driver/Src/stm32f1xx_hal_spi.c ****     /* Enable SPI peripheral */
 831:Drivers/STM32F1xx_HAL_Driver/Src/stm32f1xx_hal_spi.c ****     __HAL_SPI_ENABLE(hspi);
 461              		.loc 1 831 5
 462 00be FB68     		ldr	r3, [r7, #12]
 463 00c0 1B68     		ldr	r3, [r3]
 464 00c2 1A68     		ldr	r2, [r3]
 465 00c4 FB68     		ldr	r3, [r7, #12]
 466 00c6 1B68     		ldr	r3, [r3]
 467 00c8 42F04002 		orr	r2, r2, #64
 468 00cc 1A60     		str	r2, [r3]
 469              	.L18:
 832:Drivers/STM32F1xx_HAL_Driver/Src/stm32f1xx_hal_spi.c ****   }
 833:Drivers/STM32F1xx_HAL_Driver/Src/stm32f1xx_hal_spi.c **** 
 834:Drivers/STM32F1xx_HAL_Driver/Src/stm32f1xx_hal_spi.c ****   /* Transmit data in 16 Bit mode */
 835:Drivers/STM32F1xx_HAL_Driver/Src/stm32f1xx_hal_spi.c ****   if (hspi->Init.DataSize == SPI_DATASIZE_16BIT)
 470              		.loc 1 835 17
 471 00ce FB68     		ldr	r3, [r7, #12]
 472 00d0 DB68     		ldr	r3, [r3, #12]
 473              		.loc 1 835 6
 474 00d2 B3F5006F 		cmp	r3, #2048
 475 00d6 4BD1     		bne	.L19
 836:Drivers/STM32F1xx_HAL_Driver/Src/stm32f1xx_hal_spi.c ****   {
 837:Drivers/STM32F1xx_HAL_Driver/Src/stm32f1xx_hal_spi.c ****     if ((hspi->Init.Mode == SPI_MODE_SLAVE) || (initial_TxXferCount == 0x01U))
 476              		.loc 1 837 20
 477 00d8 FB68     		ldr	r3, [r7, #12]
 478 00da 5B68     		ldr	r3, [r3, #4]
 479              		.loc 1 837 8
 480 00dc 002B     		cmp	r3, #0
 481 00de 02D0     		beq	.L20
 482              		.loc 1 837 45 discriminator 1
 483 00e0 FB8A     		ldrh	r3, [r7, #22]
ARM GAS  C:\Users\Alex\AppData\Local\Temp\ccfYuLQH.s 			page 24


 484 00e2 012B     		cmp	r3, #1
 485 00e4 3ED1     		bne	.L22
 486              	.L20:
 838:Drivers/STM32F1xx_HAL_Driver/Src/stm32f1xx_hal_spi.c ****     {
 839:Drivers/STM32F1xx_HAL_Driver/Src/stm32f1xx_hal_spi.c ****       hspi->Instance->DR = *((uint16_t *)hspi->pTxBuffPtr);
 487              		.loc 1 839 46
 488 00e6 FB68     		ldr	r3, [r7, #12]
 489 00e8 1B6B     		ldr	r3, [r3, #48]
 490              		.loc 1 839 28
 491 00ea 1A88     		ldrh	r2, [r3]
 492              		.loc 1 839 11
 493 00ec FB68     		ldr	r3, [r7, #12]
 494 00ee 1B68     		ldr	r3, [r3]
 495              		.loc 1 839 26
 496 00f0 DA60     		str	r2, [r3, #12]
 840:Drivers/STM32F1xx_HAL_Driver/Src/stm32f1xx_hal_spi.c ****       hspi->pTxBuffPtr += sizeof(uint16_t);
 497              		.loc 1 840 24
 498 00f2 FB68     		ldr	r3, [r7, #12]
 499 00f4 1B6B     		ldr	r3, [r3, #48]
 500 00f6 9A1C     		adds	r2, r3, #2
 501 00f8 FB68     		ldr	r3, [r7, #12]
 502 00fa 1A63     		str	r2, [r3, #48]
 841:Drivers/STM32F1xx_HAL_Driver/Src/stm32f1xx_hal_spi.c ****       hspi->TxXferCount--;
 503              		.loc 1 841 11
 504 00fc FB68     		ldr	r3, [r7, #12]
 505 00fe DB8E     		ldrh	r3, [r3, #54]	@ movhi
 506 0100 9BB2     		uxth	r3, r3
 507              		.loc 1 841 24
 508 0102 013B     		subs	r3, r3, #1
 509 0104 9AB2     		uxth	r2, r3
 510 0106 FB68     		ldr	r3, [r7, #12]
 511 0108 DA86     		strh	r2, [r3, #54]	@ movhi
 842:Drivers/STM32F1xx_HAL_Driver/Src/stm32f1xx_hal_spi.c ****     }
 843:Drivers/STM32F1xx_HAL_Driver/Src/stm32f1xx_hal_spi.c ****     /* Transmit data in 16 Bit mode */
 844:Drivers/STM32F1xx_HAL_Driver/Src/stm32f1xx_hal_spi.c ****     while (hspi->TxXferCount > 0U)
 512              		.loc 1 844 11
 513 010a 2BE0     		b	.L22
 514              	.L26:
 845:Drivers/STM32F1xx_HAL_Driver/Src/stm32f1xx_hal_spi.c ****     {
 846:Drivers/STM32F1xx_HAL_Driver/Src/stm32f1xx_hal_spi.c ****       /* Wait until TXE flag is set to send data */
 847:Drivers/STM32F1xx_HAL_Driver/Src/stm32f1xx_hal_spi.c ****       if (__HAL_SPI_GET_FLAG(hspi, SPI_FLAG_TXE))
 515              		.loc 1 847 11
 516 010c FB68     		ldr	r3, [r7, #12]
 517 010e 1B68     		ldr	r3, [r3]
 518 0110 9B68     		ldr	r3, [r3, #8]
 519 0112 03F00203 		and	r3, r3, #2
 520              		.loc 1 847 10
 521 0116 022B     		cmp	r3, #2
 522 0118 12D1     		bne	.L23
 848:Drivers/STM32F1xx_HAL_Driver/Src/stm32f1xx_hal_spi.c ****       {
 849:Drivers/STM32F1xx_HAL_Driver/Src/stm32f1xx_hal_spi.c ****         hspi->Instance->DR = *((uint16_t *)hspi->pTxBuffPtr);
 523              		.loc 1 849 48
 524 011a FB68     		ldr	r3, [r7, #12]
 525 011c 1B6B     		ldr	r3, [r3, #48]
 526              		.loc 1 849 30
 527 011e 1A88     		ldrh	r2, [r3]
 528              		.loc 1 849 13
ARM GAS  C:\Users\Alex\AppData\Local\Temp\ccfYuLQH.s 			page 25


 529 0120 FB68     		ldr	r3, [r7, #12]
 530 0122 1B68     		ldr	r3, [r3]
 531              		.loc 1 849 28
 532 0124 DA60     		str	r2, [r3, #12]
 850:Drivers/STM32F1xx_HAL_Driver/Src/stm32f1xx_hal_spi.c ****         hspi->pTxBuffPtr += sizeof(uint16_t);
 533              		.loc 1 850 26
 534 0126 FB68     		ldr	r3, [r7, #12]
 535 0128 1B6B     		ldr	r3, [r3, #48]
 536 012a 9A1C     		adds	r2, r3, #2
 537 012c FB68     		ldr	r3, [r7, #12]
 538 012e 1A63     		str	r2, [r3, #48]
 851:Drivers/STM32F1xx_HAL_Driver/Src/stm32f1xx_hal_spi.c ****         hspi->TxXferCount--;
 539              		.loc 1 851 13
 540 0130 FB68     		ldr	r3, [r7, #12]
 541 0132 DB8E     		ldrh	r3, [r3, #54]	@ movhi
 542 0134 9BB2     		uxth	r3, r3
 543              		.loc 1 851 26
 544 0136 013B     		subs	r3, r3, #1
 545 0138 9AB2     		uxth	r2, r3
 546 013a FB68     		ldr	r3, [r7, #12]
 547 013c DA86     		strh	r2, [r3, #54]	@ movhi
 548 013e 11E0     		b	.L22
 549              	.L23:
 852:Drivers/STM32F1xx_HAL_Driver/Src/stm32f1xx_hal_spi.c ****       }
 853:Drivers/STM32F1xx_HAL_Driver/Src/stm32f1xx_hal_spi.c ****       else
 854:Drivers/STM32F1xx_HAL_Driver/Src/stm32f1xx_hal_spi.c ****       {
 855:Drivers/STM32F1xx_HAL_Driver/Src/stm32f1xx_hal_spi.c ****         /* Timeout management */
 856:Drivers/STM32F1xx_HAL_Driver/Src/stm32f1xx_hal_spi.c ****         if ((((HAL_GetTick() - tickstart) >=  Timeout) && (Timeout != HAL_MAX_DELAY)) || (Timeout =
 550              		.loc 1 856 16
 551 0140 FFF7FEFF 		bl	HAL_GetTick
 552 0144 0246     		mov	r2, r0
 553              		.loc 1 856 30
 554 0146 BB69     		ldr	r3, [r7, #24]
 555 0148 D31A     		subs	r3, r2, r3
 556              		.loc 1 856 12
 557 014a 3A68     		ldr	r2, [r7]
 558 014c 9A42     		cmp	r2, r3
 559 014e 03D8     		bhi	.L24
 560              		.loc 1 856 56 discriminator 1
 561 0150 3B68     		ldr	r3, [r7]
 562 0152 B3F1FF3F 		cmp	r3, #-1
 563 0156 02D1     		bne	.L25
 564              	.L24:
 565              		.loc 1 856 87 discriminator 3
 566 0158 3B68     		ldr	r3, [r7]
 567 015a 002B     		cmp	r3, #0
 568 015c 02D1     		bne	.L22
 569              	.L25:
 857:Drivers/STM32F1xx_HAL_Driver/Src/stm32f1xx_hal_spi.c ****         {
 858:Drivers/STM32F1xx_HAL_Driver/Src/stm32f1xx_hal_spi.c ****           errorcode = HAL_TIMEOUT;
 570              		.loc 1 858 21
 571 015e 0323     		movs	r3, #3
 572 0160 FB77     		strb	r3, [r7, #31]
 859:Drivers/STM32F1xx_HAL_Driver/Src/stm32f1xx_hal_spi.c ****           goto error;
 573              		.loc 1 859 11
 574 0162 74E0     		b	.L14
 575              	.L22:
ARM GAS  C:\Users\Alex\AppData\Local\Temp\ccfYuLQH.s 			page 26


 844:Drivers/STM32F1xx_HAL_Driver/Src/stm32f1xx_hal_spi.c ****     {
 576              		.loc 1 844 16
 577 0164 FB68     		ldr	r3, [r7, #12]
 578 0166 DB8E     		ldrh	r3, [r3, #54]	@ movhi
 579 0168 9BB2     		uxth	r3, r3
 844:Drivers/STM32F1xx_HAL_Driver/Src/stm32f1xx_hal_spi.c ****     {
 580              		.loc 1 844 11
 581 016a 002B     		cmp	r3, #0
 582 016c CED1     		bne	.L26
 583 016e 4CE0     		b	.L27
 584              	.L19:
 860:Drivers/STM32F1xx_HAL_Driver/Src/stm32f1xx_hal_spi.c ****         }
 861:Drivers/STM32F1xx_HAL_Driver/Src/stm32f1xx_hal_spi.c ****       }
 862:Drivers/STM32F1xx_HAL_Driver/Src/stm32f1xx_hal_spi.c ****     }
 863:Drivers/STM32F1xx_HAL_Driver/Src/stm32f1xx_hal_spi.c ****   }
 864:Drivers/STM32F1xx_HAL_Driver/Src/stm32f1xx_hal_spi.c ****   /* Transmit data in 8 Bit mode */
 865:Drivers/STM32F1xx_HAL_Driver/Src/stm32f1xx_hal_spi.c ****   else
 866:Drivers/STM32F1xx_HAL_Driver/Src/stm32f1xx_hal_spi.c ****   {
 867:Drivers/STM32F1xx_HAL_Driver/Src/stm32f1xx_hal_spi.c ****     if ((hspi->Init.Mode == SPI_MODE_SLAVE) || (initial_TxXferCount == 0x01U))
 585              		.loc 1 867 20
 586 0170 FB68     		ldr	r3, [r7, #12]
 587 0172 5B68     		ldr	r3, [r3, #4]
 588              		.loc 1 867 8
 589 0174 002B     		cmp	r3, #0
 590 0176 02D0     		beq	.L28
 591              		.loc 1 867 45 discriminator 1
 592 0178 FB8A     		ldrh	r3, [r7, #22]
 593 017a 012B     		cmp	r3, #1
 594 017c 40D1     		bne	.L30
 595              	.L28:
 868:Drivers/STM32F1xx_HAL_Driver/Src/stm32f1xx_hal_spi.c ****     {
 869:Drivers/STM32F1xx_HAL_Driver/Src/stm32f1xx_hal_spi.c ****       *((__IO uint8_t *)&hspi->Instance->DR) = (*hspi->pTxBuffPtr);
 596              		.loc 1 869 54
 597 017e FB68     		ldr	r3, [r7, #12]
 598 0180 1A6B     		ldr	r2, [r3, #48]
 599              		.loc 1 869 30
 600 0182 FB68     		ldr	r3, [r7, #12]
 601 0184 1B68     		ldr	r3, [r3]
 602              		.loc 1 869 25
 603 0186 0C33     		adds	r3, r3, #12
 604              		.loc 1 869 49
 605 0188 1278     		ldrb	r2, [r2]	@ zero_extendqisi2
 606              		.loc 1 869 46
 607 018a 1A70     		strb	r2, [r3]
 870:Drivers/STM32F1xx_HAL_Driver/Src/stm32f1xx_hal_spi.c ****       hspi->pTxBuffPtr += sizeof(uint8_t);
 608              		.loc 1 870 24
 609 018c FB68     		ldr	r3, [r7, #12]
 610 018e 1B6B     		ldr	r3, [r3, #48]
 611 0190 5A1C     		adds	r2, r3, #1
 612 0192 FB68     		ldr	r3, [r7, #12]
 613 0194 1A63     		str	r2, [r3, #48]
 871:Drivers/STM32F1xx_HAL_Driver/Src/stm32f1xx_hal_spi.c ****       hspi->TxXferCount--;
 614              		.loc 1 871 11
 615 0196 FB68     		ldr	r3, [r7, #12]
 616 0198 DB8E     		ldrh	r3, [r3, #54]	@ movhi
 617 019a 9BB2     		uxth	r3, r3
 618              		.loc 1 871 24
ARM GAS  C:\Users\Alex\AppData\Local\Temp\ccfYuLQH.s 			page 27


 619 019c 013B     		subs	r3, r3, #1
 620 019e 9AB2     		uxth	r2, r3
 621 01a0 FB68     		ldr	r3, [r7, #12]
 622 01a2 DA86     		strh	r2, [r3, #54]	@ movhi
 872:Drivers/STM32F1xx_HAL_Driver/Src/stm32f1xx_hal_spi.c ****     }
 873:Drivers/STM32F1xx_HAL_Driver/Src/stm32f1xx_hal_spi.c ****     while (hspi->TxXferCount > 0U)
 623              		.loc 1 873 11
 624 01a4 2CE0     		b	.L30
 625              	.L34:
 874:Drivers/STM32F1xx_HAL_Driver/Src/stm32f1xx_hal_spi.c ****     {
 875:Drivers/STM32F1xx_HAL_Driver/Src/stm32f1xx_hal_spi.c ****       /* Wait until TXE flag is set to send data */
 876:Drivers/STM32F1xx_HAL_Driver/Src/stm32f1xx_hal_spi.c ****       if (__HAL_SPI_GET_FLAG(hspi, SPI_FLAG_TXE))
 626              		.loc 1 876 11
 627 01a6 FB68     		ldr	r3, [r7, #12]
 628 01a8 1B68     		ldr	r3, [r3]
 629 01aa 9B68     		ldr	r3, [r3, #8]
 630 01ac 03F00203 		and	r3, r3, #2
 631              		.loc 1 876 10
 632 01b0 022B     		cmp	r3, #2
 633 01b2 13D1     		bne	.L31
 877:Drivers/STM32F1xx_HAL_Driver/Src/stm32f1xx_hal_spi.c ****       {
 878:Drivers/STM32F1xx_HAL_Driver/Src/stm32f1xx_hal_spi.c ****         *((__IO uint8_t *)&hspi->Instance->DR) = (*hspi->pTxBuffPtr);
 634              		.loc 1 878 56
 635 01b4 FB68     		ldr	r3, [r7, #12]
 636 01b6 1A6B     		ldr	r2, [r3, #48]
 637              		.loc 1 878 32
 638 01b8 FB68     		ldr	r3, [r7, #12]
 639 01ba 1B68     		ldr	r3, [r3]
 640              		.loc 1 878 27
 641 01bc 0C33     		adds	r3, r3, #12
 642              		.loc 1 878 51
 643 01be 1278     		ldrb	r2, [r2]	@ zero_extendqisi2
 644              		.loc 1 878 48
 645 01c0 1A70     		strb	r2, [r3]
 879:Drivers/STM32F1xx_HAL_Driver/Src/stm32f1xx_hal_spi.c ****         hspi->pTxBuffPtr += sizeof(uint8_t);
 646              		.loc 1 879 26
 647 01c2 FB68     		ldr	r3, [r7, #12]
 648 01c4 1B6B     		ldr	r3, [r3, #48]
 649 01c6 5A1C     		adds	r2, r3, #1
 650 01c8 FB68     		ldr	r3, [r7, #12]
 651 01ca 1A63     		str	r2, [r3, #48]
 880:Drivers/STM32F1xx_HAL_Driver/Src/stm32f1xx_hal_spi.c ****         hspi->TxXferCount--;
 652              		.loc 1 880 13
 653 01cc FB68     		ldr	r3, [r7, #12]
 654 01ce DB8E     		ldrh	r3, [r3, #54]	@ movhi
 655 01d0 9BB2     		uxth	r3, r3
 656              		.loc 1 880 26
 657 01d2 013B     		subs	r3, r3, #1
 658 01d4 9AB2     		uxth	r2, r3
 659 01d6 FB68     		ldr	r3, [r7, #12]
 660 01d8 DA86     		strh	r2, [r3, #54]	@ movhi
 661 01da 11E0     		b	.L30
 662              	.L31:
 881:Drivers/STM32F1xx_HAL_Driver/Src/stm32f1xx_hal_spi.c ****       }
 882:Drivers/STM32F1xx_HAL_Driver/Src/stm32f1xx_hal_spi.c ****       else
 883:Drivers/STM32F1xx_HAL_Driver/Src/stm32f1xx_hal_spi.c ****       {
 884:Drivers/STM32F1xx_HAL_Driver/Src/stm32f1xx_hal_spi.c ****         /* Timeout management */
ARM GAS  C:\Users\Alex\AppData\Local\Temp\ccfYuLQH.s 			page 28


 885:Drivers/STM32F1xx_HAL_Driver/Src/stm32f1xx_hal_spi.c ****         if ((((HAL_GetTick() - tickstart) >=  Timeout) && (Timeout != HAL_MAX_DELAY)) || (Timeout =
 663              		.loc 1 885 16
 664 01dc FFF7FEFF 		bl	HAL_GetTick
 665 01e0 0246     		mov	r2, r0
 666              		.loc 1 885 30
 667 01e2 BB69     		ldr	r3, [r7, #24]
 668 01e4 D31A     		subs	r3, r2, r3
 669              		.loc 1 885 12
 670 01e6 3A68     		ldr	r2, [r7]
 671 01e8 9A42     		cmp	r2, r3
 672 01ea 03D8     		bhi	.L32
 673              		.loc 1 885 56 discriminator 1
 674 01ec 3B68     		ldr	r3, [r7]
 675 01ee B3F1FF3F 		cmp	r3, #-1
 676 01f2 02D1     		bne	.L33
 677              	.L32:
 678              		.loc 1 885 87 discriminator 3
 679 01f4 3B68     		ldr	r3, [r7]
 680 01f6 002B     		cmp	r3, #0
 681 01f8 02D1     		bne	.L30
 682              	.L33:
 886:Drivers/STM32F1xx_HAL_Driver/Src/stm32f1xx_hal_spi.c ****         {
 887:Drivers/STM32F1xx_HAL_Driver/Src/stm32f1xx_hal_spi.c ****           errorcode = HAL_TIMEOUT;
 683              		.loc 1 887 21
 684 01fa 0323     		movs	r3, #3
 685 01fc FB77     		strb	r3, [r7, #31]
 888:Drivers/STM32F1xx_HAL_Driver/Src/stm32f1xx_hal_spi.c ****           goto error;
 686              		.loc 1 888 11
 687 01fe 26E0     		b	.L14
 688              	.L30:
 873:Drivers/STM32F1xx_HAL_Driver/Src/stm32f1xx_hal_spi.c ****     {
 689              		.loc 1 873 16
 690 0200 FB68     		ldr	r3, [r7, #12]
 691 0202 DB8E     		ldrh	r3, [r3, #54]	@ movhi
 692 0204 9BB2     		uxth	r3, r3
 873:Drivers/STM32F1xx_HAL_Driver/Src/stm32f1xx_hal_spi.c ****     {
 693              		.loc 1 873 11
 694 0206 002B     		cmp	r3, #0
 695 0208 CDD1     		bne	.L34
 696              	.L27:
 889:Drivers/STM32F1xx_HAL_Driver/Src/stm32f1xx_hal_spi.c ****         }
 890:Drivers/STM32F1xx_HAL_Driver/Src/stm32f1xx_hal_spi.c ****       }
 891:Drivers/STM32F1xx_HAL_Driver/Src/stm32f1xx_hal_spi.c ****     }
 892:Drivers/STM32F1xx_HAL_Driver/Src/stm32f1xx_hal_spi.c ****   }
 893:Drivers/STM32F1xx_HAL_Driver/Src/stm32f1xx_hal_spi.c **** #if (USE_SPI_CRC != 0U)
 894:Drivers/STM32F1xx_HAL_Driver/Src/stm32f1xx_hal_spi.c ****   /* Enable CRC Transmission */
 895:Drivers/STM32F1xx_HAL_Driver/Src/stm32f1xx_hal_spi.c ****   if (hspi->Init.CRCCalculation == SPI_CRCCALCULATION_ENABLE)
 896:Drivers/STM32F1xx_HAL_Driver/Src/stm32f1xx_hal_spi.c ****   {
 897:Drivers/STM32F1xx_HAL_Driver/Src/stm32f1xx_hal_spi.c ****     SET_BIT(hspi->Instance->CR1, SPI_CR1_CRCNEXT);
 898:Drivers/STM32F1xx_HAL_Driver/Src/stm32f1xx_hal_spi.c ****   }
 899:Drivers/STM32F1xx_HAL_Driver/Src/stm32f1xx_hal_spi.c **** #endif /* USE_SPI_CRC */
 900:Drivers/STM32F1xx_HAL_Driver/Src/stm32f1xx_hal_spi.c **** 
 901:Drivers/STM32F1xx_HAL_Driver/Src/stm32f1xx_hal_spi.c ****   /* Check the end of the transaction */
 902:Drivers/STM32F1xx_HAL_Driver/Src/stm32f1xx_hal_spi.c ****   if (SPI_EndRxTxTransaction(hspi, Timeout, tickstart) != HAL_OK)
 697              		.loc 1 902 7
 698 020a BA69     		ldr	r2, [r7, #24]
 699 020c 3968     		ldr	r1, [r7]
ARM GAS  C:\Users\Alex\AppData\Local\Temp\ccfYuLQH.s 			page 29


 700 020e F868     		ldr	r0, [r7, #12]
 701 0210 FFF7FEFF 		bl	SPI_EndRxTxTransaction
 702 0214 0346     		mov	r3, r0
 703              		.loc 1 902 6
 704 0216 002B     		cmp	r3, #0
 705 0218 02D0     		beq	.L35
 903:Drivers/STM32F1xx_HAL_Driver/Src/stm32f1xx_hal_spi.c ****   {
 904:Drivers/STM32F1xx_HAL_Driver/Src/stm32f1xx_hal_spi.c ****     hspi->ErrorCode = HAL_SPI_ERROR_FLAG;
 706              		.loc 1 904 21
 707 021a FB68     		ldr	r3, [r7, #12]
 708 021c 2022     		movs	r2, #32
 709 021e 5A65     		str	r2, [r3, #84]
 710              	.L35:
 905:Drivers/STM32F1xx_HAL_Driver/Src/stm32f1xx_hal_spi.c ****   }
 906:Drivers/STM32F1xx_HAL_Driver/Src/stm32f1xx_hal_spi.c **** 
 907:Drivers/STM32F1xx_HAL_Driver/Src/stm32f1xx_hal_spi.c ****   /* Clear overrun flag in 2 Lines communication mode because received is not read */
 908:Drivers/STM32F1xx_HAL_Driver/Src/stm32f1xx_hal_spi.c ****   if (hspi->Init.Direction == SPI_DIRECTION_2LINES)
 711              		.loc 1 908 17
 712 0220 FB68     		ldr	r3, [r7, #12]
 713 0222 9B68     		ldr	r3, [r3, #8]
 714              		.loc 1 908 6
 715 0224 002B     		cmp	r3, #0
 716 0226 0AD1     		bne	.L36
 717              	.LBB2:
 909:Drivers/STM32F1xx_HAL_Driver/Src/stm32f1xx_hal_spi.c ****   {
 910:Drivers/STM32F1xx_HAL_Driver/Src/stm32f1xx_hal_spi.c ****     __HAL_SPI_CLEAR_OVRFLAG(hspi);
 718              		.loc 1 910 5
 719 0228 0023     		movs	r3, #0
 720 022a 3B61     		str	r3, [r7, #16]
 721 022c FB68     		ldr	r3, [r7, #12]
 722 022e 1B68     		ldr	r3, [r3]
 723 0230 DB68     		ldr	r3, [r3, #12]
 724 0232 3B61     		str	r3, [r7, #16]
 725 0234 FB68     		ldr	r3, [r7, #12]
 726 0236 1B68     		ldr	r3, [r3]
 727 0238 9B68     		ldr	r3, [r3, #8]
 728 023a 3B61     		str	r3, [r7, #16]
 729 023c 3B69     		ldr	r3, [r7, #16]
 730              	.L36:
 731              	.LBE2:
 911:Drivers/STM32F1xx_HAL_Driver/Src/stm32f1xx_hal_spi.c ****   }
 912:Drivers/STM32F1xx_HAL_Driver/Src/stm32f1xx_hal_spi.c **** 
 913:Drivers/STM32F1xx_HAL_Driver/Src/stm32f1xx_hal_spi.c ****   if (hspi->ErrorCode != HAL_SPI_ERROR_NONE)
 732              		.loc 1 913 11
 733 023e FB68     		ldr	r3, [r7, #12]
 734 0240 5B6D     		ldr	r3, [r3, #84]
 735              		.loc 1 913 6
 736 0242 002B     		cmp	r3, #0
 737 0244 02D0     		beq	.L37
 914:Drivers/STM32F1xx_HAL_Driver/Src/stm32f1xx_hal_spi.c ****   {
 915:Drivers/STM32F1xx_HAL_Driver/Src/stm32f1xx_hal_spi.c ****     errorcode = HAL_ERROR;
 738              		.loc 1 915 15
 739 0246 0123     		movs	r3, #1
 740 0248 FB77     		strb	r3, [r7, #31]
 741 024a 00E0     		b	.L14
 742              	.L37:
 916:Drivers/STM32F1xx_HAL_Driver/Src/stm32f1xx_hal_spi.c ****   }
ARM GAS  C:\Users\Alex\AppData\Local\Temp\ccfYuLQH.s 			page 30


 917:Drivers/STM32F1xx_HAL_Driver/Src/stm32f1xx_hal_spi.c **** 
 918:Drivers/STM32F1xx_HAL_Driver/Src/stm32f1xx_hal_spi.c **** error:
 743              		.loc 1 918 1
 744 024c 00BF     		nop
 745              	.L14:
 919:Drivers/STM32F1xx_HAL_Driver/Src/stm32f1xx_hal_spi.c ****   hspi->State = HAL_SPI_STATE_READY;
 746              		.loc 1 919 15
 747 024e FB68     		ldr	r3, [r7, #12]
 748 0250 0122     		movs	r2, #1
 749 0252 83F85120 		strb	r2, [r3, #81]
 920:Drivers/STM32F1xx_HAL_Driver/Src/stm32f1xx_hal_spi.c ****   /* Process Unlocked */
 921:Drivers/STM32F1xx_HAL_Driver/Src/stm32f1xx_hal_spi.c ****   __HAL_UNLOCK(hspi);
 750              		.loc 1 921 3
 751 0256 FB68     		ldr	r3, [r7, #12]
 752 0258 0022     		movs	r2, #0
 753 025a 83F85020 		strb	r2, [r3, #80]
 922:Drivers/STM32F1xx_HAL_Driver/Src/stm32f1xx_hal_spi.c ****   return errorcode;
 754              		.loc 1 922 10
 755 025e FB7F     		ldrb	r3, [r7, #31]	@ zero_extendqisi2
 756              	.L12:
 923:Drivers/STM32F1xx_HAL_Driver/Src/stm32f1xx_hal_spi.c **** }
 757              		.loc 1 923 1
 758 0260 1846     		mov	r0, r3
 759 0262 2037     		adds	r7, r7, #32
 760              	.LCFI25:
 761              		.cfi_def_cfa_offset 8
 762 0264 BD46     		mov	sp, r7
 763              	.LCFI26:
 764              		.cfi_def_cfa_register 13
 765              		@ sp needed
 766 0266 80BD     		pop	{r7, pc}
 767              		.cfi_endproc
 768              	.LFE69:
 770              		.section	.text.HAL_SPI_Receive,"ax",%progbits
 771              		.align	1
 772              		.global	HAL_SPI_Receive
 773              		.syntax unified
 774              		.thumb
 775              		.thumb_func
 776              		.fpu softvfp
 778              	HAL_SPI_Receive:
 779              	.LFB70:
 924:Drivers/STM32F1xx_HAL_Driver/Src/stm32f1xx_hal_spi.c **** 
 925:Drivers/STM32F1xx_HAL_Driver/Src/stm32f1xx_hal_spi.c **** /**
 926:Drivers/STM32F1xx_HAL_Driver/Src/stm32f1xx_hal_spi.c ****   * @brief  Receive an amount of data in blocking mode.
 927:Drivers/STM32F1xx_HAL_Driver/Src/stm32f1xx_hal_spi.c ****   * @param  hspi pointer to a SPI_HandleTypeDef structure that contains
 928:Drivers/STM32F1xx_HAL_Driver/Src/stm32f1xx_hal_spi.c ****   *               the configuration information for SPI module.
 929:Drivers/STM32F1xx_HAL_Driver/Src/stm32f1xx_hal_spi.c ****   * @param  pData pointer to data buffer
 930:Drivers/STM32F1xx_HAL_Driver/Src/stm32f1xx_hal_spi.c ****   * @param  Size amount of data to be received
 931:Drivers/STM32F1xx_HAL_Driver/Src/stm32f1xx_hal_spi.c ****   * @param  Timeout Timeout duration
 932:Drivers/STM32F1xx_HAL_Driver/Src/stm32f1xx_hal_spi.c ****   * @retval HAL status
 933:Drivers/STM32F1xx_HAL_Driver/Src/stm32f1xx_hal_spi.c ****   */
 934:Drivers/STM32F1xx_HAL_Driver/Src/stm32f1xx_hal_spi.c **** HAL_StatusTypeDef HAL_SPI_Receive(SPI_HandleTypeDef *hspi, uint8_t *pData, uint16_t Size, uint32_t 
 935:Drivers/STM32F1xx_HAL_Driver/Src/stm32f1xx_hal_spi.c **** {
 780              		.loc 1 935 1
 781              		.cfi_startproc
 782              		@ args = 0, pretend = 0, frame = 24
ARM GAS  C:\Users\Alex\AppData\Local\Temp\ccfYuLQH.s 			page 31


 783              		@ frame_needed = 1, uses_anonymous_args = 0
 784 0000 80B5     		push	{r7, lr}
 785              	.LCFI27:
 786              		.cfi_def_cfa_offset 8
 787              		.cfi_offset 7, -8
 788              		.cfi_offset 14, -4
 789 0002 88B0     		sub	sp, sp, #32
 790              	.LCFI28:
 791              		.cfi_def_cfa_offset 40
 792 0004 02AF     		add	r7, sp, #8
 793              	.LCFI29:
 794              		.cfi_def_cfa 7, 32
 795 0006 F860     		str	r0, [r7, #12]
 796 0008 B960     		str	r1, [r7, #8]
 797 000a 3B60     		str	r3, [r7]
 798 000c 1346     		mov	r3, r2	@ movhi
 799 000e FB80     		strh	r3, [r7, #6]	@ movhi
 936:Drivers/STM32F1xx_HAL_Driver/Src/stm32f1xx_hal_spi.c ****   uint32_t tickstart;
 937:Drivers/STM32F1xx_HAL_Driver/Src/stm32f1xx_hal_spi.c ****   HAL_StatusTypeDef errorcode = HAL_OK;
 800              		.loc 1 937 21
 801 0010 0023     		movs	r3, #0
 802 0012 FB75     		strb	r3, [r7, #23]
 938:Drivers/STM32F1xx_HAL_Driver/Src/stm32f1xx_hal_spi.c **** 
 939:Drivers/STM32F1xx_HAL_Driver/Src/stm32f1xx_hal_spi.c ****   if ((hspi->Init.Mode == SPI_MODE_MASTER) && (hspi->Init.Direction == SPI_DIRECTION_2LINES))
 803              		.loc 1 939 18
 804 0014 FB68     		ldr	r3, [r7, #12]
 805 0016 5B68     		ldr	r3, [r3, #4]
 806              		.loc 1 939 6
 807 0018 B3F5827F 		cmp	r3, #260
 808 001c 12D1     		bne	.L39
 809              		.loc 1 939 58 discriminator 1
 810 001e FB68     		ldr	r3, [r7, #12]
 811 0020 9B68     		ldr	r3, [r3, #8]
 812              		.loc 1 939 44 discriminator 1
 813 0022 002B     		cmp	r3, #0
 814 0024 0ED1     		bne	.L39
 940:Drivers/STM32F1xx_HAL_Driver/Src/stm32f1xx_hal_spi.c ****   {
 941:Drivers/STM32F1xx_HAL_Driver/Src/stm32f1xx_hal_spi.c ****     hspi->State = HAL_SPI_STATE_BUSY_RX;
 815              		.loc 1 941 17
 816 0026 FB68     		ldr	r3, [r7, #12]
 817 0028 0422     		movs	r2, #4
 818 002a 83F85120 		strb	r2, [r3, #81]
 942:Drivers/STM32F1xx_HAL_Driver/Src/stm32f1xx_hal_spi.c ****     /* Call transmit-receive function to send Dummy data on Tx line and generate clock on CLK line 
 943:Drivers/STM32F1xx_HAL_Driver/Src/stm32f1xx_hal_spi.c ****     return HAL_SPI_TransmitReceive(hspi, pData, pData, Size, Timeout);
 819              		.loc 1 943 12
 820 002e FA88     		ldrh	r2, [r7, #6]
 821 0030 3B68     		ldr	r3, [r7]
 822 0032 0093     		str	r3, [sp]
 823 0034 1346     		mov	r3, r2
 824 0036 BA68     		ldr	r2, [r7, #8]
 825 0038 B968     		ldr	r1, [r7, #8]
 826 003a F868     		ldr	r0, [r7, #12]
 827 003c FFF7FEFF 		bl	HAL_SPI_TransmitReceive
 828 0040 0346     		mov	r3, r0
 829 0042 E2E0     		b	.L40
 830              	.L39:
 944:Drivers/STM32F1xx_HAL_Driver/Src/stm32f1xx_hal_spi.c ****   }
ARM GAS  C:\Users\Alex\AppData\Local\Temp\ccfYuLQH.s 			page 32


 945:Drivers/STM32F1xx_HAL_Driver/Src/stm32f1xx_hal_spi.c **** 
 946:Drivers/STM32F1xx_HAL_Driver/Src/stm32f1xx_hal_spi.c ****   /* Process Locked */
 947:Drivers/STM32F1xx_HAL_Driver/Src/stm32f1xx_hal_spi.c ****   __HAL_LOCK(hspi);
 831              		.loc 1 947 3
 832 0044 FB68     		ldr	r3, [r7, #12]
 833 0046 93F85030 		ldrb	r3, [r3, #80]	@ zero_extendqisi2
 834 004a 012B     		cmp	r3, #1
 835 004c 01D1     		bne	.L41
 836              		.loc 1 947 3 is_stmt 0 discriminator 1
 837 004e 0223     		movs	r3, #2
 838 0050 DBE0     		b	.L40
 839              	.L41:
 840              		.loc 1 947 3 discriminator 2
 841 0052 FB68     		ldr	r3, [r7, #12]
 842 0054 0122     		movs	r2, #1
 843 0056 83F85020 		strb	r2, [r3, #80]
 948:Drivers/STM32F1xx_HAL_Driver/Src/stm32f1xx_hal_spi.c **** 
 949:Drivers/STM32F1xx_HAL_Driver/Src/stm32f1xx_hal_spi.c ****   /* Init tickstart for timeout management*/
 950:Drivers/STM32F1xx_HAL_Driver/Src/stm32f1xx_hal_spi.c ****   tickstart = HAL_GetTick();
 844              		.loc 1 950 15 is_stmt 1 discriminator 2
 845 005a FFF7FEFF 		bl	HAL_GetTick
 846 005e 3861     		str	r0, [r7, #16]
 951:Drivers/STM32F1xx_HAL_Driver/Src/stm32f1xx_hal_spi.c **** 
 952:Drivers/STM32F1xx_HAL_Driver/Src/stm32f1xx_hal_spi.c ****   if (hspi->State != HAL_SPI_STATE_READY)
 847              		.loc 1 952 11 discriminator 2
 848 0060 FB68     		ldr	r3, [r7, #12]
 849 0062 93F85130 		ldrb	r3, [r3, #81]
 850 0066 DBB2     		uxtb	r3, r3
 851              		.loc 1 952 6 discriminator 2
 852 0068 012B     		cmp	r3, #1
 853 006a 02D0     		beq	.L42
 953:Drivers/STM32F1xx_HAL_Driver/Src/stm32f1xx_hal_spi.c ****   {
 954:Drivers/STM32F1xx_HAL_Driver/Src/stm32f1xx_hal_spi.c ****     errorcode = HAL_BUSY;
 854              		.loc 1 954 15
 855 006c 0223     		movs	r3, #2
 856 006e FB75     		strb	r3, [r7, #23]
 955:Drivers/STM32F1xx_HAL_Driver/Src/stm32f1xx_hal_spi.c ****     goto error;
 857              		.loc 1 955 5
 858 0070 C2E0     		b	.L43
 859              	.L42:
 956:Drivers/STM32F1xx_HAL_Driver/Src/stm32f1xx_hal_spi.c ****   }
 957:Drivers/STM32F1xx_HAL_Driver/Src/stm32f1xx_hal_spi.c **** 
 958:Drivers/STM32F1xx_HAL_Driver/Src/stm32f1xx_hal_spi.c ****   if ((pData == NULL) || (Size == 0U))
 860              		.loc 1 958 6
 861 0072 BB68     		ldr	r3, [r7, #8]
 862 0074 002B     		cmp	r3, #0
 863 0076 02D0     		beq	.L44
 864              		.loc 1 958 23 discriminator 1
 865 0078 FB88     		ldrh	r3, [r7, #6]
 866 007a 002B     		cmp	r3, #0
 867 007c 02D1     		bne	.L45
 868              	.L44:
 959:Drivers/STM32F1xx_HAL_Driver/Src/stm32f1xx_hal_spi.c ****   {
 960:Drivers/STM32F1xx_HAL_Driver/Src/stm32f1xx_hal_spi.c ****     errorcode = HAL_ERROR;
 869              		.loc 1 960 15
 870 007e 0123     		movs	r3, #1
 871 0080 FB75     		strb	r3, [r7, #23]
ARM GAS  C:\Users\Alex\AppData\Local\Temp\ccfYuLQH.s 			page 33


 961:Drivers/STM32F1xx_HAL_Driver/Src/stm32f1xx_hal_spi.c ****     goto error;
 872              		.loc 1 961 5
 873 0082 B9E0     		b	.L43
 874              	.L45:
 962:Drivers/STM32F1xx_HAL_Driver/Src/stm32f1xx_hal_spi.c ****   }
 963:Drivers/STM32F1xx_HAL_Driver/Src/stm32f1xx_hal_spi.c **** 
 964:Drivers/STM32F1xx_HAL_Driver/Src/stm32f1xx_hal_spi.c ****   /* Set the transaction information */
 965:Drivers/STM32F1xx_HAL_Driver/Src/stm32f1xx_hal_spi.c ****   hspi->State       = HAL_SPI_STATE_BUSY_RX;
 875              		.loc 1 965 21
 876 0084 FB68     		ldr	r3, [r7, #12]
 877 0086 0422     		movs	r2, #4
 878 0088 83F85120 		strb	r2, [r3, #81]
 966:Drivers/STM32F1xx_HAL_Driver/Src/stm32f1xx_hal_spi.c ****   hspi->ErrorCode   = HAL_SPI_ERROR_NONE;
 879              		.loc 1 966 21
 880 008c FB68     		ldr	r3, [r7, #12]
 881 008e 0022     		movs	r2, #0
 882 0090 5A65     		str	r2, [r3, #84]
 967:Drivers/STM32F1xx_HAL_Driver/Src/stm32f1xx_hal_spi.c ****   hspi->pRxBuffPtr  = (uint8_t *)pData;
 883              		.loc 1 967 21
 884 0092 FB68     		ldr	r3, [r7, #12]
 885 0094 BA68     		ldr	r2, [r7, #8]
 886 0096 9A63     		str	r2, [r3, #56]
 968:Drivers/STM32F1xx_HAL_Driver/Src/stm32f1xx_hal_spi.c ****   hspi->RxXferSize  = Size;
 887              		.loc 1 968 21
 888 0098 FB68     		ldr	r3, [r7, #12]
 889 009a FA88     		ldrh	r2, [r7, #6]	@ movhi
 890 009c 9A87     		strh	r2, [r3, #60]	@ movhi
 969:Drivers/STM32F1xx_HAL_Driver/Src/stm32f1xx_hal_spi.c ****   hspi->RxXferCount = Size;
 891              		.loc 1 969 21
 892 009e FB68     		ldr	r3, [r7, #12]
 893 00a0 FA88     		ldrh	r2, [r7, #6]	@ movhi
 894 00a2 DA87     		strh	r2, [r3, #62]	@ movhi
 970:Drivers/STM32F1xx_HAL_Driver/Src/stm32f1xx_hal_spi.c **** 
 971:Drivers/STM32F1xx_HAL_Driver/Src/stm32f1xx_hal_spi.c ****   /*Init field not used in handle to zero */
 972:Drivers/STM32F1xx_HAL_Driver/Src/stm32f1xx_hal_spi.c ****   hspi->pTxBuffPtr  = (uint8_t *)NULL;
 895              		.loc 1 972 21
 896 00a4 FB68     		ldr	r3, [r7, #12]
 897 00a6 0022     		movs	r2, #0
 898 00a8 1A63     		str	r2, [r3, #48]
 973:Drivers/STM32F1xx_HAL_Driver/Src/stm32f1xx_hal_spi.c ****   hspi->TxXferSize  = 0U;
 899              		.loc 1 973 21
 900 00aa FB68     		ldr	r3, [r7, #12]
 901 00ac 0022     		movs	r2, #0
 902 00ae 9A86     		strh	r2, [r3, #52]	@ movhi
 974:Drivers/STM32F1xx_HAL_Driver/Src/stm32f1xx_hal_spi.c ****   hspi->TxXferCount = 0U;
 903              		.loc 1 974 21
 904 00b0 FB68     		ldr	r3, [r7, #12]
 905 00b2 0022     		movs	r2, #0
 906 00b4 DA86     		strh	r2, [r3, #54]	@ movhi
 975:Drivers/STM32F1xx_HAL_Driver/Src/stm32f1xx_hal_spi.c ****   hspi->RxISR       = NULL;
 907              		.loc 1 975 21
 908 00b6 FB68     		ldr	r3, [r7, #12]
 909 00b8 0022     		movs	r2, #0
 910 00ba 1A64     		str	r2, [r3, #64]
 976:Drivers/STM32F1xx_HAL_Driver/Src/stm32f1xx_hal_spi.c ****   hspi->TxISR       = NULL;
 911              		.loc 1 976 21
 912 00bc FB68     		ldr	r3, [r7, #12]
ARM GAS  C:\Users\Alex\AppData\Local\Temp\ccfYuLQH.s 			page 34


 913 00be 0022     		movs	r2, #0
 914 00c0 5A64     		str	r2, [r3, #68]
 977:Drivers/STM32F1xx_HAL_Driver/Src/stm32f1xx_hal_spi.c **** 
 978:Drivers/STM32F1xx_HAL_Driver/Src/stm32f1xx_hal_spi.c **** #if (USE_SPI_CRC != 0U)
 979:Drivers/STM32F1xx_HAL_Driver/Src/stm32f1xx_hal_spi.c ****   /* Reset CRC Calculation */
 980:Drivers/STM32F1xx_HAL_Driver/Src/stm32f1xx_hal_spi.c ****   if (hspi->Init.CRCCalculation == SPI_CRCCALCULATION_ENABLE)
 981:Drivers/STM32F1xx_HAL_Driver/Src/stm32f1xx_hal_spi.c ****   {
 982:Drivers/STM32F1xx_HAL_Driver/Src/stm32f1xx_hal_spi.c ****     SPI_RESET_CRC(hspi);
 983:Drivers/STM32F1xx_HAL_Driver/Src/stm32f1xx_hal_spi.c ****     /* this is done to handle the CRCNEXT before the latest data */
 984:Drivers/STM32F1xx_HAL_Driver/Src/stm32f1xx_hal_spi.c ****     hspi->RxXferCount--;
 985:Drivers/STM32F1xx_HAL_Driver/Src/stm32f1xx_hal_spi.c ****   }
 986:Drivers/STM32F1xx_HAL_Driver/Src/stm32f1xx_hal_spi.c **** #endif /* USE_SPI_CRC */
 987:Drivers/STM32F1xx_HAL_Driver/Src/stm32f1xx_hal_spi.c **** 
 988:Drivers/STM32F1xx_HAL_Driver/Src/stm32f1xx_hal_spi.c ****   /* Configure communication direction: 1Line */
 989:Drivers/STM32F1xx_HAL_Driver/Src/stm32f1xx_hal_spi.c ****   if (hspi->Init.Direction == SPI_DIRECTION_1LINE)
 915              		.loc 1 989 17
 916 00c2 FB68     		ldr	r3, [r7, #12]
 917 00c4 9B68     		ldr	r3, [r3, #8]
 918              		.loc 1 989 6
 919 00c6 B3F5004F 		cmp	r3, #32768
 920 00ca 07D1     		bne	.L46
 990:Drivers/STM32F1xx_HAL_Driver/Src/stm32f1xx_hal_spi.c ****   {
 991:Drivers/STM32F1xx_HAL_Driver/Src/stm32f1xx_hal_spi.c ****     SPI_1LINE_RX(hspi);
 921              		.loc 1 991 5
 922 00cc FB68     		ldr	r3, [r7, #12]
 923 00ce 1B68     		ldr	r3, [r3]
 924 00d0 1A68     		ldr	r2, [r3]
 925 00d2 FB68     		ldr	r3, [r7, #12]
 926 00d4 1B68     		ldr	r3, [r3]
 927 00d6 22F48042 		bic	r2, r2, #16384
 928 00da 1A60     		str	r2, [r3]
 929              	.L46:
 992:Drivers/STM32F1xx_HAL_Driver/Src/stm32f1xx_hal_spi.c ****   }
 993:Drivers/STM32F1xx_HAL_Driver/Src/stm32f1xx_hal_spi.c **** 
 994:Drivers/STM32F1xx_HAL_Driver/Src/stm32f1xx_hal_spi.c ****   /* Check if the SPI is already enabled */
 995:Drivers/STM32F1xx_HAL_Driver/Src/stm32f1xx_hal_spi.c ****   if ((hspi->Instance->CR1 & SPI_CR1_SPE) != SPI_CR1_SPE)
 930              		.loc 1 995 12
 931 00dc FB68     		ldr	r3, [r7, #12]
 932 00de 1B68     		ldr	r3, [r3]
 933              		.loc 1 995 22
 934 00e0 1B68     		ldr	r3, [r3]
 935              		.loc 1 995 28
 936 00e2 03F04003 		and	r3, r3, #64
 937              		.loc 1 995 6
 938 00e6 402B     		cmp	r3, #64
 939 00e8 07D0     		beq	.L47
 996:Drivers/STM32F1xx_HAL_Driver/Src/stm32f1xx_hal_spi.c ****   {
 997:Drivers/STM32F1xx_HAL_Driver/Src/stm32f1xx_hal_spi.c ****     /* Enable SPI peripheral */
 998:Drivers/STM32F1xx_HAL_Driver/Src/stm32f1xx_hal_spi.c ****     __HAL_SPI_ENABLE(hspi);
 940              		.loc 1 998 5
 941 00ea FB68     		ldr	r3, [r7, #12]
 942 00ec 1B68     		ldr	r3, [r3]
 943 00ee 1A68     		ldr	r2, [r3]
 944 00f0 FB68     		ldr	r3, [r7, #12]
 945 00f2 1B68     		ldr	r3, [r3]
 946 00f4 42F04002 		orr	r2, r2, #64
 947 00f8 1A60     		str	r2, [r3]
ARM GAS  C:\Users\Alex\AppData\Local\Temp\ccfYuLQH.s 			page 35


 948              	.L47:
 999:Drivers/STM32F1xx_HAL_Driver/Src/stm32f1xx_hal_spi.c ****   }
1000:Drivers/STM32F1xx_HAL_Driver/Src/stm32f1xx_hal_spi.c **** 
1001:Drivers/STM32F1xx_HAL_Driver/Src/stm32f1xx_hal_spi.c ****   /* Receive data in 8 Bit mode */
1002:Drivers/STM32F1xx_HAL_Driver/Src/stm32f1xx_hal_spi.c ****   if (hspi->Init.DataSize == SPI_DATASIZE_8BIT)
 949              		.loc 1 1002 17
 950 00fa FB68     		ldr	r3, [r7, #12]
 951 00fc DB68     		ldr	r3, [r3, #12]
 952              		.loc 1 1002 6
 953 00fe 002B     		cmp	r3, #0
 954 0100 62D1     		bne	.L55
1003:Drivers/STM32F1xx_HAL_Driver/Src/stm32f1xx_hal_spi.c ****   {
1004:Drivers/STM32F1xx_HAL_Driver/Src/stm32f1xx_hal_spi.c ****     /* Transfer loop */
1005:Drivers/STM32F1xx_HAL_Driver/Src/stm32f1xx_hal_spi.c ****     while (hspi->RxXferCount > 0U)
 955              		.loc 1 1005 11
 956 0102 2EE0     		b	.L49
 957              	.L53:
1006:Drivers/STM32F1xx_HAL_Driver/Src/stm32f1xx_hal_spi.c ****     {
1007:Drivers/STM32F1xx_HAL_Driver/Src/stm32f1xx_hal_spi.c ****       /* Check the RXNE flag */
1008:Drivers/STM32F1xx_HAL_Driver/Src/stm32f1xx_hal_spi.c ****       if (__HAL_SPI_GET_FLAG(hspi, SPI_FLAG_RXNE))
 958              		.loc 1 1008 11
 959 0104 FB68     		ldr	r3, [r7, #12]
 960 0106 1B68     		ldr	r3, [r3]
 961 0108 9B68     		ldr	r3, [r3, #8]
 962 010a 03F00103 		and	r3, r3, #1
 963              		.loc 1 1008 10
 964 010e 012B     		cmp	r3, #1
 965 0110 15D1     		bne	.L50
1009:Drivers/STM32F1xx_HAL_Driver/Src/stm32f1xx_hal_spi.c ****       {
1010:Drivers/STM32F1xx_HAL_Driver/Src/stm32f1xx_hal_spi.c ****         /* read the received data */
1011:Drivers/STM32F1xx_HAL_Driver/Src/stm32f1xx_hal_spi.c ****         (* (uint8_t *)hspi->pRxBuffPtr) = *(__IO uint8_t *)&hspi->Instance->DR;
 966              		.loc 1 1011 65
 967 0112 FB68     		ldr	r3, [r7, #12]
 968 0114 1B68     		ldr	r3, [r3]
 969              		.loc 1 1011 60
 970 0116 03F10C02 		add	r2, r3, #12
 971              		.loc 1 1011 27
 972 011a FB68     		ldr	r3, [r7, #12]
 973 011c 9B6B     		ldr	r3, [r3, #56]
 974              		.loc 1 1011 43
 975 011e 1278     		ldrb	r2, [r2]
 976 0120 D2B2     		uxtb	r2, r2
 977              		.loc 1 1011 41
 978 0122 1A70     		strb	r2, [r3]
1012:Drivers/STM32F1xx_HAL_Driver/Src/stm32f1xx_hal_spi.c ****         hspi->pRxBuffPtr += sizeof(uint8_t);
 979              		.loc 1 1012 26
 980 0124 FB68     		ldr	r3, [r7, #12]
 981 0126 9B6B     		ldr	r3, [r3, #56]
 982 0128 5A1C     		adds	r2, r3, #1
 983 012a FB68     		ldr	r3, [r7, #12]
 984 012c 9A63     		str	r2, [r3, #56]
1013:Drivers/STM32F1xx_HAL_Driver/Src/stm32f1xx_hal_spi.c ****         hspi->RxXferCount--;
 985              		.loc 1 1013 13
 986 012e FB68     		ldr	r3, [r7, #12]
 987 0130 DB8F     		ldrh	r3, [r3, #62]	@ movhi
 988 0132 9BB2     		uxth	r3, r3
 989              		.loc 1 1013 26
ARM GAS  C:\Users\Alex\AppData\Local\Temp\ccfYuLQH.s 			page 36


 990 0134 013B     		subs	r3, r3, #1
 991 0136 9AB2     		uxth	r2, r3
 992 0138 FB68     		ldr	r3, [r7, #12]
 993 013a DA87     		strh	r2, [r3, #62]	@ movhi
 994 013c 11E0     		b	.L49
 995              	.L50:
1014:Drivers/STM32F1xx_HAL_Driver/Src/stm32f1xx_hal_spi.c ****       }
1015:Drivers/STM32F1xx_HAL_Driver/Src/stm32f1xx_hal_spi.c ****       else
1016:Drivers/STM32F1xx_HAL_Driver/Src/stm32f1xx_hal_spi.c ****       {
1017:Drivers/STM32F1xx_HAL_Driver/Src/stm32f1xx_hal_spi.c ****         /* Timeout management */
1018:Drivers/STM32F1xx_HAL_Driver/Src/stm32f1xx_hal_spi.c ****         if ((((HAL_GetTick() - tickstart) >=  Timeout) && (Timeout != HAL_MAX_DELAY)) || (Timeout =
 996              		.loc 1 1018 16
 997 013e FFF7FEFF 		bl	HAL_GetTick
 998 0142 0246     		mov	r2, r0
 999              		.loc 1 1018 30
 1000 0144 3B69     		ldr	r3, [r7, #16]
 1001 0146 D31A     		subs	r3, r2, r3
 1002              		.loc 1 1018 12
 1003 0148 3A68     		ldr	r2, [r7]
 1004 014a 9A42     		cmp	r2, r3
 1005 014c 03D8     		bhi	.L51
 1006              		.loc 1 1018 56 discriminator 1
 1007 014e 3B68     		ldr	r3, [r7]
 1008 0150 B3F1FF3F 		cmp	r3, #-1
 1009 0154 02D1     		bne	.L52
 1010              	.L51:
 1011              		.loc 1 1018 87 discriminator 3
 1012 0156 3B68     		ldr	r3, [r7]
 1013 0158 002B     		cmp	r3, #0
 1014 015a 02D1     		bne	.L49
 1015              	.L52:
1019:Drivers/STM32F1xx_HAL_Driver/Src/stm32f1xx_hal_spi.c ****         {
1020:Drivers/STM32F1xx_HAL_Driver/Src/stm32f1xx_hal_spi.c ****           errorcode = HAL_TIMEOUT;
 1016              		.loc 1 1020 21
 1017 015c 0323     		movs	r3, #3
 1018 015e FB75     		strb	r3, [r7, #23]
1021:Drivers/STM32F1xx_HAL_Driver/Src/stm32f1xx_hal_spi.c ****           goto error;
 1019              		.loc 1 1021 11
 1020 0160 4AE0     		b	.L43
 1021              	.L49:
1005:Drivers/STM32F1xx_HAL_Driver/Src/stm32f1xx_hal_spi.c ****     {
 1022              		.loc 1 1005 16
 1023 0162 FB68     		ldr	r3, [r7, #12]
 1024 0164 DB8F     		ldrh	r3, [r3, #62]	@ movhi
 1025 0166 9BB2     		uxth	r3, r3
1005:Drivers/STM32F1xx_HAL_Driver/Src/stm32f1xx_hal_spi.c ****     {
 1026              		.loc 1 1005 11
 1027 0168 002B     		cmp	r3, #0
 1028 016a CBD1     		bne	.L53
 1029 016c 31E0     		b	.L54
 1030              	.L59:
1022:Drivers/STM32F1xx_HAL_Driver/Src/stm32f1xx_hal_spi.c ****         }
1023:Drivers/STM32F1xx_HAL_Driver/Src/stm32f1xx_hal_spi.c ****       }
1024:Drivers/STM32F1xx_HAL_Driver/Src/stm32f1xx_hal_spi.c ****     }
1025:Drivers/STM32F1xx_HAL_Driver/Src/stm32f1xx_hal_spi.c ****   }
1026:Drivers/STM32F1xx_HAL_Driver/Src/stm32f1xx_hal_spi.c ****   else
1027:Drivers/STM32F1xx_HAL_Driver/Src/stm32f1xx_hal_spi.c ****   {
ARM GAS  C:\Users\Alex\AppData\Local\Temp\ccfYuLQH.s 			page 37


1028:Drivers/STM32F1xx_HAL_Driver/Src/stm32f1xx_hal_spi.c ****     /* Transfer loop */
1029:Drivers/STM32F1xx_HAL_Driver/Src/stm32f1xx_hal_spi.c ****     while (hspi->RxXferCount > 0U)
1030:Drivers/STM32F1xx_HAL_Driver/Src/stm32f1xx_hal_spi.c ****     {
1031:Drivers/STM32F1xx_HAL_Driver/Src/stm32f1xx_hal_spi.c ****       /* Check the RXNE flag */
1032:Drivers/STM32F1xx_HAL_Driver/Src/stm32f1xx_hal_spi.c ****       if (__HAL_SPI_GET_FLAG(hspi, SPI_FLAG_RXNE))
 1031              		.loc 1 1032 11
 1032 016e FB68     		ldr	r3, [r7, #12]
 1033 0170 1B68     		ldr	r3, [r3]
 1034 0172 9B68     		ldr	r3, [r3, #8]
 1035 0174 03F00103 		and	r3, r3, #1
 1036              		.loc 1 1032 10
 1037 0178 012B     		cmp	r3, #1
 1038 017a 13D1     		bne	.L56
1033:Drivers/STM32F1xx_HAL_Driver/Src/stm32f1xx_hal_spi.c ****       {
1034:Drivers/STM32F1xx_HAL_Driver/Src/stm32f1xx_hal_spi.c ****         *((uint16_t *)hspi->pRxBuffPtr) = (uint16_t)hspi->Instance->DR;
 1039              		.loc 1 1034 57
 1040 017c FB68     		ldr	r3, [r7, #12]
 1041 017e 1B68     		ldr	r3, [r3]
 1042              		.loc 1 1034 67
 1043 0180 DA68     		ldr	r2, [r3, #12]
 1044              		.loc 1 1034 27
 1045 0182 FB68     		ldr	r3, [r7, #12]
 1046 0184 9B6B     		ldr	r3, [r3, #56]
 1047              		.loc 1 1034 43
 1048 0186 92B2     		uxth	r2, r2
 1049              		.loc 1 1034 41
 1050 0188 1A80     		strh	r2, [r3]	@ movhi
1035:Drivers/STM32F1xx_HAL_Driver/Src/stm32f1xx_hal_spi.c ****         hspi->pRxBuffPtr += sizeof(uint16_t);
 1051              		.loc 1 1035 26
 1052 018a FB68     		ldr	r3, [r7, #12]
 1053 018c 9B6B     		ldr	r3, [r3, #56]
 1054 018e 9A1C     		adds	r2, r3, #2
 1055 0190 FB68     		ldr	r3, [r7, #12]
 1056 0192 9A63     		str	r2, [r3, #56]
1036:Drivers/STM32F1xx_HAL_Driver/Src/stm32f1xx_hal_spi.c ****         hspi->RxXferCount--;
 1057              		.loc 1 1036 13
 1058 0194 FB68     		ldr	r3, [r7, #12]
 1059 0196 DB8F     		ldrh	r3, [r3, #62]	@ movhi
 1060 0198 9BB2     		uxth	r3, r3
 1061              		.loc 1 1036 26
 1062 019a 013B     		subs	r3, r3, #1
 1063 019c 9AB2     		uxth	r2, r3
 1064 019e FB68     		ldr	r3, [r7, #12]
 1065 01a0 DA87     		strh	r2, [r3, #62]	@ movhi
 1066 01a2 11E0     		b	.L55
 1067              	.L56:
1037:Drivers/STM32F1xx_HAL_Driver/Src/stm32f1xx_hal_spi.c ****       }
1038:Drivers/STM32F1xx_HAL_Driver/Src/stm32f1xx_hal_spi.c ****       else
1039:Drivers/STM32F1xx_HAL_Driver/Src/stm32f1xx_hal_spi.c ****       {
1040:Drivers/STM32F1xx_HAL_Driver/Src/stm32f1xx_hal_spi.c ****         /* Timeout management */
1041:Drivers/STM32F1xx_HAL_Driver/Src/stm32f1xx_hal_spi.c ****         if ((((HAL_GetTick() - tickstart) >=  Timeout) && (Timeout != HAL_MAX_DELAY)) || (Timeout =
 1068              		.loc 1 1041 16
 1069 01a4 FFF7FEFF 		bl	HAL_GetTick
 1070 01a8 0246     		mov	r2, r0
 1071              		.loc 1 1041 30
 1072 01aa 3B69     		ldr	r3, [r7, #16]
 1073 01ac D31A     		subs	r3, r2, r3
ARM GAS  C:\Users\Alex\AppData\Local\Temp\ccfYuLQH.s 			page 38


 1074              		.loc 1 1041 12
 1075 01ae 3A68     		ldr	r2, [r7]
 1076 01b0 9A42     		cmp	r2, r3
 1077 01b2 03D8     		bhi	.L57
 1078              		.loc 1 1041 56 discriminator 1
 1079 01b4 3B68     		ldr	r3, [r7]
 1080 01b6 B3F1FF3F 		cmp	r3, #-1
 1081 01ba 02D1     		bne	.L58
 1082              	.L57:
 1083              		.loc 1 1041 87 discriminator 3
 1084 01bc 3B68     		ldr	r3, [r7]
 1085 01be 002B     		cmp	r3, #0
 1086 01c0 02D1     		bne	.L55
 1087              	.L58:
1042:Drivers/STM32F1xx_HAL_Driver/Src/stm32f1xx_hal_spi.c ****         {
1043:Drivers/STM32F1xx_HAL_Driver/Src/stm32f1xx_hal_spi.c ****           errorcode = HAL_TIMEOUT;
 1088              		.loc 1 1043 21
 1089 01c2 0323     		movs	r3, #3
 1090 01c4 FB75     		strb	r3, [r7, #23]
1044:Drivers/STM32F1xx_HAL_Driver/Src/stm32f1xx_hal_spi.c ****           goto error;
 1091              		.loc 1 1044 11
 1092 01c6 17E0     		b	.L43
 1093              	.L55:
1029:Drivers/STM32F1xx_HAL_Driver/Src/stm32f1xx_hal_spi.c ****     {
 1094              		.loc 1 1029 16
 1095 01c8 FB68     		ldr	r3, [r7, #12]
 1096 01ca DB8F     		ldrh	r3, [r3, #62]	@ movhi
 1097 01cc 9BB2     		uxth	r3, r3
1029:Drivers/STM32F1xx_HAL_Driver/Src/stm32f1xx_hal_spi.c ****     {
 1098              		.loc 1 1029 11
 1099 01ce 002B     		cmp	r3, #0
 1100 01d0 CDD1     		bne	.L59
 1101              	.L54:
1045:Drivers/STM32F1xx_HAL_Driver/Src/stm32f1xx_hal_spi.c ****         }
1046:Drivers/STM32F1xx_HAL_Driver/Src/stm32f1xx_hal_spi.c ****       }
1047:Drivers/STM32F1xx_HAL_Driver/Src/stm32f1xx_hal_spi.c ****     }
1048:Drivers/STM32F1xx_HAL_Driver/Src/stm32f1xx_hal_spi.c ****   }
1049:Drivers/STM32F1xx_HAL_Driver/Src/stm32f1xx_hal_spi.c **** 
1050:Drivers/STM32F1xx_HAL_Driver/Src/stm32f1xx_hal_spi.c **** #if (USE_SPI_CRC != 0U)
1051:Drivers/STM32F1xx_HAL_Driver/Src/stm32f1xx_hal_spi.c ****   /* Handle the CRC Transmission */
1052:Drivers/STM32F1xx_HAL_Driver/Src/stm32f1xx_hal_spi.c ****   if (hspi->Init.CRCCalculation == SPI_CRCCALCULATION_ENABLE)
1053:Drivers/STM32F1xx_HAL_Driver/Src/stm32f1xx_hal_spi.c ****   {
1054:Drivers/STM32F1xx_HAL_Driver/Src/stm32f1xx_hal_spi.c ****     /* freeze the CRC before the latest data */
1055:Drivers/STM32F1xx_HAL_Driver/Src/stm32f1xx_hal_spi.c ****     SET_BIT(hspi->Instance->CR1, SPI_CR1_CRCNEXT);
1056:Drivers/STM32F1xx_HAL_Driver/Src/stm32f1xx_hal_spi.c **** 
1057:Drivers/STM32F1xx_HAL_Driver/Src/stm32f1xx_hal_spi.c ****     /* Check if CRCNEXT is well reseted by hardware */
1058:Drivers/STM32F1xx_HAL_Driver/Src/stm32f1xx_hal_spi.c ****     if (READ_BIT(hspi->Instance->CR1, SPI_CR1_CRCNEXT))
1059:Drivers/STM32F1xx_HAL_Driver/Src/stm32f1xx_hal_spi.c ****     {
1060:Drivers/STM32F1xx_HAL_Driver/Src/stm32f1xx_hal_spi.c ****       /* Workaround to force CRCNEXT bit to zero in case of CRCNEXT is not reset automatically by h
1061:Drivers/STM32F1xx_HAL_Driver/Src/stm32f1xx_hal_spi.c ****       CLEAR_BIT(hspi->Instance->CR1, SPI_CR1_CRCNEXT);
1062:Drivers/STM32F1xx_HAL_Driver/Src/stm32f1xx_hal_spi.c ****     }
1063:Drivers/STM32F1xx_HAL_Driver/Src/stm32f1xx_hal_spi.c ****     /* Read the latest data */
1064:Drivers/STM32F1xx_HAL_Driver/Src/stm32f1xx_hal_spi.c ****     if (SPI_WaitFlagStateUntilTimeout(hspi, SPI_FLAG_RXNE, SET, Timeout, tickstart) != HAL_OK)
1065:Drivers/STM32F1xx_HAL_Driver/Src/stm32f1xx_hal_spi.c ****     {
1066:Drivers/STM32F1xx_HAL_Driver/Src/stm32f1xx_hal_spi.c ****       /* the latest data has not been received */
1067:Drivers/STM32F1xx_HAL_Driver/Src/stm32f1xx_hal_spi.c ****       errorcode = HAL_TIMEOUT;
1068:Drivers/STM32F1xx_HAL_Driver/Src/stm32f1xx_hal_spi.c ****       goto error;
ARM GAS  C:\Users\Alex\AppData\Local\Temp\ccfYuLQH.s 			page 39


1069:Drivers/STM32F1xx_HAL_Driver/Src/stm32f1xx_hal_spi.c ****     }
1070:Drivers/STM32F1xx_HAL_Driver/Src/stm32f1xx_hal_spi.c **** 
1071:Drivers/STM32F1xx_HAL_Driver/Src/stm32f1xx_hal_spi.c ****     /* Receive last data in 16 Bit mode */
1072:Drivers/STM32F1xx_HAL_Driver/Src/stm32f1xx_hal_spi.c ****     if (hspi->Init.DataSize == SPI_DATASIZE_16BIT)
1073:Drivers/STM32F1xx_HAL_Driver/Src/stm32f1xx_hal_spi.c ****     {
1074:Drivers/STM32F1xx_HAL_Driver/Src/stm32f1xx_hal_spi.c ****       *((uint16_t *)hspi->pRxBuffPtr) = (uint16_t)hspi->Instance->DR;
1075:Drivers/STM32F1xx_HAL_Driver/Src/stm32f1xx_hal_spi.c ****     }
1076:Drivers/STM32F1xx_HAL_Driver/Src/stm32f1xx_hal_spi.c ****     /* Receive last data in 8 Bit mode */
1077:Drivers/STM32F1xx_HAL_Driver/Src/stm32f1xx_hal_spi.c ****     else
1078:Drivers/STM32F1xx_HAL_Driver/Src/stm32f1xx_hal_spi.c ****     {
1079:Drivers/STM32F1xx_HAL_Driver/Src/stm32f1xx_hal_spi.c ****       (*(uint8_t *)hspi->pRxBuffPtr) = *(__IO uint8_t *)&hspi->Instance->DR;
1080:Drivers/STM32F1xx_HAL_Driver/Src/stm32f1xx_hal_spi.c ****     }
1081:Drivers/STM32F1xx_HAL_Driver/Src/stm32f1xx_hal_spi.c **** 
1082:Drivers/STM32F1xx_HAL_Driver/Src/stm32f1xx_hal_spi.c ****     /* Wait the CRC data */
1083:Drivers/STM32F1xx_HAL_Driver/Src/stm32f1xx_hal_spi.c ****     if (SPI_WaitFlagStateUntilTimeout(hspi, SPI_FLAG_RXNE, SET, Timeout, tickstart) != HAL_OK)
1084:Drivers/STM32F1xx_HAL_Driver/Src/stm32f1xx_hal_spi.c ****     {
1085:Drivers/STM32F1xx_HAL_Driver/Src/stm32f1xx_hal_spi.c ****       SET_BIT(hspi->ErrorCode, HAL_SPI_ERROR_CRC);
1086:Drivers/STM32F1xx_HAL_Driver/Src/stm32f1xx_hal_spi.c ****       errorcode = HAL_TIMEOUT;
1087:Drivers/STM32F1xx_HAL_Driver/Src/stm32f1xx_hal_spi.c ****       goto error;
1088:Drivers/STM32F1xx_HAL_Driver/Src/stm32f1xx_hal_spi.c ****     }
1089:Drivers/STM32F1xx_HAL_Driver/Src/stm32f1xx_hal_spi.c **** 
1090:Drivers/STM32F1xx_HAL_Driver/Src/stm32f1xx_hal_spi.c ****     /* Read CRC to Flush DR and RXNE flag */
1091:Drivers/STM32F1xx_HAL_Driver/Src/stm32f1xx_hal_spi.c ****     READ_REG(hspi->Instance->DR);
1092:Drivers/STM32F1xx_HAL_Driver/Src/stm32f1xx_hal_spi.c ****   }
1093:Drivers/STM32F1xx_HAL_Driver/Src/stm32f1xx_hal_spi.c **** #endif /* USE_SPI_CRC */
1094:Drivers/STM32F1xx_HAL_Driver/Src/stm32f1xx_hal_spi.c **** 
1095:Drivers/STM32F1xx_HAL_Driver/Src/stm32f1xx_hal_spi.c ****   /* Check the end of the transaction */
1096:Drivers/STM32F1xx_HAL_Driver/Src/stm32f1xx_hal_spi.c ****   if (SPI_EndRxTransaction(hspi, Timeout, tickstart) != HAL_OK)
 1102              		.loc 1 1096 7
 1103 01d2 3A69     		ldr	r2, [r7, #16]
 1104 01d4 3968     		ldr	r1, [r7]
 1105 01d6 F868     		ldr	r0, [r7, #12]
 1106 01d8 FFF7FEFF 		bl	SPI_EndRxTransaction
 1107 01dc 0346     		mov	r3, r0
 1108              		.loc 1 1096 6
 1109 01de 002B     		cmp	r3, #0
 1110 01e0 02D0     		beq	.L60
1097:Drivers/STM32F1xx_HAL_Driver/Src/stm32f1xx_hal_spi.c ****   {
1098:Drivers/STM32F1xx_HAL_Driver/Src/stm32f1xx_hal_spi.c ****     hspi->ErrorCode = HAL_SPI_ERROR_FLAG;
 1111              		.loc 1 1098 21
 1112 01e2 FB68     		ldr	r3, [r7, #12]
 1113 01e4 2022     		movs	r2, #32
 1114 01e6 5A65     		str	r2, [r3, #84]
 1115              	.L60:
1099:Drivers/STM32F1xx_HAL_Driver/Src/stm32f1xx_hal_spi.c ****   }
1100:Drivers/STM32F1xx_HAL_Driver/Src/stm32f1xx_hal_spi.c **** 
1101:Drivers/STM32F1xx_HAL_Driver/Src/stm32f1xx_hal_spi.c **** #if (USE_SPI_CRC != 0U)
1102:Drivers/STM32F1xx_HAL_Driver/Src/stm32f1xx_hal_spi.c ****   /* Check if CRC error occurred */
1103:Drivers/STM32F1xx_HAL_Driver/Src/stm32f1xx_hal_spi.c ****   if (__HAL_SPI_GET_FLAG(hspi, SPI_FLAG_CRCERR) != RESET)
1104:Drivers/STM32F1xx_HAL_Driver/Src/stm32f1xx_hal_spi.c ****   {
1105:Drivers/STM32F1xx_HAL_Driver/Src/stm32f1xx_hal_spi.c ****     /* Check if CRC error is valid or not (workaround to be applied or not) */
1106:Drivers/STM32F1xx_HAL_Driver/Src/stm32f1xx_hal_spi.c ****     if (SPI_ISCRCErrorValid(hspi) == SPI_VALID_CRC_ERROR)
1107:Drivers/STM32F1xx_HAL_Driver/Src/stm32f1xx_hal_spi.c ****     {
1108:Drivers/STM32F1xx_HAL_Driver/Src/stm32f1xx_hal_spi.c ****       SET_BIT(hspi->ErrorCode, HAL_SPI_ERROR_CRC);
1109:Drivers/STM32F1xx_HAL_Driver/Src/stm32f1xx_hal_spi.c **** 
1110:Drivers/STM32F1xx_HAL_Driver/Src/stm32f1xx_hal_spi.c ****       /* Reset CRC Calculation */
1111:Drivers/STM32F1xx_HAL_Driver/Src/stm32f1xx_hal_spi.c ****       SPI_RESET_CRC(hspi);
ARM GAS  C:\Users\Alex\AppData\Local\Temp\ccfYuLQH.s 			page 40


1112:Drivers/STM32F1xx_HAL_Driver/Src/stm32f1xx_hal_spi.c ****     }
1113:Drivers/STM32F1xx_HAL_Driver/Src/stm32f1xx_hal_spi.c ****     else
1114:Drivers/STM32F1xx_HAL_Driver/Src/stm32f1xx_hal_spi.c ****     {
1115:Drivers/STM32F1xx_HAL_Driver/Src/stm32f1xx_hal_spi.c ****       __HAL_SPI_CLEAR_CRCERRFLAG(hspi);
1116:Drivers/STM32F1xx_HAL_Driver/Src/stm32f1xx_hal_spi.c ****     }
1117:Drivers/STM32F1xx_HAL_Driver/Src/stm32f1xx_hal_spi.c ****   }
1118:Drivers/STM32F1xx_HAL_Driver/Src/stm32f1xx_hal_spi.c **** #endif /* USE_SPI_CRC */
1119:Drivers/STM32F1xx_HAL_Driver/Src/stm32f1xx_hal_spi.c **** 
1120:Drivers/STM32F1xx_HAL_Driver/Src/stm32f1xx_hal_spi.c ****   if (hspi->ErrorCode != HAL_SPI_ERROR_NONE)
 1116              		.loc 1 1120 11
 1117 01e8 FB68     		ldr	r3, [r7, #12]
 1118 01ea 5B6D     		ldr	r3, [r3, #84]
 1119              		.loc 1 1120 6
 1120 01ec 002B     		cmp	r3, #0
 1121 01ee 02D0     		beq	.L61
1121:Drivers/STM32F1xx_HAL_Driver/Src/stm32f1xx_hal_spi.c ****   {
1122:Drivers/STM32F1xx_HAL_Driver/Src/stm32f1xx_hal_spi.c ****     errorcode = HAL_ERROR;
 1122              		.loc 1 1122 15
 1123 01f0 0123     		movs	r3, #1
 1124 01f2 FB75     		strb	r3, [r7, #23]
 1125 01f4 00E0     		b	.L43
 1126              	.L61:
1123:Drivers/STM32F1xx_HAL_Driver/Src/stm32f1xx_hal_spi.c ****   }
1124:Drivers/STM32F1xx_HAL_Driver/Src/stm32f1xx_hal_spi.c **** 
1125:Drivers/STM32F1xx_HAL_Driver/Src/stm32f1xx_hal_spi.c **** error :
 1127              		.loc 1 1125 1
 1128 01f6 00BF     		nop
 1129              	.L43:
1126:Drivers/STM32F1xx_HAL_Driver/Src/stm32f1xx_hal_spi.c ****   hspi->State = HAL_SPI_STATE_READY;
 1130              		.loc 1 1126 15
 1131 01f8 FB68     		ldr	r3, [r7, #12]
 1132 01fa 0122     		movs	r2, #1
 1133 01fc 83F85120 		strb	r2, [r3, #81]
1127:Drivers/STM32F1xx_HAL_Driver/Src/stm32f1xx_hal_spi.c ****   __HAL_UNLOCK(hspi);
 1134              		.loc 1 1127 3
 1135 0200 FB68     		ldr	r3, [r7, #12]
 1136 0202 0022     		movs	r2, #0
 1137 0204 83F85020 		strb	r2, [r3, #80]
1128:Drivers/STM32F1xx_HAL_Driver/Src/stm32f1xx_hal_spi.c ****   return errorcode;
 1138              		.loc 1 1128 10
 1139 0208 FB7D     		ldrb	r3, [r7, #23]	@ zero_extendqisi2
 1140              	.L40:
1129:Drivers/STM32F1xx_HAL_Driver/Src/stm32f1xx_hal_spi.c **** }
 1141              		.loc 1 1129 1
 1142 020a 1846     		mov	r0, r3
 1143 020c 1837     		adds	r7, r7, #24
 1144              	.LCFI30:
 1145              		.cfi_def_cfa_offset 8
 1146 020e BD46     		mov	sp, r7
 1147              	.LCFI31:
 1148              		.cfi_def_cfa_register 13
 1149              		@ sp needed
 1150 0210 80BD     		pop	{r7, pc}
 1151              		.cfi_endproc
 1152              	.LFE70:
 1154              		.section	.text.HAL_SPI_TransmitReceive,"ax",%progbits
 1155              		.align	1
ARM GAS  C:\Users\Alex\AppData\Local\Temp\ccfYuLQH.s 			page 41


 1156              		.global	HAL_SPI_TransmitReceive
 1157              		.syntax unified
 1158              		.thumb
 1159              		.thumb_func
 1160              		.fpu softvfp
 1162              	HAL_SPI_TransmitReceive:
 1163              	.LFB71:
1130:Drivers/STM32F1xx_HAL_Driver/Src/stm32f1xx_hal_spi.c **** 
1131:Drivers/STM32F1xx_HAL_Driver/Src/stm32f1xx_hal_spi.c **** /**
1132:Drivers/STM32F1xx_HAL_Driver/Src/stm32f1xx_hal_spi.c ****   * @brief  Transmit and Receive an amount of data in blocking mode.
1133:Drivers/STM32F1xx_HAL_Driver/Src/stm32f1xx_hal_spi.c ****   * @param  hspi pointer to a SPI_HandleTypeDef structure that contains
1134:Drivers/STM32F1xx_HAL_Driver/Src/stm32f1xx_hal_spi.c ****   *               the configuration information for SPI module.
1135:Drivers/STM32F1xx_HAL_Driver/Src/stm32f1xx_hal_spi.c ****   * @param  pTxData pointer to transmission data buffer
1136:Drivers/STM32F1xx_HAL_Driver/Src/stm32f1xx_hal_spi.c ****   * @param  pRxData pointer to reception data buffer
1137:Drivers/STM32F1xx_HAL_Driver/Src/stm32f1xx_hal_spi.c ****   * @param  Size amount of data to be sent and received
1138:Drivers/STM32F1xx_HAL_Driver/Src/stm32f1xx_hal_spi.c ****   * @param  Timeout Timeout duration
1139:Drivers/STM32F1xx_HAL_Driver/Src/stm32f1xx_hal_spi.c ****   * @retval HAL status
1140:Drivers/STM32F1xx_HAL_Driver/Src/stm32f1xx_hal_spi.c ****   */
1141:Drivers/STM32F1xx_HAL_Driver/Src/stm32f1xx_hal_spi.c **** HAL_StatusTypeDef HAL_SPI_TransmitReceive(SPI_HandleTypeDef *hspi, uint8_t *pTxData, uint8_t *pRxDa
1142:Drivers/STM32F1xx_HAL_Driver/Src/stm32f1xx_hal_spi.c ****                                           uint32_t Timeout)
1143:Drivers/STM32F1xx_HAL_Driver/Src/stm32f1xx_hal_spi.c **** {
 1164              		.loc 1 1143 1
 1165              		.cfi_startproc
 1166              		@ args = 4, pretend = 0, frame = 48
 1167              		@ frame_needed = 1, uses_anonymous_args = 0
 1168 0000 80B5     		push	{r7, lr}
 1169              	.LCFI32:
 1170              		.cfi_def_cfa_offset 8
 1171              		.cfi_offset 7, -8
 1172              		.cfi_offset 14, -4
 1173 0002 8CB0     		sub	sp, sp, #48
 1174              	.LCFI33:
 1175              		.cfi_def_cfa_offset 56
 1176 0004 00AF     		add	r7, sp, #0
 1177              	.LCFI34:
 1178              		.cfi_def_cfa_register 7
 1179 0006 F860     		str	r0, [r7, #12]
 1180 0008 B960     		str	r1, [r7, #8]
 1181 000a 7A60     		str	r2, [r7, #4]
 1182 000c 7B80     		strh	r3, [r7, #2]	@ movhi
1144:Drivers/STM32F1xx_HAL_Driver/Src/stm32f1xx_hal_spi.c ****   uint16_t             initial_TxXferCount;
1145:Drivers/STM32F1xx_HAL_Driver/Src/stm32f1xx_hal_spi.c ****   uint32_t             tmp_mode;
1146:Drivers/STM32F1xx_HAL_Driver/Src/stm32f1xx_hal_spi.c ****   HAL_SPI_StateTypeDef tmp_state;
1147:Drivers/STM32F1xx_HAL_Driver/Src/stm32f1xx_hal_spi.c ****   uint32_t             tickstart;
1148:Drivers/STM32F1xx_HAL_Driver/Src/stm32f1xx_hal_spi.c **** 
1149:Drivers/STM32F1xx_HAL_Driver/Src/stm32f1xx_hal_spi.c ****   /* Variable used to alternate Rx and Tx during transfer */
1150:Drivers/STM32F1xx_HAL_Driver/Src/stm32f1xx_hal_spi.c ****   uint32_t             txallowed = 1U;
 1183              		.loc 1 1150 24
 1184 000e 0123     		movs	r3, #1
 1185 0010 FB62     		str	r3, [r7, #44]
1151:Drivers/STM32F1xx_HAL_Driver/Src/stm32f1xx_hal_spi.c ****   HAL_StatusTypeDef    errorcode = HAL_OK;
 1186              		.loc 1 1151 24
 1187 0012 0023     		movs	r3, #0
 1188 0014 87F82B30 		strb	r3, [r7, #43]
1152:Drivers/STM32F1xx_HAL_Driver/Src/stm32f1xx_hal_spi.c **** 
1153:Drivers/STM32F1xx_HAL_Driver/Src/stm32f1xx_hal_spi.c ****   /* Check Direction parameter */
1154:Drivers/STM32F1xx_HAL_Driver/Src/stm32f1xx_hal_spi.c ****   assert_param(IS_SPI_DIRECTION_2LINES(hspi->Init.Direction));
ARM GAS  C:\Users\Alex\AppData\Local\Temp\ccfYuLQH.s 			page 42


1155:Drivers/STM32F1xx_HAL_Driver/Src/stm32f1xx_hal_spi.c **** 
1156:Drivers/STM32F1xx_HAL_Driver/Src/stm32f1xx_hal_spi.c ****   /* Process Locked */
1157:Drivers/STM32F1xx_HAL_Driver/Src/stm32f1xx_hal_spi.c ****   __HAL_LOCK(hspi);
 1189              		.loc 1 1157 3
 1190 0018 FB68     		ldr	r3, [r7, #12]
 1191 001a 93F85030 		ldrb	r3, [r3, #80]	@ zero_extendqisi2
 1192 001e 012B     		cmp	r3, #1
 1193 0020 01D1     		bne	.L63
 1194              		.loc 1 1157 3 is_stmt 0 discriminator 1
 1195 0022 0223     		movs	r3, #2
 1196 0024 8AE1     		b	.L64
 1197              	.L63:
 1198              		.loc 1 1157 3 discriminator 2
 1199 0026 FB68     		ldr	r3, [r7, #12]
 1200 0028 0122     		movs	r2, #1
 1201 002a 83F85020 		strb	r2, [r3, #80]
1158:Drivers/STM32F1xx_HAL_Driver/Src/stm32f1xx_hal_spi.c **** 
1159:Drivers/STM32F1xx_HAL_Driver/Src/stm32f1xx_hal_spi.c ****   /* Init tickstart for timeout management*/
1160:Drivers/STM32F1xx_HAL_Driver/Src/stm32f1xx_hal_spi.c ****   tickstart = HAL_GetTick();
 1202              		.loc 1 1160 15 is_stmt 1 discriminator 2
 1203 002e FFF7FEFF 		bl	HAL_GetTick
 1204 0032 7862     		str	r0, [r7, #36]
1161:Drivers/STM32F1xx_HAL_Driver/Src/stm32f1xx_hal_spi.c **** 
1162:Drivers/STM32F1xx_HAL_Driver/Src/stm32f1xx_hal_spi.c ****   /* Init temporary variables */
1163:Drivers/STM32F1xx_HAL_Driver/Src/stm32f1xx_hal_spi.c ****   tmp_state           = hspi->State;
 1205              		.loc 1 1163 23 discriminator 2
 1206 0034 FB68     		ldr	r3, [r7, #12]
 1207 0036 93F85130 		ldrb	r3, [r3, #81]
 1208 003a 87F82330 		strb	r3, [r7, #35]
1164:Drivers/STM32F1xx_HAL_Driver/Src/stm32f1xx_hal_spi.c ****   tmp_mode            = hspi->Init.Mode;
 1209              		.loc 1 1164 23 discriminator 2
 1210 003e FB68     		ldr	r3, [r7, #12]
 1211 0040 5B68     		ldr	r3, [r3, #4]
 1212 0042 FB61     		str	r3, [r7, #28]
1165:Drivers/STM32F1xx_HAL_Driver/Src/stm32f1xx_hal_spi.c ****   initial_TxXferCount = Size;
 1213              		.loc 1 1165 23 discriminator 2
 1214 0044 7B88     		ldrh	r3, [r7, #2]	@ movhi
 1215 0046 7B83     		strh	r3, [r7, #26]	@ movhi
1166:Drivers/STM32F1xx_HAL_Driver/Src/stm32f1xx_hal_spi.c **** 
1167:Drivers/STM32F1xx_HAL_Driver/Src/stm32f1xx_hal_spi.c ****   if (!((tmp_state == HAL_SPI_STATE_READY) || \
 1216              		.loc 1 1167 6 discriminator 2
 1217 0048 97F82330 		ldrb	r3, [r7, #35]	@ zero_extendqisi2
 1218 004c 012B     		cmp	r3, #1
 1219 004e 0FD0     		beq	.L65
 1220              		.loc 1 1167 7 discriminator 1
 1221 0050 FB69     		ldr	r3, [r7, #28]
 1222 0052 B3F5827F 		cmp	r3, #260
 1223 0056 07D1     		bne	.L66
1168:Drivers/STM32F1xx_HAL_Driver/Src/stm32f1xx_hal_spi.c ****         ((tmp_mode == SPI_MODE_MASTER) && (hspi->Init.Direction == SPI_DIRECTION_2LINES) && (tmp_st
 1224              		.loc 1 1168 54
 1225 0058 FB68     		ldr	r3, [r7, #12]
 1226 005a 9B68     		ldr	r3, [r3, #8]
 1227              		.loc 1 1168 40
 1228 005c 002B     		cmp	r3, #0
 1229 005e 03D1     		bne	.L66
 1230              		.loc 1 1168 90 discriminator 1
 1231 0060 97F82330 		ldrb	r3, [r7, #35]	@ zero_extendqisi2
ARM GAS  C:\Users\Alex\AppData\Local\Temp\ccfYuLQH.s 			page 43


 1232 0064 042B     		cmp	r3, #4
 1233 0066 03D0     		beq	.L65
 1234              	.L66:
1169:Drivers/STM32F1xx_HAL_Driver/Src/stm32f1xx_hal_spi.c ****   {
1170:Drivers/STM32F1xx_HAL_Driver/Src/stm32f1xx_hal_spi.c ****     errorcode = HAL_BUSY;
 1235              		.loc 1 1170 15
 1236 0068 0223     		movs	r3, #2
 1237 006a 87F82B30 		strb	r3, [r7, #43]
1171:Drivers/STM32F1xx_HAL_Driver/Src/stm32f1xx_hal_spi.c ****     goto error;
 1238              		.loc 1 1171 5
 1239 006e 5BE1     		b	.L67
 1240              	.L65:
1172:Drivers/STM32F1xx_HAL_Driver/Src/stm32f1xx_hal_spi.c ****   }
1173:Drivers/STM32F1xx_HAL_Driver/Src/stm32f1xx_hal_spi.c **** 
1174:Drivers/STM32F1xx_HAL_Driver/Src/stm32f1xx_hal_spi.c ****   if ((pTxData == NULL) || (pRxData == NULL) || (Size == 0U))
 1241              		.loc 1 1174 6
 1242 0070 BB68     		ldr	r3, [r7, #8]
 1243 0072 002B     		cmp	r3, #0
 1244 0074 05D0     		beq	.L68
 1245              		.loc 1 1174 25 discriminator 1
 1246 0076 7B68     		ldr	r3, [r7, #4]
 1247 0078 002B     		cmp	r3, #0
 1248 007a 02D0     		beq	.L68
 1249              		.loc 1 1174 46 discriminator 2
 1250 007c 7B88     		ldrh	r3, [r7, #2]
 1251 007e 002B     		cmp	r3, #0
 1252 0080 03D1     		bne	.L69
 1253              	.L68:
1175:Drivers/STM32F1xx_HAL_Driver/Src/stm32f1xx_hal_spi.c ****   {
1176:Drivers/STM32F1xx_HAL_Driver/Src/stm32f1xx_hal_spi.c ****     errorcode = HAL_ERROR;
 1254              		.loc 1 1176 15
 1255 0082 0123     		movs	r3, #1
 1256 0084 87F82B30 		strb	r3, [r7, #43]
1177:Drivers/STM32F1xx_HAL_Driver/Src/stm32f1xx_hal_spi.c ****     goto error;
 1257              		.loc 1 1177 5
 1258 0088 4EE1     		b	.L67
 1259              	.L69:
1178:Drivers/STM32F1xx_HAL_Driver/Src/stm32f1xx_hal_spi.c ****   }
1179:Drivers/STM32F1xx_HAL_Driver/Src/stm32f1xx_hal_spi.c **** 
1180:Drivers/STM32F1xx_HAL_Driver/Src/stm32f1xx_hal_spi.c ****   /* Don't overwrite in case of HAL_SPI_STATE_BUSY_RX */
1181:Drivers/STM32F1xx_HAL_Driver/Src/stm32f1xx_hal_spi.c ****   if (hspi->State != HAL_SPI_STATE_BUSY_RX)
 1260              		.loc 1 1181 11
 1261 008a FB68     		ldr	r3, [r7, #12]
 1262 008c 93F85130 		ldrb	r3, [r3, #81]
 1263 0090 DBB2     		uxtb	r3, r3
 1264              		.loc 1 1181 6
 1265 0092 042B     		cmp	r3, #4
 1266 0094 03D0     		beq	.L70
1182:Drivers/STM32F1xx_HAL_Driver/Src/stm32f1xx_hal_spi.c ****   {
1183:Drivers/STM32F1xx_HAL_Driver/Src/stm32f1xx_hal_spi.c ****     hspi->State = HAL_SPI_STATE_BUSY_TX_RX;
 1267              		.loc 1 1183 17
 1268 0096 FB68     		ldr	r3, [r7, #12]
 1269 0098 0522     		movs	r2, #5
 1270 009a 83F85120 		strb	r2, [r3, #81]
 1271              	.L70:
1184:Drivers/STM32F1xx_HAL_Driver/Src/stm32f1xx_hal_spi.c ****   }
1185:Drivers/STM32F1xx_HAL_Driver/Src/stm32f1xx_hal_spi.c **** 
ARM GAS  C:\Users\Alex\AppData\Local\Temp\ccfYuLQH.s 			page 44


1186:Drivers/STM32F1xx_HAL_Driver/Src/stm32f1xx_hal_spi.c ****   /* Set the transaction information */
1187:Drivers/STM32F1xx_HAL_Driver/Src/stm32f1xx_hal_spi.c ****   hspi->ErrorCode   = HAL_SPI_ERROR_NONE;
 1272              		.loc 1 1187 21
 1273 009e FB68     		ldr	r3, [r7, #12]
 1274 00a0 0022     		movs	r2, #0
 1275 00a2 5A65     		str	r2, [r3, #84]
1188:Drivers/STM32F1xx_HAL_Driver/Src/stm32f1xx_hal_spi.c ****   hspi->pRxBuffPtr  = (uint8_t *)pRxData;
 1276              		.loc 1 1188 21
 1277 00a4 FB68     		ldr	r3, [r7, #12]
 1278 00a6 7A68     		ldr	r2, [r7, #4]
 1279 00a8 9A63     		str	r2, [r3, #56]
1189:Drivers/STM32F1xx_HAL_Driver/Src/stm32f1xx_hal_spi.c ****   hspi->RxXferCount = Size;
 1280              		.loc 1 1189 21
 1281 00aa FB68     		ldr	r3, [r7, #12]
 1282 00ac 7A88     		ldrh	r2, [r7, #2]	@ movhi
 1283 00ae DA87     		strh	r2, [r3, #62]	@ movhi
1190:Drivers/STM32F1xx_HAL_Driver/Src/stm32f1xx_hal_spi.c ****   hspi->RxXferSize  = Size;
 1284              		.loc 1 1190 21
 1285 00b0 FB68     		ldr	r3, [r7, #12]
 1286 00b2 7A88     		ldrh	r2, [r7, #2]	@ movhi
 1287 00b4 9A87     		strh	r2, [r3, #60]	@ movhi
1191:Drivers/STM32F1xx_HAL_Driver/Src/stm32f1xx_hal_spi.c ****   hspi->pTxBuffPtr  = (uint8_t *)pTxData;
 1288              		.loc 1 1191 21
 1289 00b6 FB68     		ldr	r3, [r7, #12]
 1290 00b8 BA68     		ldr	r2, [r7, #8]
 1291 00ba 1A63     		str	r2, [r3, #48]
1192:Drivers/STM32F1xx_HAL_Driver/Src/stm32f1xx_hal_spi.c ****   hspi->TxXferCount = Size;
 1292              		.loc 1 1192 21
 1293 00bc FB68     		ldr	r3, [r7, #12]
 1294 00be 7A88     		ldrh	r2, [r7, #2]	@ movhi
 1295 00c0 DA86     		strh	r2, [r3, #54]	@ movhi
1193:Drivers/STM32F1xx_HAL_Driver/Src/stm32f1xx_hal_spi.c ****   hspi->TxXferSize  = Size;
 1296              		.loc 1 1193 21
 1297 00c2 FB68     		ldr	r3, [r7, #12]
 1298 00c4 7A88     		ldrh	r2, [r7, #2]	@ movhi
 1299 00c6 9A86     		strh	r2, [r3, #52]	@ movhi
1194:Drivers/STM32F1xx_HAL_Driver/Src/stm32f1xx_hal_spi.c **** 
1195:Drivers/STM32F1xx_HAL_Driver/Src/stm32f1xx_hal_spi.c ****   /*Init field not used in handle to zero */
1196:Drivers/STM32F1xx_HAL_Driver/Src/stm32f1xx_hal_spi.c ****   hspi->RxISR       = NULL;
 1300              		.loc 1 1196 21
 1301 00c8 FB68     		ldr	r3, [r7, #12]
 1302 00ca 0022     		movs	r2, #0
 1303 00cc 1A64     		str	r2, [r3, #64]
1197:Drivers/STM32F1xx_HAL_Driver/Src/stm32f1xx_hal_spi.c ****   hspi->TxISR       = NULL;
 1304              		.loc 1 1197 21
 1305 00ce FB68     		ldr	r3, [r7, #12]
 1306 00d0 0022     		movs	r2, #0
 1307 00d2 5A64     		str	r2, [r3, #68]
1198:Drivers/STM32F1xx_HAL_Driver/Src/stm32f1xx_hal_spi.c **** 
1199:Drivers/STM32F1xx_HAL_Driver/Src/stm32f1xx_hal_spi.c **** #if (USE_SPI_CRC != 0U)
1200:Drivers/STM32F1xx_HAL_Driver/Src/stm32f1xx_hal_spi.c ****   /* Reset CRC Calculation */
1201:Drivers/STM32F1xx_HAL_Driver/Src/stm32f1xx_hal_spi.c ****   if (hspi->Init.CRCCalculation == SPI_CRCCALCULATION_ENABLE)
1202:Drivers/STM32F1xx_HAL_Driver/Src/stm32f1xx_hal_spi.c ****   {
1203:Drivers/STM32F1xx_HAL_Driver/Src/stm32f1xx_hal_spi.c ****     SPI_RESET_CRC(hspi);
1204:Drivers/STM32F1xx_HAL_Driver/Src/stm32f1xx_hal_spi.c ****   }
1205:Drivers/STM32F1xx_HAL_Driver/Src/stm32f1xx_hal_spi.c **** #endif /* USE_SPI_CRC */
1206:Drivers/STM32F1xx_HAL_Driver/Src/stm32f1xx_hal_spi.c **** 
ARM GAS  C:\Users\Alex\AppData\Local\Temp\ccfYuLQH.s 			page 45


1207:Drivers/STM32F1xx_HAL_Driver/Src/stm32f1xx_hal_spi.c ****   /* Check if the SPI is already enabled */
1208:Drivers/STM32F1xx_HAL_Driver/Src/stm32f1xx_hal_spi.c ****   if ((hspi->Instance->CR1 & SPI_CR1_SPE) != SPI_CR1_SPE)
 1308              		.loc 1 1208 12
 1309 00d4 FB68     		ldr	r3, [r7, #12]
 1310 00d6 1B68     		ldr	r3, [r3]
 1311              		.loc 1 1208 22
 1312 00d8 1B68     		ldr	r3, [r3]
 1313              		.loc 1 1208 28
 1314 00da 03F04003 		and	r3, r3, #64
 1315              		.loc 1 1208 6
 1316 00de 402B     		cmp	r3, #64
 1317 00e0 07D0     		beq	.L71
1209:Drivers/STM32F1xx_HAL_Driver/Src/stm32f1xx_hal_spi.c ****   {
1210:Drivers/STM32F1xx_HAL_Driver/Src/stm32f1xx_hal_spi.c ****     /* Enable SPI peripheral */
1211:Drivers/STM32F1xx_HAL_Driver/Src/stm32f1xx_hal_spi.c ****     __HAL_SPI_ENABLE(hspi);
 1318              		.loc 1 1211 5
 1319 00e2 FB68     		ldr	r3, [r7, #12]
 1320 00e4 1B68     		ldr	r3, [r3]
 1321 00e6 1A68     		ldr	r2, [r3]
 1322 00e8 FB68     		ldr	r3, [r7, #12]
 1323 00ea 1B68     		ldr	r3, [r3]
 1324 00ec 42F04002 		orr	r2, r2, #64
 1325 00f0 1A60     		str	r2, [r3]
 1326              	.L71:
1212:Drivers/STM32F1xx_HAL_Driver/Src/stm32f1xx_hal_spi.c ****   }
1213:Drivers/STM32F1xx_HAL_Driver/Src/stm32f1xx_hal_spi.c **** 
1214:Drivers/STM32F1xx_HAL_Driver/Src/stm32f1xx_hal_spi.c ****   /* Transmit and Receive data in 16 Bit mode */
1215:Drivers/STM32F1xx_HAL_Driver/Src/stm32f1xx_hal_spi.c ****   if (hspi->Init.DataSize == SPI_DATASIZE_16BIT)
 1327              		.loc 1 1215 17
 1328 00f2 FB68     		ldr	r3, [r7, #12]
 1329 00f4 DB68     		ldr	r3, [r3, #12]
 1330              		.loc 1 1215 6
 1331 00f6 B3F5006F 		cmp	r3, #2048
 1332 00fa 78D1     		bne	.L72
1216:Drivers/STM32F1xx_HAL_Driver/Src/stm32f1xx_hal_spi.c ****   {
1217:Drivers/STM32F1xx_HAL_Driver/Src/stm32f1xx_hal_spi.c ****     if ((hspi->Init.Mode == SPI_MODE_SLAVE) || (initial_TxXferCount == 0x01U))
 1333              		.loc 1 1217 20
 1334 00fc FB68     		ldr	r3, [r7, #12]
 1335 00fe 5B68     		ldr	r3, [r3, #4]
 1336              		.loc 1 1217 8
 1337 0100 002B     		cmp	r3, #0
 1338 0102 02D0     		beq	.L73
 1339              		.loc 1 1217 45 discriminator 1
 1340 0104 7B8B     		ldrh	r3, [r7, #26]
 1341 0106 012B     		cmp	r3, #1
 1342 0108 66D1     		bne	.L75
 1343              	.L73:
1218:Drivers/STM32F1xx_HAL_Driver/Src/stm32f1xx_hal_spi.c ****     {
1219:Drivers/STM32F1xx_HAL_Driver/Src/stm32f1xx_hal_spi.c ****       hspi->Instance->DR = *((uint16_t *)hspi->pTxBuffPtr);
 1344              		.loc 1 1219 46
 1345 010a FB68     		ldr	r3, [r7, #12]
 1346 010c 1B6B     		ldr	r3, [r3, #48]
 1347              		.loc 1 1219 28
 1348 010e 1A88     		ldrh	r2, [r3]
 1349              		.loc 1 1219 11
 1350 0110 FB68     		ldr	r3, [r7, #12]
 1351 0112 1B68     		ldr	r3, [r3]
ARM GAS  C:\Users\Alex\AppData\Local\Temp\ccfYuLQH.s 			page 46


 1352              		.loc 1 1219 26
 1353 0114 DA60     		str	r2, [r3, #12]
1220:Drivers/STM32F1xx_HAL_Driver/Src/stm32f1xx_hal_spi.c ****       hspi->pTxBuffPtr += sizeof(uint16_t);
 1354              		.loc 1 1220 24
 1355 0116 FB68     		ldr	r3, [r7, #12]
 1356 0118 1B6B     		ldr	r3, [r3, #48]
 1357 011a 9A1C     		adds	r2, r3, #2
 1358 011c FB68     		ldr	r3, [r7, #12]
 1359 011e 1A63     		str	r2, [r3, #48]
1221:Drivers/STM32F1xx_HAL_Driver/Src/stm32f1xx_hal_spi.c ****       hspi->TxXferCount--;
 1360              		.loc 1 1221 11
 1361 0120 FB68     		ldr	r3, [r7, #12]
 1362 0122 DB8E     		ldrh	r3, [r3, #54]	@ movhi
 1363 0124 9BB2     		uxth	r3, r3
 1364              		.loc 1 1221 24
 1365 0126 013B     		subs	r3, r3, #1
 1366 0128 9AB2     		uxth	r2, r3
 1367 012a FB68     		ldr	r3, [r7, #12]
 1368 012c DA86     		strh	r2, [r3, #54]	@ movhi
1222:Drivers/STM32F1xx_HAL_Driver/Src/stm32f1xx_hal_spi.c ****     }
1223:Drivers/STM32F1xx_HAL_Driver/Src/stm32f1xx_hal_spi.c ****     while ((hspi->TxXferCount > 0U) || (hspi->RxXferCount > 0U))
 1369              		.loc 1 1223 11
 1370 012e 53E0     		b	.L75
 1371              	.L78:
1224:Drivers/STM32F1xx_HAL_Driver/Src/stm32f1xx_hal_spi.c ****     {
1225:Drivers/STM32F1xx_HAL_Driver/Src/stm32f1xx_hal_spi.c ****       /* Check TXE flag */
1226:Drivers/STM32F1xx_HAL_Driver/Src/stm32f1xx_hal_spi.c ****       if ((__HAL_SPI_GET_FLAG(hspi, SPI_FLAG_TXE)) && (hspi->TxXferCount > 0U) && (txallowed == 1U)
 1372              		.loc 1 1226 12
 1373 0130 FB68     		ldr	r3, [r7, #12]
 1374 0132 1B68     		ldr	r3, [r3]
 1375 0134 9B68     		ldr	r3, [r3, #8]
 1376 0136 03F00203 		and	r3, r3, #2
 1377              		.loc 1 1226 10
 1378 013a 022B     		cmp	r3, #2
 1379 013c 1BD1     		bne	.L76
 1380              		.loc 1 1226 60 discriminator 1
 1381 013e FB68     		ldr	r3, [r7, #12]
 1382 0140 DB8E     		ldrh	r3, [r3, #54]	@ movhi
 1383 0142 9BB2     		uxth	r3, r3
 1384              		.loc 1 1226 52 discriminator 1
 1385 0144 002B     		cmp	r3, #0
 1386 0146 16D0     		beq	.L76
 1387              		.loc 1 1226 80 discriminator 2
 1388 0148 FB6A     		ldr	r3, [r7, #44]
 1389 014a 012B     		cmp	r3, #1
 1390 014c 13D1     		bne	.L76
1227:Drivers/STM32F1xx_HAL_Driver/Src/stm32f1xx_hal_spi.c ****       {
1228:Drivers/STM32F1xx_HAL_Driver/Src/stm32f1xx_hal_spi.c ****         hspi->Instance->DR = *((uint16_t *)hspi->pTxBuffPtr);
 1391              		.loc 1 1228 48
 1392 014e FB68     		ldr	r3, [r7, #12]
 1393 0150 1B6B     		ldr	r3, [r3, #48]
 1394              		.loc 1 1228 30
 1395 0152 1A88     		ldrh	r2, [r3]
 1396              		.loc 1 1228 13
 1397 0154 FB68     		ldr	r3, [r7, #12]
 1398 0156 1B68     		ldr	r3, [r3]
 1399              		.loc 1 1228 28
ARM GAS  C:\Users\Alex\AppData\Local\Temp\ccfYuLQH.s 			page 47


 1400 0158 DA60     		str	r2, [r3, #12]
1229:Drivers/STM32F1xx_HAL_Driver/Src/stm32f1xx_hal_spi.c ****         hspi->pTxBuffPtr += sizeof(uint16_t);
 1401              		.loc 1 1229 26
 1402 015a FB68     		ldr	r3, [r7, #12]
 1403 015c 1B6B     		ldr	r3, [r3, #48]
 1404 015e 9A1C     		adds	r2, r3, #2
 1405 0160 FB68     		ldr	r3, [r7, #12]
 1406 0162 1A63     		str	r2, [r3, #48]
1230:Drivers/STM32F1xx_HAL_Driver/Src/stm32f1xx_hal_spi.c ****         hspi->TxXferCount--;
 1407              		.loc 1 1230 13
 1408 0164 FB68     		ldr	r3, [r7, #12]
 1409 0166 DB8E     		ldrh	r3, [r3, #54]	@ movhi
 1410 0168 9BB2     		uxth	r3, r3
 1411              		.loc 1 1230 26
 1412 016a 013B     		subs	r3, r3, #1
 1413 016c 9AB2     		uxth	r2, r3
 1414 016e FB68     		ldr	r3, [r7, #12]
 1415 0170 DA86     		strh	r2, [r3, #54]	@ movhi
1231:Drivers/STM32F1xx_HAL_Driver/Src/stm32f1xx_hal_spi.c ****         /* Next Data is a reception (Rx). Tx not allowed */
1232:Drivers/STM32F1xx_HAL_Driver/Src/stm32f1xx_hal_spi.c ****         txallowed = 0U;
 1416              		.loc 1 1232 19
 1417 0172 0023     		movs	r3, #0
 1418 0174 FB62     		str	r3, [r7, #44]
 1419              	.L76:
1233:Drivers/STM32F1xx_HAL_Driver/Src/stm32f1xx_hal_spi.c **** 
1234:Drivers/STM32F1xx_HAL_Driver/Src/stm32f1xx_hal_spi.c **** #if (USE_SPI_CRC != 0U)
1235:Drivers/STM32F1xx_HAL_Driver/Src/stm32f1xx_hal_spi.c ****         /* Enable CRC Transmission */
1236:Drivers/STM32F1xx_HAL_Driver/Src/stm32f1xx_hal_spi.c ****         if ((hspi->TxXferCount == 0U) && (hspi->Init.CRCCalculation == SPI_CRCCALCULATION_ENABLE))
1237:Drivers/STM32F1xx_HAL_Driver/Src/stm32f1xx_hal_spi.c ****         {
1238:Drivers/STM32F1xx_HAL_Driver/Src/stm32f1xx_hal_spi.c ****           SET_BIT(hspi->Instance->CR1, SPI_CR1_CRCNEXT);
1239:Drivers/STM32F1xx_HAL_Driver/Src/stm32f1xx_hal_spi.c ****         }
1240:Drivers/STM32F1xx_HAL_Driver/Src/stm32f1xx_hal_spi.c **** #endif /* USE_SPI_CRC */
1241:Drivers/STM32F1xx_HAL_Driver/Src/stm32f1xx_hal_spi.c ****       }
1242:Drivers/STM32F1xx_HAL_Driver/Src/stm32f1xx_hal_spi.c **** 
1243:Drivers/STM32F1xx_HAL_Driver/Src/stm32f1xx_hal_spi.c ****       /* Check RXNE flag */
1244:Drivers/STM32F1xx_HAL_Driver/Src/stm32f1xx_hal_spi.c ****       if ((__HAL_SPI_GET_FLAG(hspi, SPI_FLAG_RXNE)) && (hspi->RxXferCount > 0U))
 1420              		.loc 1 1244 12
 1421 0176 FB68     		ldr	r3, [r7, #12]
 1422 0178 1B68     		ldr	r3, [r3]
 1423 017a 9B68     		ldr	r3, [r3, #8]
 1424 017c 03F00103 		and	r3, r3, #1
 1425              		.loc 1 1244 10
 1426 0180 012B     		cmp	r3, #1
 1427 0182 19D1     		bne	.L77
 1428              		.loc 1 1244 61 discriminator 1
 1429 0184 FB68     		ldr	r3, [r7, #12]
 1430 0186 DB8F     		ldrh	r3, [r3, #62]	@ movhi
 1431 0188 9BB2     		uxth	r3, r3
 1432              		.loc 1 1244 53 discriminator 1
 1433 018a 002B     		cmp	r3, #0
 1434 018c 14D0     		beq	.L77
1245:Drivers/STM32F1xx_HAL_Driver/Src/stm32f1xx_hal_spi.c ****       {
1246:Drivers/STM32F1xx_HAL_Driver/Src/stm32f1xx_hal_spi.c ****         *((uint16_t *)hspi->pRxBuffPtr) = (uint16_t)hspi->Instance->DR;
 1435              		.loc 1 1246 57
 1436 018e FB68     		ldr	r3, [r7, #12]
 1437 0190 1B68     		ldr	r3, [r3]
 1438              		.loc 1 1246 67
ARM GAS  C:\Users\Alex\AppData\Local\Temp\ccfYuLQH.s 			page 48


 1439 0192 DA68     		ldr	r2, [r3, #12]
 1440              		.loc 1 1246 27
 1441 0194 FB68     		ldr	r3, [r7, #12]
 1442 0196 9B6B     		ldr	r3, [r3, #56]
 1443              		.loc 1 1246 43
 1444 0198 92B2     		uxth	r2, r2
 1445              		.loc 1 1246 41
 1446 019a 1A80     		strh	r2, [r3]	@ movhi
1247:Drivers/STM32F1xx_HAL_Driver/Src/stm32f1xx_hal_spi.c ****         hspi->pRxBuffPtr += sizeof(uint16_t);
 1447              		.loc 1 1247 26
 1448 019c FB68     		ldr	r3, [r7, #12]
 1449 019e 9B6B     		ldr	r3, [r3, #56]
 1450 01a0 9A1C     		adds	r2, r3, #2
 1451 01a2 FB68     		ldr	r3, [r7, #12]
 1452 01a4 9A63     		str	r2, [r3, #56]
1248:Drivers/STM32F1xx_HAL_Driver/Src/stm32f1xx_hal_spi.c ****         hspi->RxXferCount--;
 1453              		.loc 1 1248 13
 1454 01a6 FB68     		ldr	r3, [r7, #12]
 1455 01a8 DB8F     		ldrh	r3, [r3, #62]	@ movhi
 1456 01aa 9BB2     		uxth	r3, r3
 1457              		.loc 1 1248 26
 1458 01ac 013B     		subs	r3, r3, #1
 1459 01ae 9AB2     		uxth	r2, r3
 1460 01b0 FB68     		ldr	r3, [r7, #12]
 1461 01b2 DA87     		strh	r2, [r3, #62]	@ movhi
1249:Drivers/STM32F1xx_HAL_Driver/Src/stm32f1xx_hal_spi.c ****         /* Next Data is a Transmission (Tx). Tx is allowed */
1250:Drivers/STM32F1xx_HAL_Driver/Src/stm32f1xx_hal_spi.c ****         txallowed = 1U;
 1462              		.loc 1 1250 19
 1463 01b4 0123     		movs	r3, #1
 1464 01b6 FB62     		str	r3, [r7, #44]
 1465              	.L77:
1251:Drivers/STM32F1xx_HAL_Driver/Src/stm32f1xx_hal_spi.c ****       }
1252:Drivers/STM32F1xx_HAL_Driver/Src/stm32f1xx_hal_spi.c ****       if (((HAL_GetTick() - tickstart) >=  Timeout) && (Timeout != HAL_MAX_DELAY))
 1466              		.loc 1 1252 13
 1467 01b8 FFF7FEFF 		bl	HAL_GetTick
 1468 01bc 0246     		mov	r2, r0
 1469              		.loc 1 1252 27
 1470 01be 7B6A     		ldr	r3, [r7, #36]
 1471 01c0 D31A     		subs	r3, r2, r3
 1472              		.loc 1 1252 10
 1473 01c2 BA6B     		ldr	r2, [r7, #56]
 1474 01c4 9A42     		cmp	r2, r3
 1475 01c6 07D8     		bhi	.L75
 1476              		.loc 1 1252 53 discriminator 1
 1477 01c8 BB6B     		ldr	r3, [r7, #56]
 1478 01ca B3F1FF3F 		cmp	r3, #-1
 1479 01ce 03D0     		beq	.L75
1253:Drivers/STM32F1xx_HAL_Driver/Src/stm32f1xx_hal_spi.c ****       {
1254:Drivers/STM32F1xx_HAL_Driver/Src/stm32f1xx_hal_spi.c ****         errorcode = HAL_TIMEOUT;
 1480              		.loc 1 1254 19
 1481 01d0 0323     		movs	r3, #3
 1482 01d2 87F82B30 		strb	r3, [r7, #43]
1255:Drivers/STM32F1xx_HAL_Driver/Src/stm32f1xx_hal_spi.c ****         goto error;
 1483              		.loc 1 1255 9
 1484 01d6 A7E0     		b	.L67
 1485              	.L75:
1223:Drivers/STM32F1xx_HAL_Driver/Src/stm32f1xx_hal_spi.c ****     {
ARM GAS  C:\Users\Alex\AppData\Local\Temp\ccfYuLQH.s 			page 49


 1486              		.loc 1 1223 17
 1487 01d8 FB68     		ldr	r3, [r7, #12]
 1488 01da DB8E     		ldrh	r3, [r3, #54]	@ movhi
 1489 01dc 9BB2     		uxth	r3, r3
1223:Drivers/STM32F1xx_HAL_Driver/Src/stm32f1xx_hal_spi.c ****     {
 1490              		.loc 1 1223 11
 1491 01de 002B     		cmp	r3, #0
 1492 01e0 A6D1     		bne	.L78
1223:Drivers/STM32F1xx_HAL_Driver/Src/stm32f1xx_hal_spi.c ****     {
 1493              		.loc 1 1223 45 discriminator 1
 1494 01e2 FB68     		ldr	r3, [r7, #12]
 1495 01e4 DB8F     		ldrh	r3, [r3, #62]	@ movhi
 1496 01e6 9BB2     		uxth	r3, r3
1223:Drivers/STM32F1xx_HAL_Driver/Src/stm32f1xx_hal_spi.c ****     {
 1497              		.loc 1 1223 37 discriminator 1
 1498 01e8 002B     		cmp	r3, #0
 1499 01ea A1D1     		bne	.L78
 1500 01ec 7CE0     		b	.L79
 1501              	.L72:
1256:Drivers/STM32F1xx_HAL_Driver/Src/stm32f1xx_hal_spi.c ****       }
1257:Drivers/STM32F1xx_HAL_Driver/Src/stm32f1xx_hal_spi.c ****     }
1258:Drivers/STM32F1xx_HAL_Driver/Src/stm32f1xx_hal_spi.c ****   }
1259:Drivers/STM32F1xx_HAL_Driver/Src/stm32f1xx_hal_spi.c ****   /* Transmit and Receive data in 8 Bit mode */
1260:Drivers/STM32F1xx_HAL_Driver/Src/stm32f1xx_hal_spi.c ****   else
1261:Drivers/STM32F1xx_HAL_Driver/Src/stm32f1xx_hal_spi.c ****   {
1262:Drivers/STM32F1xx_HAL_Driver/Src/stm32f1xx_hal_spi.c ****     if ((hspi->Init.Mode == SPI_MODE_SLAVE) || (initial_TxXferCount == 0x01U))
 1502              		.loc 1 1262 20
 1503 01ee FB68     		ldr	r3, [r7, #12]
 1504 01f0 5B68     		ldr	r3, [r3, #4]
 1505              		.loc 1 1262 8
 1506 01f2 002B     		cmp	r3, #0
 1507 01f4 02D0     		beq	.L80
 1508              		.loc 1 1262 45 discriminator 1
 1509 01f6 7B8B     		ldrh	r3, [r7, #26]
 1510 01f8 012B     		cmp	r3, #1
 1511 01fa 6BD1     		bne	.L82
 1512              	.L80:
1263:Drivers/STM32F1xx_HAL_Driver/Src/stm32f1xx_hal_spi.c ****     {
1264:Drivers/STM32F1xx_HAL_Driver/Src/stm32f1xx_hal_spi.c ****       *((__IO uint8_t *)&hspi->Instance->DR) = (*hspi->pTxBuffPtr);
 1513              		.loc 1 1264 54
 1514 01fc FB68     		ldr	r3, [r7, #12]
 1515 01fe 1A6B     		ldr	r2, [r3, #48]
 1516              		.loc 1 1264 30
 1517 0200 FB68     		ldr	r3, [r7, #12]
 1518 0202 1B68     		ldr	r3, [r3]
 1519              		.loc 1 1264 25
 1520 0204 0C33     		adds	r3, r3, #12
 1521              		.loc 1 1264 49
 1522 0206 1278     		ldrb	r2, [r2]	@ zero_extendqisi2
 1523              		.loc 1 1264 46
 1524 0208 1A70     		strb	r2, [r3]
1265:Drivers/STM32F1xx_HAL_Driver/Src/stm32f1xx_hal_spi.c ****       hspi->pTxBuffPtr += sizeof(uint8_t);
 1525              		.loc 1 1265 24
 1526 020a FB68     		ldr	r3, [r7, #12]
 1527 020c 1B6B     		ldr	r3, [r3, #48]
 1528 020e 5A1C     		adds	r2, r3, #1
 1529 0210 FB68     		ldr	r3, [r7, #12]
ARM GAS  C:\Users\Alex\AppData\Local\Temp\ccfYuLQH.s 			page 50


 1530 0212 1A63     		str	r2, [r3, #48]
1266:Drivers/STM32F1xx_HAL_Driver/Src/stm32f1xx_hal_spi.c ****       hspi->TxXferCount--;
 1531              		.loc 1 1266 11
 1532 0214 FB68     		ldr	r3, [r7, #12]
 1533 0216 DB8E     		ldrh	r3, [r3, #54]	@ movhi
 1534 0218 9BB2     		uxth	r3, r3
 1535              		.loc 1 1266 24
 1536 021a 013B     		subs	r3, r3, #1
 1537 021c 9AB2     		uxth	r2, r3
 1538 021e FB68     		ldr	r3, [r7, #12]
 1539 0220 DA86     		strh	r2, [r3, #54]	@ movhi
1267:Drivers/STM32F1xx_HAL_Driver/Src/stm32f1xx_hal_spi.c ****     }
1268:Drivers/STM32F1xx_HAL_Driver/Src/stm32f1xx_hal_spi.c ****     while ((hspi->TxXferCount > 0U) || (hspi->RxXferCount > 0U))
 1540              		.loc 1 1268 11
 1541 0222 57E0     		b	.L82
 1542              	.L87:
1269:Drivers/STM32F1xx_HAL_Driver/Src/stm32f1xx_hal_spi.c ****     {
1270:Drivers/STM32F1xx_HAL_Driver/Src/stm32f1xx_hal_spi.c ****       /* Check TXE flag */
1271:Drivers/STM32F1xx_HAL_Driver/Src/stm32f1xx_hal_spi.c ****       if ((__HAL_SPI_GET_FLAG(hspi, SPI_FLAG_TXE)) && (hspi->TxXferCount > 0U) && (txallowed == 1U)
 1543              		.loc 1 1271 12
 1544 0224 FB68     		ldr	r3, [r7, #12]
 1545 0226 1B68     		ldr	r3, [r3]
 1546 0228 9B68     		ldr	r3, [r3, #8]
 1547 022a 03F00203 		and	r3, r3, #2
 1548              		.loc 1 1271 10
 1549 022e 022B     		cmp	r3, #2
 1550 0230 1CD1     		bne	.L83
 1551              		.loc 1 1271 60 discriminator 1
 1552 0232 FB68     		ldr	r3, [r7, #12]
 1553 0234 DB8E     		ldrh	r3, [r3, #54]	@ movhi
 1554 0236 9BB2     		uxth	r3, r3
 1555              		.loc 1 1271 52 discriminator 1
 1556 0238 002B     		cmp	r3, #0
 1557 023a 17D0     		beq	.L83
 1558              		.loc 1 1271 80 discriminator 2
 1559 023c FB6A     		ldr	r3, [r7, #44]
 1560 023e 012B     		cmp	r3, #1
 1561 0240 14D1     		bne	.L83
1272:Drivers/STM32F1xx_HAL_Driver/Src/stm32f1xx_hal_spi.c ****       {
1273:Drivers/STM32F1xx_HAL_Driver/Src/stm32f1xx_hal_spi.c ****         *(__IO uint8_t *)&hspi->Instance->DR = (*hspi->pTxBuffPtr);
 1562              		.loc 1 1273 54
 1563 0242 FB68     		ldr	r3, [r7, #12]
 1564 0244 1A6B     		ldr	r2, [r3, #48]
 1565              		.loc 1 1273 31
 1566 0246 FB68     		ldr	r3, [r7, #12]
 1567 0248 1B68     		ldr	r3, [r3]
 1568              		.loc 1 1273 26
 1569 024a 0C33     		adds	r3, r3, #12
 1570              		.loc 1 1273 49
 1571 024c 1278     		ldrb	r2, [r2]	@ zero_extendqisi2
 1572              		.loc 1 1273 46
 1573 024e 1A70     		strb	r2, [r3]
1274:Drivers/STM32F1xx_HAL_Driver/Src/stm32f1xx_hal_spi.c ****         hspi->pTxBuffPtr++;
 1574              		.loc 1 1274 13
 1575 0250 FB68     		ldr	r3, [r7, #12]
 1576 0252 1B6B     		ldr	r3, [r3, #48]
 1577              		.loc 1 1274 25
ARM GAS  C:\Users\Alex\AppData\Local\Temp\ccfYuLQH.s 			page 51


 1578 0254 5A1C     		adds	r2, r3, #1
 1579 0256 FB68     		ldr	r3, [r7, #12]
 1580 0258 1A63     		str	r2, [r3, #48]
1275:Drivers/STM32F1xx_HAL_Driver/Src/stm32f1xx_hal_spi.c ****         hspi->TxXferCount--;
 1581              		.loc 1 1275 13
 1582 025a FB68     		ldr	r3, [r7, #12]
 1583 025c DB8E     		ldrh	r3, [r3, #54]	@ movhi
 1584 025e 9BB2     		uxth	r3, r3
 1585              		.loc 1 1275 26
 1586 0260 013B     		subs	r3, r3, #1
 1587 0262 9AB2     		uxth	r2, r3
 1588 0264 FB68     		ldr	r3, [r7, #12]
 1589 0266 DA86     		strh	r2, [r3, #54]	@ movhi
1276:Drivers/STM32F1xx_HAL_Driver/Src/stm32f1xx_hal_spi.c ****         /* Next Data is a reception (Rx). Tx not allowed */
1277:Drivers/STM32F1xx_HAL_Driver/Src/stm32f1xx_hal_spi.c ****         txallowed = 0U;
 1590              		.loc 1 1277 19
 1591 0268 0023     		movs	r3, #0
 1592 026a FB62     		str	r3, [r7, #44]
 1593              	.L83:
1278:Drivers/STM32F1xx_HAL_Driver/Src/stm32f1xx_hal_spi.c **** 
1279:Drivers/STM32F1xx_HAL_Driver/Src/stm32f1xx_hal_spi.c **** #if (USE_SPI_CRC != 0U)
1280:Drivers/STM32F1xx_HAL_Driver/Src/stm32f1xx_hal_spi.c ****         /* Enable CRC Transmission */
1281:Drivers/STM32F1xx_HAL_Driver/Src/stm32f1xx_hal_spi.c ****         if ((hspi->TxXferCount == 0U) && (hspi->Init.CRCCalculation == SPI_CRCCALCULATION_ENABLE))
1282:Drivers/STM32F1xx_HAL_Driver/Src/stm32f1xx_hal_spi.c ****         {
1283:Drivers/STM32F1xx_HAL_Driver/Src/stm32f1xx_hal_spi.c ****           SET_BIT(hspi->Instance->CR1, SPI_CR1_CRCNEXT);
1284:Drivers/STM32F1xx_HAL_Driver/Src/stm32f1xx_hal_spi.c ****         }
1285:Drivers/STM32F1xx_HAL_Driver/Src/stm32f1xx_hal_spi.c **** #endif /* USE_SPI_CRC */
1286:Drivers/STM32F1xx_HAL_Driver/Src/stm32f1xx_hal_spi.c ****       }
1287:Drivers/STM32F1xx_HAL_Driver/Src/stm32f1xx_hal_spi.c **** 
1288:Drivers/STM32F1xx_HAL_Driver/Src/stm32f1xx_hal_spi.c ****       /* Wait until RXNE flag is reset */
1289:Drivers/STM32F1xx_HAL_Driver/Src/stm32f1xx_hal_spi.c ****       if ((__HAL_SPI_GET_FLAG(hspi, SPI_FLAG_RXNE)) && (hspi->RxXferCount > 0U))
 1594              		.loc 1 1289 12
 1595 026c FB68     		ldr	r3, [r7, #12]
 1596 026e 1B68     		ldr	r3, [r3]
 1597 0270 9B68     		ldr	r3, [r3, #8]
 1598 0272 03F00103 		and	r3, r3, #1
 1599              		.loc 1 1289 10
 1600 0276 012B     		cmp	r3, #1
 1601 0278 19D1     		bne	.L84
 1602              		.loc 1 1289 61 discriminator 1
 1603 027a FB68     		ldr	r3, [r7, #12]
 1604 027c DB8F     		ldrh	r3, [r3, #62]	@ movhi
 1605 027e 9BB2     		uxth	r3, r3
 1606              		.loc 1 1289 53 discriminator 1
 1607 0280 002B     		cmp	r3, #0
 1608 0282 14D0     		beq	.L84
1290:Drivers/STM32F1xx_HAL_Driver/Src/stm32f1xx_hal_spi.c ****       {
1291:Drivers/STM32F1xx_HAL_Driver/Src/stm32f1xx_hal_spi.c ****         (*(uint8_t *)hspi->pRxBuffPtr) = hspi->Instance->DR;
 1609              		.loc 1 1291 46
 1610 0284 FB68     		ldr	r3, [r7, #12]
 1611 0286 1B68     		ldr	r3, [r3]
 1612              		.loc 1 1291 56
 1613 0288 DA68     		ldr	r2, [r3, #12]
 1614              		.loc 1 1291 26
 1615 028a FB68     		ldr	r3, [r7, #12]
 1616 028c 9B6B     		ldr	r3, [r3, #56]
 1617              		.loc 1 1291 40
ARM GAS  C:\Users\Alex\AppData\Local\Temp\ccfYuLQH.s 			page 52


 1618 028e D2B2     		uxtb	r2, r2
 1619 0290 1A70     		strb	r2, [r3]
1292:Drivers/STM32F1xx_HAL_Driver/Src/stm32f1xx_hal_spi.c ****         hspi->pRxBuffPtr++;
 1620              		.loc 1 1292 13
 1621 0292 FB68     		ldr	r3, [r7, #12]
 1622 0294 9B6B     		ldr	r3, [r3, #56]
 1623              		.loc 1 1292 25
 1624 0296 5A1C     		adds	r2, r3, #1
 1625 0298 FB68     		ldr	r3, [r7, #12]
 1626 029a 9A63     		str	r2, [r3, #56]
1293:Drivers/STM32F1xx_HAL_Driver/Src/stm32f1xx_hal_spi.c ****         hspi->RxXferCount--;
 1627              		.loc 1 1293 13
 1628 029c FB68     		ldr	r3, [r7, #12]
 1629 029e DB8F     		ldrh	r3, [r3, #62]	@ movhi
 1630 02a0 9BB2     		uxth	r3, r3
 1631              		.loc 1 1293 26
 1632 02a2 013B     		subs	r3, r3, #1
 1633 02a4 9AB2     		uxth	r2, r3
 1634 02a6 FB68     		ldr	r3, [r7, #12]
 1635 02a8 DA87     		strh	r2, [r3, #62]	@ movhi
1294:Drivers/STM32F1xx_HAL_Driver/Src/stm32f1xx_hal_spi.c ****         /* Next Data is a Transmission (Tx). Tx is allowed */
1295:Drivers/STM32F1xx_HAL_Driver/Src/stm32f1xx_hal_spi.c ****         txallowed = 1U;
 1636              		.loc 1 1295 19
 1637 02aa 0123     		movs	r3, #1
 1638 02ac FB62     		str	r3, [r7, #44]
 1639              	.L84:
1296:Drivers/STM32F1xx_HAL_Driver/Src/stm32f1xx_hal_spi.c ****       }
1297:Drivers/STM32F1xx_HAL_Driver/Src/stm32f1xx_hal_spi.c ****       if ((((HAL_GetTick() - tickstart) >=  Timeout) && ((Timeout != HAL_MAX_DELAY))) || (Timeout =
 1640              		.loc 1 1297 14
 1641 02ae FFF7FEFF 		bl	HAL_GetTick
 1642 02b2 0246     		mov	r2, r0
 1643              		.loc 1 1297 28
 1644 02b4 7B6A     		ldr	r3, [r7, #36]
 1645 02b6 D31A     		subs	r3, r2, r3
 1646              		.loc 1 1297 10
 1647 02b8 BA6B     		ldr	r2, [r7, #56]
 1648 02ba 9A42     		cmp	r2, r3
 1649 02bc 03D8     		bhi	.L85
 1650              		.loc 1 1297 54 discriminator 1
 1651 02be BB6B     		ldr	r3, [r7, #56]
 1652 02c0 B3F1FF3F 		cmp	r3, #-1
 1653 02c4 02D1     		bne	.L86
 1654              	.L85:
 1655              		.loc 1 1297 87 discriminator 3
 1656 02c6 BB6B     		ldr	r3, [r7, #56]
 1657 02c8 002B     		cmp	r3, #0
 1658 02ca 03D1     		bne	.L82
 1659              	.L86:
1298:Drivers/STM32F1xx_HAL_Driver/Src/stm32f1xx_hal_spi.c ****       {
1299:Drivers/STM32F1xx_HAL_Driver/Src/stm32f1xx_hal_spi.c ****         errorcode = HAL_TIMEOUT;
 1660              		.loc 1 1299 19
 1661 02cc 0323     		movs	r3, #3
 1662 02ce 87F82B30 		strb	r3, [r7, #43]
1300:Drivers/STM32F1xx_HAL_Driver/Src/stm32f1xx_hal_spi.c ****         goto error;
 1663              		.loc 1 1300 9
 1664 02d2 29E0     		b	.L67
 1665              	.L82:
ARM GAS  C:\Users\Alex\AppData\Local\Temp\ccfYuLQH.s 			page 53


1268:Drivers/STM32F1xx_HAL_Driver/Src/stm32f1xx_hal_spi.c ****     {
 1666              		.loc 1 1268 17
 1667 02d4 FB68     		ldr	r3, [r7, #12]
 1668 02d6 DB8E     		ldrh	r3, [r3, #54]	@ movhi
 1669 02d8 9BB2     		uxth	r3, r3
1268:Drivers/STM32F1xx_HAL_Driver/Src/stm32f1xx_hal_spi.c ****     {
 1670              		.loc 1 1268 11
 1671 02da 002B     		cmp	r3, #0
 1672 02dc A2D1     		bne	.L87
1268:Drivers/STM32F1xx_HAL_Driver/Src/stm32f1xx_hal_spi.c ****     {
 1673              		.loc 1 1268 45 discriminator 1
 1674 02de FB68     		ldr	r3, [r7, #12]
 1675 02e0 DB8F     		ldrh	r3, [r3, #62]	@ movhi
 1676 02e2 9BB2     		uxth	r3, r3
1268:Drivers/STM32F1xx_HAL_Driver/Src/stm32f1xx_hal_spi.c ****     {
 1677              		.loc 1 1268 37 discriminator 1
 1678 02e4 002B     		cmp	r3, #0
 1679 02e6 9DD1     		bne	.L87
 1680              	.L79:
1301:Drivers/STM32F1xx_HAL_Driver/Src/stm32f1xx_hal_spi.c ****       }
1302:Drivers/STM32F1xx_HAL_Driver/Src/stm32f1xx_hal_spi.c ****     }
1303:Drivers/STM32F1xx_HAL_Driver/Src/stm32f1xx_hal_spi.c ****   }
1304:Drivers/STM32F1xx_HAL_Driver/Src/stm32f1xx_hal_spi.c **** 
1305:Drivers/STM32F1xx_HAL_Driver/Src/stm32f1xx_hal_spi.c **** #if (USE_SPI_CRC != 0U)
1306:Drivers/STM32F1xx_HAL_Driver/Src/stm32f1xx_hal_spi.c ****   /* Read CRC from DR to close CRC calculation process */
1307:Drivers/STM32F1xx_HAL_Driver/Src/stm32f1xx_hal_spi.c ****   if (hspi->Init.CRCCalculation == SPI_CRCCALCULATION_ENABLE)
1308:Drivers/STM32F1xx_HAL_Driver/Src/stm32f1xx_hal_spi.c ****   {
1309:Drivers/STM32F1xx_HAL_Driver/Src/stm32f1xx_hal_spi.c ****     /* Wait until TXE flag */
1310:Drivers/STM32F1xx_HAL_Driver/Src/stm32f1xx_hal_spi.c ****     if (SPI_WaitFlagStateUntilTimeout(hspi, SPI_FLAG_RXNE, SET, Timeout, tickstart) != HAL_OK)
1311:Drivers/STM32F1xx_HAL_Driver/Src/stm32f1xx_hal_spi.c ****     {
1312:Drivers/STM32F1xx_HAL_Driver/Src/stm32f1xx_hal_spi.c ****       /* Error on the CRC reception */
1313:Drivers/STM32F1xx_HAL_Driver/Src/stm32f1xx_hal_spi.c ****       SET_BIT(hspi->ErrorCode, HAL_SPI_ERROR_CRC);
1314:Drivers/STM32F1xx_HAL_Driver/Src/stm32f1xx_hal_spi.c ****       errorcode = HAL_TIMEOUT;
1315:Drivers/STM32F1xx_HAL_Driver/Src/stm32f1xx_hal_spi.c ****       goto error;
1316:Drivers/STM32F1xx_HAL_Driver/Src/stm32f1xx_hal_spi.c ****     }
1317:Drivers/STM32F1xx_HAL_Driver/Src/stm32f1xx_hal_spi.c ****     /* Read CRC */
1318:Drivers/STM32F1xx_HAL_Driver/Src/stm32f1xx_hal_spi.c ****     READ_REG(hspi->Instance->DR);
1319:Drivers/STM32F1xx_HAL_Driver/Src/stm32f1xx_hal_spi.c ****   }
1320:Drivers/STM32F1xx_HAL_Driver/Src/stm32f1xx_hal_spi.c **** 
1321:Drivers/STM32F1xx_HAL_Driver/Src/stm32f1xx_hal_spi.c ****   /* Check if CRC error occurred */
1322:Drivers/STM32F1xx_HAL_Driver/Src/stm32f1xx_hal_spi.c ****   if (__HAL_SPI_GET_FLAG(hspi, SPI_FLAG_CRCERR) != RESET)
1323:Drivers/STM32F1xx_HAL_Driver/Src/stm32f1xx_hal_spi.c ****   {
1324:Drivers/STM32F1xx_HAL_Driver/Src/stm32f1xx_hal_spi.c ****     /* Check if CRC error is valid or not (workaround to be applied or not) */
1325:Drivers/STM32F1xx_HAL_Driver/Src/stm32f1xx_hal_spi.c ****     if (SPI_ISCRCErrorValid(hspi) == SPI_VALID_CRC_ERROR)
1326:Drivers/STM32F1xx_HAL_Driver/Src/stm32f1xx_hal_spi.c ****     {
1327:Drivers/STM32F1xx_HAL_Driver/Src/stm32f1xx_hal_spi.c ****       SET_BIT(hspi->ErrorCode, HAL_SPI_ERROR_CRC);
1328:Drivers/STM32F1xx_HAL_Driver/Src/stm32f1xx_hal_spi.c **** 
1329:Drivers/STM32F1xx_HAL_Driver/Src/stm32f1xx_hal_spi.c ****       /* Reset CRC Calculation */
1330:Drivers/STM32F1xx_HAL_Driver/Src/stm32f1xx_hal_spi.c ****       SPI_RESET_CRC(hspi);
1331:Drivers/STM32F1xx_HAL_Driver/Src/stm32f1xx_hal_spi.c **** 
1332:Drivers/STM32F1xx_HAL_Driver/Src/stm32f1xx_hal_spi.c ****       errorcode = HAL_ERROR;
1333:Drivers/STM32F1xx_HAL_Driver/Src/stm32f1xx_hal_spi.c ****     }
1334:Drivers/STM32F1xx_HAL_Driver/Src/stm32f1xx_hal_spi.c ****     else
1335:Drivers/STM32F1xx_HAL_Driver/Src/stm32f1xx_hal_spi.c ****     {
1336:Drivers/STM32F1xx_HAL_Driver/Src/stm32f1xx_hal_spi.c ****       __HAL_SPI_CLEAR_CRCERRFLAG(hspi);
1337:Drivers/STM32F1xx_HAL_Driver/Src/stm32f1xx_hal_spi.c ****     }
1338:Drivers/STM32F1xx_HAL_Driver/Src/stm32f1xx_hal_spi.c ****   }
ARM GAS  C:\Users\Alex\AppData\Local\Temp\ccfYuLQH.s 			page 54


1339:Drivers/STM32F1xx_HAL_Driver/Src/stm32f1xx_hal_spi.c **** #endif /* USE_SPI_CRC */
1340:Drivers/STM32F1xx_HAL_Driver/Src/stm32f1xx_hal_spi.c **** 
1341:Drivers/STM32F1xx_HAL_Driver/Src/stm32f1xx_hal_spi.c ****   /* Check the end of the transaction */
1342:Drivers/STM32F1xx_HAL_Driver/Src/stm32f1xx_hal_spi.c ****   if (SPI_EndRxTxTransaction(hspi, Timeout, tickstart) != HAL_OK)
 1681              		.loc 1 1342 7
 1682 02e8 7A6A     		ldr	r2, [r7, #36]
 1683 02ea B96B     		ldr	r1, [r7, #56]
 1684 02ec F868     		ldr	r0, [r7, #12]
 1685 02ee FFF7FEFF 		bl	SPI_EndRxTxTransaction
 1686 02f2 0346     		mov	r3, r0
 1687              		.loc 1 1342 6
 1688 02f4 002B     		cmp	r3, #0
 1689 02f6 06D0     		beq	.L88
1343:Drivers/STM32F1xx_HAL_Driver/Src/stm32f1xx_hal_spi.c ****   {
1344:Drivers/STM32F1xx_HAL_Driver/Src/stm32f1xx_hal_spi.c ****     errorcode = HAL_ERROR;
 1690              		.loc 1 1344 15
 1691 02f8 0123     		movs	r3, #1
 1692 02fa 87F82B30 		strb	r3, [r7, #43]
1345:Drivers/STM32F1xx_HAL_Driver/Src/stm32f1xx_hal_spi.c ****     hspi->ErrorCode = HAL_SPI_ERROR_FLAG;
 1693              		.loc 1 1345 21
 1694 02fe FB68     		ldr	r3, [r7, #12]
 1695 0300 2022     		movs	r2, #32
 1696 0302 5A65     		str	r2, [r3, #84]
1346:Drivers/STM32F1xx_HAL_Driver/Src/stm32f1xx_hal_spi.c ****     goto error;
 1697              		.loc 1 1346 5
 1698 0304 10E0     		b	.L67
 1699              	.L88:
1347:Drivers/STM32F1xx_HAL_Driver/Src/stm32f1xx_hal_spi.c ****   }
1348:Drivers/STM32F1xx_HAL_Driver/Src/stm32f1xx_hal_spi.c **** 
1349:Drivers/STM32F1xx_HAL_Driver/Src/stm32f1xx_hal_spi.c ****   /* Clear overrun flag in 2 Lines communication mode because received is not read */
1350:Drivers/STM32F1xx_HAL_Driver/Src/stm32f1xx_hal_spi.c ****   if (hspi->Init.Direction == SPI_DIRECTION_2LINES)
 1700              		.loc 1 1350 17
 1701 0306 FB68     		ldr	r3, [r7, #12]
 1702 0308 9B68     		ldr	r3, [r3, #8]
 1703              		.loc 1 1350 6
 1704 030a 002B     		cmp	r3, #0
 1705 030c 0BD1     		bne	.L89
 1706              	.LBB3:
1351:Drivers/STM32F1xx_HAL_Driver/Src/stm32f1xx_hal_spi.c ****   {
1352:Drivers/STM32F1xx_HAL_Driver/Src/stm32f1xx_hal_spi.c ****     __HAL_SPI_CLEAR_OVRFLAG(hspi);
 1707              		.loc 1 1352 5
 1708 030e 0023     		movs	r3, #0
 1709 0310 7B61     		str	r3, [r7, #20]
 1710 0312 FB68     		ldr	r3, [r7, #12]
 1711 0314 1B68     		ldr	r3, [r3]
 1712 0316 DB68     		ldr	r3, [r3, #12]
 1713 0318 7B61     		str	r3, [r7, #20]
 1714 031a FB68     		ldr	r3, [r7, #12]
 1715 031c 1B68     		ldr	r3, [r3]
 1716 031e 9B68     		ldr	r3, [r3, #8]
 1717 0320 7B61     		str	r3, [r7, #20]
 1718 0322 7B69     		ldr	r3, [r7, #20]
 1719 0324 00E0     		b	.L67
 1720              	.L89:
 1721              	.LBE3:
1353:Drivers/STM32F1xx_HAL_Driver/Src/stm32f1xx_hal_spi.c ****   }
1354:Drivers/STM32F1xx_HAL_Driver/Src/stm32f1xx_hal_spi.c **** 
ARM GAS  C:\Users\Alex\AppData\Local\Temp\ccfYuLQH.s 			page 55


1355:Drivers/STM32F1xx_HAL_Driver/Src/stm32f1xx_hal_spi.c **** error :
 1722              		.loc 1 1355 1
 1723 0326 00BF     		nop
 1724              	.L67:
1356:Drivers/STM32F1xx_HAL_Driver/Src/stm32f1xx_hal_spi.c ****   hspi->State = HAL_SPI_STATE_READY;
 1725              		.loc 1 1356 15
 1726 0328 FB68     		ldr	r3, [r7, #12]
 1727 032a 0122     		movs	r2, #1
 1728 032c 83F85120 		strb	r2, [r3, #81]
1357:Drivers/STM32F1xx_HAL_Driver/Src/stm32f1xx_hal_spi.c ****   __HAL_UNLOCK(hspi);
 1729              		.loc 1 1357 3
 1730 0330 FB68     		ldr	r3, [r7, #12]
 1731 0332 0022     		movs	r2, #0
 1732 0334 83F85020 		strb	r2, [r3, #80]
1358:Drivers/STM32F1xx_HAL_Driver/Src/stm32f1xx_hal_spi.c ****   return errorcode;
 1733              		.loc 1 1358 10
 1734 0338 97F82B30 		ldrb	r3, [r7, #43]	@ zero_extendqisi2
 1735              	.L64:
1359:Drivers/STM32F1xx_HAL_Driver/Src/stm32f1xx_hal_spi.c **** }
 1736              		.loc 1 1359 1
 1737 033c 1846     		mov	r0, r3
 1738 033e 3037     		adds	r7, r7, #48
 1739              	.LCFI35:
 1740              		.cfi_def_cfa_offset 8
 1741 0340 BD46     		mov	sp, r7
 1742              	.LCFI36:
 1743              		.cfi_def_cfa_register 13
 1744              		@ sp needed
 1745 0342 80BD     		pop	{r7, pc}
 1746              		.cfi_endproc
 1747              	.LFE71:
 1749              		.section	.text.HAL_SPI_Transmit_IT,"ax",%progbits
 1750              		.align	1
 1751              		.global	HAL_SPI_Transmit_IT
 1752              		.syntax unified
 1753              		.thumb
 1754              		.thumb_func
 1755              		.fpu softvfp
 1757              	HAL_SPI_Transmit_IT:
 1758              	.LFB72:
1360:Drivers/STM32F1xx_HAL_Driver/Src/stm32f1xx_hal_spi.c **** 
1361:Drivers/STM32F1xx_HAL_Driver/Src/stm32f1xx_hal_spi.c **** /**
1362:Drivers/STM32F1xx_HAL_Driver/Src/stm32f1xx_hal_spi.c ****   * @brief  Transmit an amount of data in non-blocking mode with Interrupt.
1363:Drivers/STM32F1xx_HAL_Driver/Src/stm32f1xx_hal_spi.c ****   * @param  hspi pointer to a SPI_HandleTypeDef structure that contains
1364:Drivers/STM32F1xx_HAL_Driver/Src/stm32f1xx_hal_spi.c ****   *               the configuration information for SPI module.
1365:Drivers/STM32F1xx_HAL_Driver/Src/stm32f1xx_hal_spi.c ****   * @param  pData pointer to data buffer
1366:Drivers/STM32F1xx_HAL_Driver/Src/stm32f1xx_hal_spi.c ****   * @param  Size amount of data to be sent
1367:Drivers/STM32F1xx_HAL_Driver/Src/stm32f1xx_hal_spi.c ****   * @retval HAL status
1368:Drivers/STM32F1xx_HAL_Driver/Src/stm32f1xx_hal_spi.c ****   */
1369:Drivers/STM32F1xx_HAL_Driver/Src/stm32f1xx_hal_spi.c **** HAL_StatusTypeDef HAL_SPI_Transmit_IT(SPI_HandleTypeDef *hspi, uint8_t *pData, uint16_t Size)
1370:Drivers/STM32F1xx_HAL_Driver/Src/stm32f1xx_hal_spi.c **** {
 1759              		.loc 1 1370 1
 1760              		.cfi_startproc
 1761              		@ args = 0, pretend = 0, frame = 24
 1762              		@ frame_needed = 1, uses_anonymous_args = 0
 1763              		@ link register save eliminated.
 1764 0000 80B4     		push	{r7}
ARM GAS  C:\Users\Alex\AppData\Local\Temp\ccfYuLQH.s 			page 56


 1765              	.LCFI37:
 1766              		.cfi_def_cfa_offset 4
 1767              		.cfi_offset 7, -4
 1768 0002 87B0     		sub	sp, sp, #28
 1769              	.LCFI38:
 1770              		.cfi_def_cfa_offset 32
 1771 0004 00AF     		add	r7, sp, #0
 1772              	.LCFI39:
 1773              		.cfi_def_cfa_register 7
 1774 0006 F860     		str	r0, [r7, #12]
 1775 0008 B960     		str	r1, [r7, #8]
 1776 000a 1346     		mov	r3, r2
 1777 000c FB80     		strh	r3, [r7, #6]	@ movhi
1371:Drivers/STM32F1xx_HAL_Driver/Src/stm32f1xx_hal_spi.c ****   HAL_StatusTypeDef errorcode = HAL_OK;
 1778              		.loc 1 1371 21
 1779 000e 0023     		movs	r3, #0
 1780 0010 FB75     		strb	r3, [r7, #23]
1372:Drivers/STM32F1xx_HAL_Driver/Src/stm32f1xx_hal_spi.c **** 
1373:Drivers/STM32F1xx_HAL_Driver/Src/stm32f1xx_hal_spi.c ****   /* Check Direction parameter */
1374:Drivers/STM32F1xx_HAL_Driver/Src/stm32f1xx_hal_spi.c ****   assert_param(IS_SPI_DIRECTION_2LINES_OR_1LINE(hspi->Init.Direction));
1375:Drivers/STM32F1xx_HAL_Driver/Src/stm32f1xx_hal_spi.c **** 
1376:Drivers/STM32F1xx_HAL_Driver/Src/stm32f1xx_hal_spi.c ****   /* Process Locked */
1377:Drivers/STM32F1xx_HAL_Driver/Src/stm32f1xx_hal_spi.c ****   __HAL_LOCK(hspi);
 1781              		.loc 1 1377 3
 1782 0012 FB68     		ldr	r3, [r7, #12]
 1783 0014 93F85030 		ldrb	r3, [r3, #80]	@ zero_extendqisi2
 1784 0018 012B     		cmp	r3, #1
 1785 001a 01D1     		bne	.L91
 1786              		.loc 1 1377 3 is_stmt 0 discriminator 1
 1787 001c 0223     		movs	r3, #2
 1788 001e 67E0     		b	.L92
 1789              	.L91:
 1790              		.loc 1 1377 3 discriminator 2
 1791 0020 FB68     		ldr	r3, [r7, #12]
 1792 0022 0122     		movs	r2, #1
 1793 0024 83F85020 		strb	r2, [r3, #80]
1378:Drivers/STM32F1xx_HAL_Driver/Src/stm32f1xx_hal_spi.c **** 
1379:Drivers/STM32F1xx_HAL_Driver/Src/stm32f1xx_hal_spi.c ****   if ((pData == NULL) || (Size == 0U))
 1794              		.loc 1 1379 6 is_stmt 1 discriminator 2
 1795 0028 BB68     		ldr	r3, [r7, #8]
 1796 002a 002B     		cmp	r3, #0
 1797 002c 02D0     		beq	.L93
 1798              		.loc 1 1379 23 discriminator 1
 1799 002e FB88     		ldrh	r3, [r7, #6]
 1800 0030 002B     		cmp	r3, #0
 1801 0032 02D1     		bne	.L94
 1802              	.L93:
1380:Drivers/STM32F1xx_HAL_Driver/Src/stm32f1xx_hal_spi.c ****   {
1381:Drivers/STM32F1xx_HAL_Driver/Src/stm32f1xx_hal_spi.c ****     errorcode = HAL_ERROR;
 1803              		.loc 1 1381 15
 1804 0034 0123     		movs	r3, #1
 1805 0036 FB75     		strb	r3, [r7, #23]
1382:Drivers/STM32F1xx_HAL_Driver/Src/stm32f1xx_hal_spi.c ****     goto error;
 1806              		.loc 1 1382 5
 1807 0038 55E0     		b	.L95
 1808              	.L94:
1383:Drivers/STM32F1xx_HAL_Driver/Src/stm32f1xx_hal_spi.c ****   }
ARM GAS  C:\Users\Alex\AppData\Local\Temp\ccfYuLQH.s 			page 57


1384:Drivers/STM32F1xx_HAL_Driver/Src/stm32f1xx_hal_spi.c **** 
1385:Drivers/STM32F1xx_HAL_Driver/Src/stm32f1xx_hal_spi.c ****   if (hspi->State != HAL_SPI_STATE_READY)
 1809              		.loc 1 1385 11
 1810 003a FB68     		ldr	r3, [r7, #12]
 1811 003c 93F85130 		ldrb	r3, [r3, #81]
 1812 0040 DBB2     		uxtb	r3, r3
 1813              		.loc 1 1385 6
 1814 0042 012B     		cmp	r3, #1
 1815 0044 02D0     		beq	.L96
1386:Drivers/STM32F1xx_HAL_Driver/Src/stm32f1xx_hal_spi.c ****   {
1387:Drivers/STM32F1xx_HAL_Driver/Src/stm32f1xx_hal_spi.c ****     errorcode = HAL_BUSY;
 1816              		.loc 1 1387 15
 1817 0046 0223     		movs	r3, #2
 1818 0048 FB75     		strb	r3, [r7, #23]
1388:Drivers/STM32F1xx_HAL_Driver/Src/stm32f1xx_hal_spi.c ****     goto error;
 1819              		.loc 1 1388 5
 1820 004a 4CE0     		b	.L95
 1821              	.L96:
1389:Drivers/STM32F1xx_HAL_Driver/Src/stm32f1xx_hal_spi.c ****   }
1390:Drivers/STM32F1xx_HAL_Driver/Src/stm32f1xx_hal_spi.c **** 
1391:Drivers/STM32F1xx_HAL_Driver/Src/stm32f1xx_hal_spi.c ****   /* Set the transaction information */
1392:Drivers/STM32F1xx_HAL_Driver/Src/stm32f1xx_hal_spi.c ****   hspi->State       = HAL_SPI_STATE_BUSY_TX;
 1822              		.loc 1 1392 21
 1823 004c FB68     		ldr	r3, [r7, #12]
 1824 004e 0322     		movs	r2, #3
 1825 0050 83F85120 		strb	r2, [r3, #81]
1393:Drivers/STM32F1xx_HAL_Driver/Src/stm32f1xx_hal_spi.c ****   hspi->ErrorCode   = HAL_SPI_ERROR_NONE;
 1826              		.loc 1 1393 21
 1827 0054 FB68     		ldr	r3, [r7, #12]
 1828 0056 0022     		movs	r2, #0
 1829 0058 5A65     		str	r2, [r3, #84]
1394:Drivers/STM32F1xx_HAL_Driver/Src/stm32f1xx_hal_spi.c ****   hspi->pTxBuffPtr  = (uint8_t *)pData;
 1830              		.loc 1 1394 21
 1831 005a FB68     		ldr	r3, [r7, #12]
 1832 005c BA68     		ldr	r2, [r7, #8]
 1833 005e 1A63     		str	r2, [r3, #48]
1395:Drivers/STM32F1xx_HAL_Driver/Src/stm32f1xx_hal_spi.c ****   hspi->TxXferSize  = Size;
 1834              		.loc 1 1395 21
 1835 0060 FB68     		ldr	r3, [r7, #12]
 1836 0062 FA88     		ldrh	r2, [r7, #6]	@ movhi
 1837 0064 9A86     		strh	r2, [r3, #52]	@ movhi
1396:Drivers/STM32F1xx_HAL_Driver/Src/stm32f1xx_hal_spi.c ****   hspi->TxXferCount = Size;
 1838              		.loc 1 1396 21
 1839 0066 FB68     		ldr	r3, [r7, #12]
 1840 0068 FA88     		ldrh	r2, [r7, #6]	@ movhi
 1841 006a DA86     		strh	r2, [r3, #54]	@ movhi
1397:Drivers/STM32F1xx_HAL_Driver/Src/stm32f1xx_hal_spi.c **** 
1398:Drivers/STM32F1xx_HAL_Driver/Src/stm32f1xx_hal_spi.c ****   /* Init field not used in handle to zero */
1399:Drivers/STM32F1xx_HAL_Driver/Src/stm32f1xx_hal_spi.c ****   hspi->pRxBuffPtr  = (uint8_t *)NULL;
 1842              		.loc 1 1399 21
 1843 006c FB68     		ldr	r3, [r7, #12]
 1844 006e 0022     		movs	r2, #0
 1845 0070 9A63     		str	r2, [r3, #56]
1400:Drivers/STM32F1xx_HAL_Driver/Src/stm32f1xx_hal_spi.c ****   hspi->RxXferSize  = 0U;
 1846              		.loc 1 1400 21
 1847 0072 FB68     		ldr	r3, [r7, #12]
 1848 0074 0022     		movs	r2, #0
ARM GAS  C:\Users\Alex\AppData\Local\Temp\ccfYuLQH.s 			page 58


 1849 0076 9A87     		strh	r2, [r3, #60]	@ movhi
1401:Drivers/STM32F1xx_HAL_Driver/Src/stm32f1xx_hal_spi.c ****   hspi->RxXferCount = 0U;
 1850              		.loc 1 1401 21
 1851 0078 FB68     		ldr	r3, [r7, #12]
 1852 007a 0022     		movs	r2, #0
 1853 007c DA87     		strh	r2, [r3, #62]	@ movhi
1402:Drivers/STM32F1xx_HAL_Driver/Src/stm32f1xx_hal_spi.c ****   hspi->RxISR       = NULL;
 1854              		.loc 1 1402 21
 1855 007e FB68     		ldr	r3, [r7, #12]
 1856 0080 0022     		movs	r2, #0
 1857 0082 1A64     		str	r2, [r3, #64]
1403:Drivers/STM32F1xx_HAL_Driver/Src/stm32f1xx_hal_spi.c **** 
1404:Drivers/STM32F1xx_HAL_Driver/Src/stm32f1xx_hal_spi.c ****   /* Set the function for IT treatment */
1405:Drivers/STM32F1xx_HAL_Driver/Src/stm32f1xx_hal_spi.c ****   if (hspi->Init.DataSize > SPI_DATASIZE_8BIT)
 1858              		.loc 1 1405 17
 1859 0084 FB68     		ldr	r3, [r7, #12]
 1860 0086 DB68     		ldr	r3, [r3, #12]
 1861              		.loc 1 1405 6
 1862 0088 002B     		cmp	r3, #0
 1863 008a 03D0     		beq	.L97
1406:Drivers/STM32F1xx_HAL_Driver/Src/stm32f1xx_hal_spi.c ****   {
1407:Drivers/STM32F1xx_HAL_Driver/Src/stm32f1xx_hal_spi.c ****     hspi->TxISR = SPI_TxISR_16BIT;
 1864              		.loc 1 1407 17
 1865 008c FB68     		ldr	r3, [r7, #12]
 1866 008e 1B4A     		ldr	r2, .L101
 1867 0090 5A64     		str	r2, [r3, #68]
 1868 0092 02E0     		b	.L98
 1869              	.L97:
1408:Drivers/STM32F1xx_HAL_Driver/Src/stm32f1xx_hal_spi.c ****   }
1409:Drivers/STM32F1xx_HAL_Driver/Src/stm32f1xx_hal_spi.c ****   else
1410:Drivers/STM32F1xx_HAL_Driver/Src/stm32f1xx_hal_spi.c ****   {
1411:Drivers/STM32F1xx_HAL_Driver/Src/stm32f1xx_hal_spi.c ****     hspi->TxISR = SPI_TxISR_8BIT;
 1870              		.loc 1 1411 17
 1871 0094 FB68     		ldr	r3, [r7, #12]
 1872 0096 1A4A     		ldr	r2, .L101+4
 1873 0098 5A64     		str	r2, [r3, #68]
 1874              	.L98:
1412:Drivers/STM32F1xx_HAL_Driver/Src/stm32f1xx_hal_spi.c ****   }
1413:Drivers/STM32F1xx_HAL_Driver/Src/stm32f1xx_hal_spi.c **** 
1414:Drivers/STM32F1xx_HAL_Driver/Src/stm32f1xx_hal_spi.c ****   /* Configure communication direction : 1Line */
1415:Drivers/STM32F1xx_HAL_Driver/Src/stm32f1xx_hal_spi.c ****   if (hspi->Init.Direction == SPI_DIRECTION_1LINE)
 1875              		.loc 1 1415 17
 1876 009a FB68     		ldr	r3, [r7, #12]
 1877 009c 9B68     		ldr	r3, [r3, #8]
 1878              		.loc 1 1415 6
 1879 009e B3F5004F 		cmp	r3, #32768
 1880 00a2 07D1     		bne	.L99
1416:Drivers/STM32F1xx_HAL_Driver/Src/stm32f1xx_hal_spi.c ****   {
1417:Drivers/STM32F1xx_HAL_Driver/Src/stm32f1xx_hal_spi.c ****     SPI_1LINE_TX(hspi);
 1881              		.loc 1 1417 5
 1882 00a4 FB68     		ldr	r3, [r7, #12]
 1883 00a6 1B68     		ldr	r3, [r3]
 1884 00a8 1A68     		ldr	r2, [r3]
 1885 00aa FB68     		ldr	r3, [r7, #12]
 1886 00ac 1B68     		ldr	r3, [r3]
 1887 00ae 42F48042 		orr	r2, r2, #16384
 1888 00b2 1A60     		str	r2, [r3]
ARM GAS  C:\Users\Alex\AppData\Local\Temp\ccfYuLQH.s 			page 59


 1889              	.L99:
1418:Drivers/STM32F1xx_HAL_Driver/Src/stm32f1xx_hal_spi.c ****   }
1419:Drivers/STM32F1xx_HAL_Driver/Src/stm32f1xx_hal_spi.c **** 
1420:Drivers/STM32F1xx_HAL_Driver/Src/stm32f1xx_hal_spi.c **** #if (USE_SPI_CRC != 0U)
1421:Drivers/STM32F1xx_HAL_Driver/Src/stm32f1xx_hal_spi.c ****   /* Reset CRC Calculation */
1422:Drivers/STM32F1xx_HAL_Driver/Src/stm32f1xx_hal_spi.c ****   if (hspi->Init.CRCCalculation == SPI_CRCCALCULATION_ENABLE)
1423:Drivers/STM32F1xx_HAL_Driver/Src/stm32f1xx_hal_spi.c ****   {
1424:Drivers/STM32F1xx_HAL_Driver/Src/stm32f1xx_hal_spi.c ****     SPI_RESET_CRC(hspi);
1425:Drivers/STM32F1xx_HAL_Driver/Src/stm32f1xx_hal_spi.c ****   }
1426:Drivers/STM32F1xx_HAL_Driver/Src/stm32f1xx_hal_spi.c **** #endif /* USE_SPI_CRC */
1427:Drivers/STM32F1xx_HAL_Driver/Src/stm32f1xx_hal_spi.c **** 
1428:Drivers/STM32F1xx_HAL_Driver/Src/stm32f1xx_hal_spi.c ****   /* Enable TXE and ERR interrupt */
1429:Drivers/STM32F1xx_HAL_Driver/Src/stm32f1xx_hal_spi.c ****   __HAL_SPI_ENABLE_IT(hspi, (SPI_IT_TXE | SPI_IT_ERR));
 1890              		.loc 1 1429 3
 1891 00b4 FB68     		ldr	r3, [r7, #12]
 1892 00b6 1B68     		ldr	r3, [r3]
 1893 00b8 5A68     		ldr	r2, [r3, #4]
 1894 00ba FB68     		ldr	r3, [r7, #12]
 1895 00bc 1B68     		ldr	r3, [r3]
 1896 00be 42F0A002 		orr	r2, r2, #160
 1897 00c2 5A60     		str	r2, [r3, #4]
1430:Drivers/STM32F1xx_HAL_Driver/Src/stm32f1xx_hal_spi.c **** 
1431:Drivers/STM32F1xx_HAL_Driver/Src/stm32f1xx_hal_spi.c **** 
1432:Drivers/STM32F1xx_HAL_Driver/Src/stm32f1xx_hal_spi.c ****   /* Check if the SPI is already enabled */
1433:Drivers/STM32F1xx_HAL_Driver/Src/stm32f1xx_hal_spi.c ****   if ((hspi->Instance->CR1 & SPI_CR1_SPE) != SPI_CR1_SPE)
 1898              		.loc 1 1433 12
 1899 00c4 FB68     		ldr	r3, [r7, #12]
 1900 00c6 1B68     		ldr	r3, [r3]
 1901              		.loc 1 1433 22
 1902 00c8 1B68     		ldr	r3, [r3]
 1903              		.loc 1 1433 28
 1904 00ca 03F04003 		and	r3, r3, #64
 1905              		.loc 1 1433 6
 1906 00ce 402B     		cmp	r3, #64
 1907 00d0 08D0     		beq	.L100
1434:Drivers/STM32F1xx_HAL_Driver/Src/stm32f1xx_hal_spi.c ****   {
1435:Drivers/STM32F1xx_HAL_Driver/Src/stm32f1xx_hal_spi.c ****     /* Enable SPI peripheral */
1436:Drivers/STM32F1xx_HAL_Driver/Src/stm32f1xx_hal_spi.c ****     __HAL_SPI_ENABLE(hspi);
 1908              		.loc 1 1436 5
 1909 00d2 FB68     		ldr	r3, [r7, #12]
 1910 00d4 1B68     		ldr	r3, [r3]
 1911 00d6 1A68     		ldr	r2, [r3]
 1912 00d8 FB68     		ldr	r3, [r7, #12]
 1913 00da 1B68     		ldr	r3, [r3]
 1914 00dc 42F04002 		orr	r2, r2, #64
 1915 00e0 1A60     		str	r2, [r3]
 1916 00e2 00E0     		b	.L95
 1917              	.L100:
1437:Drivers/STM32F1xx_HAL_Driver/Src/stm32f1xx_hal_spi.c ****   }
1438:Drivers/STM32F1xx_HAL_Driver/Src/stm32f1xx_hal_spi.c **** 
1439:Drivers/STM32F1xx_HAL_Driver/Src/stm32f1xx_hal_spi.c **** error :
 1918              		.loc 1 1439 1
 1919 00e4 00BF     		nop
 1920              	.L95:
1440:Drivers/STM32F1xx_HAL_Driver/Src/stm32f1xx_hal_spi.c ****   __HAL_UNLOCK(hspi);
 1921              		.loc 1 1440 3
 1922 00e6 FB68     		ldr	r3, [r7, #12]
ARM GAS  C:\Users\Alex\AppData\Local\Temp\ccfYuLQH.s 			page 60


 1923 00e8 0022     		movs	r2, #0
 1924 00ea 83F85020 		strb	r2, [r3, #80]
1441:Drivers/STM32F1xx_HAL_Driver/Src/stm32f1xx_hal_spi.c ****   return errorcode;
 1925              		.loc 1 1441 10
 1926 00ee FB7D     		ldrb	r3, [r7, #23]	@ zero_extendqisi2
 1927              	.L92:
1442:Drivers/STM32F1xx_HAL_Driver/Src/stm32f1xx_hal_spi.c **** }
 1928              		.loc 1 1442 1
 1929 00f0 1846     		mov	r0, r3
 1930 00f2 1C37     		adds	r7, r7, #28
 1931              	.LCFI40:
 1932              		.cfi_def_cfa_offset 4
 1933 00f4 BD46     		mov	sp, r7
 1934              	.LCFI41:
 1935              		.cfi_def_cfa_register 13
 1936              		@ sp needed
 1937 00f6 80BC     		pop	{r7}
 1938              	.LCFI42:
 1939              		.cfi_restore 7
 1940              		.cfi_def_cfa_offset 0
 1941 00f8 7047     		bx	lr
 1942              	.L102:
 1943 00fa 00BF     		.align	2
 1944              	.L101:
 1945 00fc 00000000 		.word	SPI_TxISR_16BIT
 1946 0100 00000000 		.word	SPI_TxISR_8BIT
 1947              		.cfi_endproc
 1948              	.LFE72:
 1950              		.section	.text.HAL_SPI_Receive_IT,"ax",%progbits
 1951              		.align	1
 1952              		.global	HAL_SPI_Receive_IT
 1953              		.syntax unified
 1954              		.thumb
 1955              		.thumb_func
 1956              		.fpu softvfp
 1958              	HAL_SPI_Receive_IT:
 1959              	.LFB73:
1443:Drivers/STM32F1xx_HAL_Driver/Src/stm32f1xx_hal_spi.c **** 
1444:Drivers/STM32F1xx_HAL_Driver/Src/stm32f1xx_hal_spi.c **** /**
1445:Drivers/STM32F1xx_HAL_Driver/Src/stm32f1xx_hal_spi.c ****   * @brief  Receive an amount of data in non-blocking mode with Interrupt.
1446:Drivers/STM32F1xx_HAL_Driver/Src/stm32f1xx_hal_spi.c ****   * @param  hspi pointer to a SPI_HandleTypeDef structure that contains
1447:Drivers/STM32F1xx_HAL_Driver/Src/stm32f1xx_hal_spi.c ****   *               the configuration information for SPI module.
1448:Drivers/STM32F1xx_HAL_Driver/Src/stm32f1xx_hal_spi.c ****   * @param  pData pointer to data buffer
1449:Drivers/STM32F1xx_HAL_Driver/Src/stm32f1xx_hal_spi.c ****   * @param  Size amount of data to be sent
1450:Drivers/STM32F1xx_HAL_Driver/Src/stm32f1xx_hal_spi.c ****   * @retval HAL status
1451:Drivers/STM32F1xx_HAL_Driver/Src/stm32f1xx_hal_spi.c ****   */
1452:Drivers/STM32F1xx_HAL_Driver/Src/stm32f1xx_hal_spi.c **** HAL_StatusTypeDef HAL_SPI_Receive_IT(SPI_HandleTypeDef *hspi, uint8_t *pData, uint16_t Size)
1453:Drivers/STM32F1xx_HAL_Driver/Src/stm32f1xx_hal_spi.c **** {
 1960              		.loc 1 1453 1
 1961              		.cfi_startproc
 1962              		@ args = 0, pretend = 0, frame = 24
 1963              		@ frame_needed = 1, uses_anonymous_args = 0
 1964 0000 80B5     		push	{r7, lr}
 1965              	.LCFI43:
 1966              		.cfi_def_cfa_offset 8
 1967              		.cfi_offset 7, -8
 1968              		.cfi_offset 14, -4
ARM GAS  C:\Users\Alex\AppData\Local\Temp\ccfYuLQH.s 			page 61


 1969 0002 86B0     		sub	sp, sp, #24
 1970              	.LCFI44:
 1971              		.cfi_def_cfa_offset 32
 1972 0004 00AF     		add	r7, sp, #0
 1973              	.LCFI45:
 1974              		.cfi_def_cfa_register 7
 1975 0006 F860     		str	r0, [r7, #12]
 1976 0008 B960     		str	r1, [r7, #8]
 1977 000a 1346     		mov	r3, r2
 1978 000c FB80     		strh	r3, [r7, #6]	@ movhi
1454:Drivers/STM32F1xx_HAL_Driver/Src/stm32f1xx_hal_spi.c ****   HAL_StatusTypeDef errorcode = HAL_OK;
 1979              		.loc 1 1454 21
 1980 000e 0023     		movs	r3, #0
 1981 0010 FB75     		strb	r3, [r7, #23]
1455:Drivers/STM32F1xx_HAL_Driver/Src/stm32f1xx_hal_spi.c **** 
1456:Drivers/STM32F1xx_HAL_Driver/Src/stm32f1xx_hal_spi.c ****   if ((hspi->Init.Direction == SPI_DIRECTION_2LINES) && (hspi->Init.Mode == SPI_MODE_MASTER))
 1982              		.loc 1 1456 18
 1983 0012 FB68     		ldr	r3, [r7, #12]
 1984 0014 9B68     		ldr	r3, [r3, #8]
 1985              		.loc 1 1456 6
 1986 0016 002B     		cmp	r3, #0
 1987 0018 10D1     		bne	.L104
 1988              		.loc 1 1456 68 discriminator 1
 1989 001a FB68     		ldr	r3, [r7, #12]
 1990 001c 5B68     		ldr	r3, [r3, #4]
 1991              		.loc 1 1456 54 discriminator 1
 1992 001e B3F5827F 		cmp	r3, #260
 1993 0022 0BD1     		bne	.L104
1457:Drivers/STM32F1xx_HAL_Driver/Src/stm32f1xx_hal_spi.c ****   {
1458:Drivers/STM32F1xx_HAL_Driver/Src/stm32f1xx_hal_spi.c ****     hspi->State = HAL_SPI_STATE_BUSY_RX;
 1994              		.loc 1 1458 17
 1995 0024 FB68     		ldr	r3, [r7, #12]
 1996 0026 0422     		movs	r2, #4
 1997 0028 83F85120 		strb	r2, [r3, #81]
1459:Drivers/STM32F1xx_HAL_Driver/Src/stm32f1xx_hal_spi.c ****     /* Call transmit-receive function to send Dummy data on Tx line and generate clock on CLK line 
1460:Drivers/STM32F1xx_HAL_Driver/Src/stm32f1xx_hal_spi.c ****     return HAL_SPI_TransmitReceive_IT(hspi, pData, pData, Size);
 1998              		.loc 1 1460 12
 1999 002c FB88     		ldrh	r3, [r7, #6]
 2000 002e BA68     		ldr	r2, [r7, #8]
 2001 0030 B968     		ldr	r1, [r7, #8]
 2002 0032 F868     		ldr	r0, [r7, #12]
 2003 0034 FFF7FEFF 		bl	HAL_SPI_TransmitReceive_IT
 2004 0038 0346     		mov	r3, r0
 2005 003a 6EE0     		b	.L105
 2006              	.L104:
1461:Drivers/STM32F1xx_HAL_Driver/Src/stm32f1xx_hal_spi.c ****   }
1462:Drivers/STM32F1xx_HAL_Driver/Src/stm32f1xx_hal_spi.c **** 
1463:Drivers/STM32F1xx_HAL_Driver/Src/stm32f1xx_hal_spi.c ****   /* Process Locked */
1464:Drivers/STM32F1xx_HAL_Driver/Src/stm32f1xx_hal_spi.c ****   __HAL_LOCK(hspi);
 2007              		.loc 1 1464 3
 2008 003c FB68     		ldr	r3, [r7, #12]
 2009 003e 93F85030 		ldrb	r3, [r3, #80]	@ zero_extendqisi2
 2010 0042 012B     		cmp	r3, #1
 2011 0044 01D1     		bne	.L106
 2012              		.loc 1 1464 3 is_stmt 0 discriminator 1
 2013 0046 0223     		movs	r3, #2
 2014 0048 67E0     		b	.L105
ARM GAS  C:\Users\Alex\AppData\Local\Temp\ccfYuLQH.s 			page 62


 2015              	.L106:
 2016              		.loc 1 1464 3 discriminator 2
 2017 004a FB68     		ldr	r3, [r7, #12]
 2018 004c 0122     		movs	r2, #1
 2019 004e 83F85020 		strb	r2, [r3, #80]
1465:Drivers/STM32F1xx_HAL_Driver/Src/stm32f1xx_hal_spi.c **** 
1466:Drivers/STM32F1xx_HAL_Driver/Src/stm32f1xx_hal_spi.c ****   if (hspi->State != HAL_SPI_STATE_READY)
 2020              		.loc 1 1466 11 is_stmt 1 discriminator 2
 2021 0052 FB68     		ldr	r3, [r7, #12]
 2022 0054 93F85130 		ldrb	r3, [r3, #81]
 2023 0058 DBB2     		uxtb	r3, r3
 2024              		.loc 1 1466 6 discriminator 2
 2025 005a 012B     		cmp	r3, #1
 2026 005c 02D0     		beq	.L107
1467:Drivers/STM32F1xx_HAL_Driver/Src/stm32f1xx_hal_spi.c ****   {
1468:Drivers/STM32F1xx_HAL_Driver/Src/stm32f1xx_hal_spi.c ****     errorcode = HAL_BUSY;
 2027              		.loc 1 1468 15
 2028 005e 0223     		movs	r3, #2
 2029 0060 FB75     		strb	r3, [r7, #23]
1469:Drivers/STM32F1xx_HAL_Driver/Src/stm32f1xx_hal_spi.c ****     goto error;
 2030              		.loc 1 1469 5
 2031 0062 55E0     		b	.L108
 2032              	.L107:
1470:Drivers/STM32F1xx_HAL_Driver/Src/stm32f1xx_hal_spi.c ****   }
1471:Drivers/STM32F1xx_HAL_Driver/Src/stm32f1xx_hal_spi.c **** 
1472:Drivers/STM32F1xx_HAL_Driver/Src/stm32f1xx_hal_spi.c ****   if ((pData == NULL) || (Size == 0U))
 2033              		.loc 1 1472 6
 2034 0064 BB68     		ldr	r3, [r7, #8]
 2035 0066 002B     		cmp	r3, #0
 2036 0068 02D0     		beq	.L109
 2037              		.loc 1 1472 23 discriminator 1
 2038 006a FB88     		ldrh	r3, [r7, #6]
 2039 006c 002B     		cmp	r3, #0
 2040 006e 02D1     		bne	.L110
 2041              	.L109:
1473:Drivers/STM32F1xx_HAL_Driver/Src/stm32f1xx_hal_spi.c ****   {
1474:Drivers/STM32F1xx_HAL_Driver/Src/stm32f1xx_hal_spi.c ****     errorcode = HAL_ERROR;
 2042              		.loc 1 1474 15
 2043 0070 0123     		movs	r3, #1
 2044 0072 FB75     		strb	r3, [r7, #23]
1475:Drivers/STM32F1xx_HAL_Driver/Src/stm32f1xx_hal_spi.c ****     goto error;
 2045              		.loc 1 1475 5
 2046 0074 4CE0     		b	.L108
 2047              	.L110:
1476:Drivers/STM32F1xx_HAL_Driver/Src/stm32f1xx_hal_spi.c ****   }
1477:Drivers/STM32F1xx_HAL_Driver/Src/stm32f1xx_hal_spi.c **** 
1478:Drivers/STM32F1xx_HAL_Driver/Src/stm32f1xx_hal_spi.c ****   /* Set the transaction information */
1479:Drivers/STM32F1xx_HAL_Driver/Src/stm32f1xx_hal_spi.c ****   hspi->State       = HAL_SPI_STATE_BUSY_RX;
 2048              		.loc 1 1479 21
 2049 0076 FB68     		ldr	r3, [r7, #12]
 2050 0078 0422     		movs	r2, #4
 2051 007a 83F85120 		strb	r2, [r3, #81]
1480:Drivers/STM32F1xx_HAL_Driver/Src/stm32f1xx_hal_spi.c ****   hspi->ErrorCode   = HAL_SPI_ERROR_NONE;
 2052              		.loc 1 1480 21
 2053 007e FB68     		ldr	r3, [r7, #12]
 2054 0080 0022     		movs	r2, #0
 2055 0082 5A65     		str	r2, [r3, #84]
ARM GAS  C:\Users\Alex\AppData\Local\Temp\ccfYuLQH.s 			page 63


1481:Drivers/STM32F1xx_HAL_Driver/Src/stm32f1xx_hal_spi.c ****   hspi->pRxBuffPtr  = (uint8_t *)pData;
 2056              		.loc 1 1481 21
 2057 0084 FB68     		ldr	r3, [r7, #12]
 2058 0086 BA68     		ldr	r2, [r7, #8]
 2059 0088 9A63     		str	r2, [r3, #56]
1482:Drivers/STM32F1xx_HAL_Driver/Src/stm32f1xx_hal_spi.c ****   hspi->RxXferSize  = Size;
 2060              		.loc 1 1482 21
 2061 008a FB68     		ldr	r3, [r7, #12]
 2062 008c FA88     		ldrh	r2, [r7, #6]	@ movhi
 2063 008e 9A87     		strh	r2, [r3, #60]	@ movhi
1483:Drivers/STM32F1xx_HAL_Driver/Src/stm32f1xx_hal_spi.c ****   hspi->RxXferCount = Size;
 2064              		.loc 1 1483 21
 2065 0090 FB68     		ldr	r3, [r7, #12]
 2066 0092 FA88     		ldrh	r2, [r7, #6]	@ movhi
 2067 0094 DA87     		strh	r2, [r3, #62]	@ movhi
1484:Drivers/STM32F1xx_HAL_Driver/Src/stm32f1xx_hal_spi.c **** 
1485:Drivers/STM32F1xx_HAL_Driver/Src/stm32f1xx_hal_spi.c ****   /* Init field not used in handle to zero */
1486:Drivers/STM32F1xx_HAL_Driver/Src/stm32f1xx_hal_spi.c ****   hspi->pTxBuffPtr  = (uint8_t *)NULL;
 2068              		.loc 1 1486 21
 2069 0096 FB68     		ldr	r3, [r7, #12]
 2070 0098 0022     		movs	r2, #0
 2071 009a 1A63     		str	r2, [r3, #48]
1487:Drivers/STM32F1xx_HAL_Driver/Src/stm32f1xx_hal_spi.c ****   hspi->TxXferSize  = 0U;
 2072              		.loc 1 1487 21
 2073 009c FB68     		ldr	r3, [r7, #12]
 2074 009e 0022     		movs	r2, #0
 2075 00a0 9A86     		strh	r2, [r3, #52]	@ movhi
1488:Drivers/STM32F1xx_HAL_Driver/Src/stm32f1xx_hal_spi.c ****   hspi->TxXferCount = 0U;
 2076              		.loc 1 1488 21
 2077 00a2 FB68     		ldr	r3, [r7, #12]
 2078 00a4 0022     		movs	r2, #0
 2079 00a6 DA86     		strh	r2, [r3, #54]	@ movhi
1489:Drivers/STM32F1xx_HAL_Driver/Src/stm32f1xx_hal_spi.c ****   hspi->TxISR       = NULL;
 2080              		.loc 1 1489 21
 2081 00a8 FB68     		ldr	r3, [r7, #12]
 2082 00aa 0022     		movs	r2, #0
 2083 00ac 5A64     		str	r2, [r3, #68]
1490:Drivers/STM32F1xx_HAL_Driver/Src/stm32f1xx_hal_spi.c **** 
1491:Drivers/STM32F1xx_HAL_Driver/Src/stm32f1xx_hal_spi.c ****   /* Set the function for IT treatment */
1492:Drivers/STM32F1xx_HAL_Driver/Src/stm32f1xx_hal_spi.c ****   if (hspi->Init.DataSize > SPI_DATASIZE_8BIT)
 2084              		.loc 1 1492 17
 2085 00ae FB68     		ldr	r3, [r7, #12]
 2086 00b0 DB68     		ldr	r3, [r3, #12]
 2087              		.loc 1 1492 6
 2088 00b2 002B     		cmp	r3, #0
 2089 00b4 03D0     		beq	.L111
1493:Drivers/STM32F1xx_HAL_Driver/Src/stm32f1xx_hal_spi.c ****   {
1494:Drivers/STM32F1xx_HAL_Driver/Src/stm32f1xx_hal_spi.c ****     hspi->RxISR = SPI_RxISR_16BIT;
 2090              		.loc 1 1494 17
 2091 00b6 FB68     		ldr	r3, [r7, #12]
 2092 00b8 1A4A     		ldr	r2, .L115
 2093 00ba 1A64     		str	r2, [r3, #64]
 2094 00bc 02E0     		b	.L112
 2095              	.L111:
1495:Drivers/STM32F1xx_HAL_Driver/Src/stm32f1xx_hal_spi.c ****   }
1496:Drivers/STM32F1xx_HAL_Driver/Src/stm32f1xx_hal_spi.c ****   else
1497:Drivers/STM32F1xx_HAL_Driver/Src/stm32f1xx_hal_spi.c ****   {
ARM GAS  C:\Users\Alex\AppData\Local\Temp\ccfYuLQH.s 			page 64


1498:Drivers/STM32F1xx_HAL_Driver/Src/stm32f1xx_hal_spi.c ****     hspi->RxISR = SPI_RxISR_8BIT;
 2096              		.loc 1 1498 17
 2097 00be FB68     		ldr	r3, [r7, #12]
 2098 00c0 194A     		ldr	r2, .L115+4
 2099 00c2 1A64     		str	r2, [r3, #64]
 2100              	.L112:
1499:Drivers/STM32F1xx_HAL_Driver/Src/stm32f1xx_hal_spi.c ****   }
1500:Drivers/STM32F1xx_HAL_Driver/Src/stm32f1xx_hal_spi.c **** 
1501:Drivers/STM32F1xx_HAL_Driver/Src/stm32f1xx_hal_spi.c ****   /* Configure communication direction : 1Line */
1502:Drivers/STM32F1xx_HAL_Driver/Src/stm32f1xx_hal_spi.c ****   if (hspi->Init.Direction == SPI_DIRECTION_1LINE)
 2101              		.loc 1 1502 17
 2102 00c4 FB68     		ldr	r3, [r7, #12]
 2103 00c6 9B68     		ldr	r3, [r3, #8]
 2104              		.loc 1 1502 6
 2105 00c8 B3F5004F 		cmp	r3, #32768
 2106 00cc 07D1     		bne	.L113
1503:Drivers/STM32F1xx_HAL_Driver/Src/stm32f1xx_hal_spi.c ****   {
1504:Drivers/STM32F1xx_HAL_Driver/Src/stm32f1xx_hal_spi.c ****     SPI_1LINE_RX(hspi);
 2107              		.loc 1 1504 5
 2108 00ce FB68     		ldr	r3, [r7, #12]
 2109 00d0 1B68     		ldr	r3, [r3]
 2110 00d2 1A68     		ldr	r2, [r3]
 2111 00d4 FB68     		ldr	r3, [r7, #12]
 2112 00d6 1B68     		ldr	r3, [r3]
 2113 00d8 22F48042 		bic	r2, r2, #16384
 2114 00dc 1A60     		str	r2, [r3]
 2115              	.L113:
1505:Drivers/STM32F1xx_HAL_Driver/Src/stm32f1xx_hal_spi.c ****   }
1506:Drivers/STM32F1xx_HAL_Driver/Src/stm32f1xx_hal_spi.c **** 
1507:Drivers/STM32F1xx_HAL_Driver/Src/stm32f1xx_hal_spi.c **** #if (USE_SPI_CRC != 0U)
1508:Drivers/STM32F1xx_HAL_Driver/Src/stm32f1xx_hal_spi.c ****   /* Reset CRC Calculation */
1509:Drivers/STM32F1xx_HAL_Driver/Src/stm32f1xx_hal_spi.c ****   if (hspi->Init.CRCCalculation == SPI_CRCCALCULATION_ENABLE)
1510:Drivers/STM32F1xx_HAL_Driver/Src/stm32f1xx_hal_spi.c ****   {
1511:Drivers/STM32F1xx_HAL_Driver/Src/stm32f1xx_hal_spi.c ****     SPI_RESET_CRC(hspi);
1512:Drivers/STM32F1xx_HAL_Driver/Src/stm32f1xx_hal_spi.c ****   }
1513:Drivers/STM32F1xx_HAL_Driver/Src/stm32f1xx_hal_spi.c **** #endif /* USE_SPI_CRC */
1514:Drivers/STM32F1xx_HAL_Driver/Src/stm32f1xx_hal_spi.c **** 
1515:Drivers/STM32F1xx_HAL_Driver/Src/stm32f1xx_hal_spi.c ****   /* Enable TXE and ERR interrupt */
1516:Drivers/STM32F1xx_HAL_Driver/Src/stm32f1xx_hal_spi.c ****   __HAL_SPI_ENABLE_IT(hspi, (SPI_IT_RXNE | SPI_IT_ERR));
 2116              		.loc 1 1516 3
 2117 00de FB68     		ldr	r3, [r7, #12]
 2118 00e0 1B68     		ldr	r3, [r3]
 2119 00e2 5A68     		ldr	r2, [r3, #4]
 2120 00e4 FB68     		ldr	r3, [r7, #12]
 2121 00e6 1B68     		ldr	r3, [r3]
 2122 00e8 42F06002 		orr	r2, r2, #96
 2123 00ec 5A60     		str	r2, [r3, #4]
1517:Drivers/STM32F1xx_HAL_Driver/Src/stm32f1xx_hal_spi.c **** 
1518:Drivers/STM32F1xx_HAL_Driver/Src/stm32f1xx_hal_spi.c ****   /* Note : The SPI must be enabled after unlocking current process
1519:Drivers/STM32F1xx_HAL_Driver/Src/stm32f1xx_hal_spi.c ****             to avoid the risk of SPI interrupt handle execution before current
1520:Drivers/STM32F1xx_HAL_Driver/Src/stm32f1xx_hal_spi.c ****             process unlock */
1521:Drivers/STM32F1xx_HAL_Driver/Src/stm32f1xx_hal_spi.c **** 
1522:Drivers/STM32F1xx_HAL_Driver/Src/stm32f1xx_hal_spi.c ****   /* Check if the SPI is already enabled */
1523:Drivers/STM32F1xx_HAL_Driver/Src/stm32f1xx_hal_spi.c ****   if ((hspi->Instance->CR1 & SPI_CR1_SPE) != SPI_CR1_SPE)
 2124              		.loc 1 1523 12
 2125 00ee FB68     		ldr	r3, [r7, #12]
 2126 00f0 1B68     		ldr	r3, [r3]
ARM GAS  C:\Users\Alex\AppData\Local\Temp\ccfYuLQH.s 			page 65


 2127              		.loc 1 1523 22
 2128 00f2 1B68     		ldr	r3, [r3]
 2129              		.loc 1 1523 28
 2130 00f4 03F04003 		and	r3, r3, #64
 2131              		.loc 1 1523 6
 2132 00f8 402B     		cmp	r3, #64
 2133 00fa 08D0     		beq	.L114
1524:Drivers/STM32F1xx_HAL_Driver/Src/stm32f1xx_hal_spi.c ****   {
1525:Drivers/STM32F1xx_HAL_Driver/Src/stm32f1xx_hal_spi.c ****     /* Enable SPI peripheral */
1526:Drivers/STM32F1xx_HAL_Driver/Src/stm32f1xx_hal_spi.c ****     __HAL_SPI_ENABLE(hspi);
 2134              		.loc 1 1526 5
 2135 00fc FB68     		ldr	r3, [r7, #12]
 2136 00fe 1B68     		ldr	r3, [r3]
 2137 0100 1A68     		ldr	r2, [r3]
 2138 0102 FB68     		ldr	r3, [r7, #12]
 2139 0104 1B68     		ldr	r3, [r3]
 2140 0106 42F04002 		orr	r2, r2, #64
 2141 010a 1A60     		str	r2, [r3]
 2142 010c 00E0     		b	.L108
 2143              	.L114:
1527:Drivers/STM32F1xx_HAL_Driver/Src/stm32f1xx_hal_spi.c ****   }
1528:Drivers/STM32F1xx_HAL_Driver/Src/stm32f1xx_hal_spi.c **** 
1529:Drivers/STM32F1xx_HAL_Driver/Src/stm32f1xx_hal_spi.c **** error :
 2144              		.loc 1 1529 1
 2145 010e 00BF     		nop
 2146              	.L108:
1530:Drivers/STM32F1xx_HAL_Driver/Src/stm32f1xx_hal_spi.c ****   /* Process Unlocked */
1531:Drivers/STM32F1xx_HAL_Driver/Src/stm32f1xx_hal_spi.c ****   __HAL_UNLOCK(hspi);
 2147              		.loc 1 1531 3
 2148 0110 FB68     		ldr	r3, [r7, #12]
 2149 0112 0022     		movs	r2, #0
 2150 0114 83F85020 		strb	r2, [r3, #80]
1532:Drivers/STM32F1xx_HAL_Driver/Src/stm32f1xx_hal_spi.c ****   return errorcode;
 2151              		.loc 1 1532 10
 2152 0118 FB7D     		ldrb	r3, [r7, #23]	@ zero_extendqisi2
 2153              	.L105:
1533:Drivers/STM32F1xx_HAL_Driver/Src/stm32f1xx_hal_spi.c **** }
 2154              		.loc 1 1533 1
 2155 011a 1846     		mov	r0, r3
 2156 011c 1837     		adds	r7, r7, #24
 2157              	.LCFI46:
 2158              		.cfi_def_cfa_offset 8
 2159 011e BD46     		mov	sp, r7
 2160              	.LCFI47:
 2161              		.cfi_def_cfa_register 13
 2162              		@ sp needed
 2163 0120 80BD     		pop	{r7, pc}
 2164              	.L116:
 2165 0122 00BF     		.align	2
 2166              	.L115:
 2167 0124 00000000 		.word	SPI_RxISR_16BIT
 2168 0128 00000000 		.word	SPI_RxISR_8BIT
 2169              		.cfi_endproc
 2170              	.LFE73:
 2172              		.section	.text.HAL_SPI_TransmitReceive_IT,"ax",%progbits
 2173              		.align	1
 2174              		.global	HAL_SPI_TransmitReceive_IT
ARM GAS  C:\Users\Alex\AppData\Local\Temp\ccfYuLQH.s 			page 66


 2175              		.syntax unified
 2176              		.thumb
 2177              		.thumb_func
 2178              		.fpu softvfp
 2180              	HAL_SPI_TransmitReceive_IT:
 2181              	.LFB74:
1534:Drivers/STM32F1xx_HAL_Driver/Src/stm32f1xx_hal_spi.c **** 
1535:Drivers/STM32F1xx_HAL_Driver/Src/stm32f1xx_hal_spi.c **** /**
1536:Drivers/STM32F1xx_HAL_Driver/Src/stm32f1xx_hal_spi.c ****   * @brief  Transmit and Receive an amount of data in non-blocking mode with Interrupt.
1537:Drivers/STM32F1xx_HAL_Driver/Src/stm32f1xx_hal_spi.c ****   * @param  hspi pointer to a SPI_HandleTypeDef structure that contains
1538:Drivers/STM32F1xx_HAL_Driver/Src/stm32f1xx_hal_spi.c ****   *               the configuration information for SPI module.
1539:Drivers/STM32F1xx_HAL_Driver/Src/stm32f1xx_hal_spi.c ****   * @param  pTxData pointer to transmission data buffer
1540:Drivers/STM32F1xx_HAL_Driver/Src/stm32f1xx_hal_spi.c ****   * @param  pRxData pointer to reception data buffer
1541:Drivers/STM32F1xx_HAL_Driver/Src/stm32f1xx_hal_spi.c ****   * @param  Size amount of data to be sent and received
1542:Drivers/STM32F1xx_HAL_Driver/Src/stm32f1xx_hal_spi.c ****   * @retval HAL status
1543:Drivers/STM32F1xx_HAL_Driver/Src/stm32f1xx_hal_spi.c ****   */
1544:Drivers/STM32F1xx_HAL_Driver/Src/stm32f1xx_hal_spi.c **** HAL_StatusTypeDef HAL_SPI_TransmitReceive_IT(SPI_HandleTypeDef *hspi, uint8_t *pTxData, uint8_t *pR
1545:Drivers/STM32F1xx_HAL_Driver/Src/stm32f1xx_hal_spi.c **** {
 2182              		.loc 1 1545 1
 2183              		.cfi_startproc
 2184              		@ args = 0, pretend = 0, frame = 24
 2185              		@ frame_needed = 1, uses_anonymous_args = 0
 2186              		@ link register save eliminated.
 2187 0000 80B4     		push	{r7}
 2188              	.LCFI48:
 2189              		.cfi_def_cfa_offset 4
 2190              		.cfi_offset 7, -4
 2191 0002 87B0     		sub	sp, sp, #28
 2192              	.LCFI49:
 2193              		.cfi_def_cfa_offset 32
 2194 0004 00AF     		add	r7, sp, #0
 2195              	.LCFI50:
 2196              		.cfi_def_cfa_register 7
 2197 0006 F860     		str	r0, [r7, #12]
 2198 0008 B960     		str	r1, [r7, #8]
 2199 000a 7A60     		str	r2, [r7, #4]
 2200 000c 7B80     		strh	r3, [r7, #2]	@ movhi
1546:Drivers/STM32F1xx_HAL_Driver/Src/stm32f1xx_hal_spi.c ****   uint32_t             tmp_mode;
1547:Drivers/STM32F1xx_HAL_Driver/Src/stm32f1xx_hal_spi.c ****   HAL_SPI_StateTypeDef tmp_state;
1548:Drivers/STM32F1xx_HAL_Driver/Src/stm32f1xx_hal_spi.c ****   HAL_StatusTypeDef    errorcode = HAL_OK;
 2201              		.loc 1 1548 24
 2202 000e 0023     		movs	r3, #0
 2203 0010 FB75     		strb	r3, [r7, #23]
1549:Drivers/STM32F1xx_HAL_Driver/Src/stm32f1xx_hal_spi.c **** 
1550:Drivers/STM32F1xx_HAL_Driver/Src/stm32f1xx_hal_spi.c ****   /* Check Direction parameter */
1551:Drivers/STM32F1xx_HAL_Driver/Src/stm32f1xx_hal_spi.c ****   assert_param(IS_SPI_DIRECTION_2LINES(hspi->Init.Direction));
1552:Drivers/STM32F1xx_HAL_Driver/Src/stm32f1xx_hal_spi.c **** 
1553:Drivers/STM32F1xx_HAL_Driver/Src/stm32f1xx_hal_spi.c ****   /* Process locked */
1554:Drivers/STM32F1xx_HAL_Driver/Src/stm32f1xx_hal_spi.c ****   __HAL_LOCK(hspi);
 2204              		.loc 1 1554 3
 2205 0012 FB68     		ldr	r3, [r7, #12]
 2206 0014 93F85030 		ldrb	r3, [r3, #80]	@ zero_extendqisi2
 2207 0018 012B     		cmp	r3, #1
 2208 001a 01D1     		bne	.L118
 2209              		.loc 1 1554 3 is_stmt 0 discriminator 1
 2210 001c 0223     		movs	r3, #2
 2211 001e 75E0     		b	.L119
ARM GAS  C:\Users\Alex\AppData\Local\Temp\ccfYuLQH.s 			page 67


 2212              	.L118:
 2213              		.loc 1 1554 3 discriminator 2
 2214 0020 FB68     		ldr	r3, [r7, #12]
 2215 0022 0122     		movs	r2, #1
 2216 0024 83F85020 		strb	r2, [r3, #80]
1555:Drivers/STM32F1xx_HAL_Driver/Src/stm32f1xx_hal_spi.c **** 
1556:Drivers/STM32F1xx_HAL_Driver/Src/stm32f1xx_hal_spi.c ****   /* Init temporary variables */
1557:Drivers/STM32F1xx_HAL_Driver/Src/stm32f1xx_hal_spi.c ****   tmp_state           = hspi->State;
 2217              		.loc 1 1557 23 is_stmt 1 discriminator 2
 2218 0028 FB68     		ldr	r3, [r7, #12]
 2219 002a 93F85130 		ldrb	r3, [r3, #81]
 2220 002e BB75     		strb	r3, [r7, #22]
1558:Drivers/STM32F1xx_HAL_Driver/Src/stm32f1xx_hal_spi.c ****   tmp_mode            = hspi->Init.Mode;
 2221              		.loc 1 1558 23 discriminator 2
 2222 0030 FB68     		ldr	r3, [r7, #12]
 2223 0032 5B68     		ldr	r3, [r3, #4]
 2224 0034 3B61     		str	r3, [r7, #16]
1559:Drivers/STM32F1xx_HAL_Driver/Src/stm32f1xx_hal_spi.c **** 
1560:Drivers/STM32F1xx_HAL_Driver/Src/stm32f1xx_hal_spi.c ****   if (!((tmp_state == HAL_SPI_STATE_READY) || \
 2225              		.loc 1 1560 6 discriminator 2
 2226 0036 BB7D     		ldrb	r3, [r7, #22]	@ zero_extendqisi2
 2227 0038 012B     		cmp	r3, #1
 2228 003a 0DD0     		beq	.L120
 2229              		.loc 1 1560 7 discriminator 1
 2230 003c 3B69     		ldr	r3, [r7, #16]
 2231 003e B3F5827F 		cmp	r3, #260
 2232 0042 06D1     		bne	.L121
1561:Drivers/STM32F1xx_HAL_Driver/Src/stm32f1xx_hal_spi.c ****         ((tmp_mode == SPI_MODE_MASTER) && (hspi->Init.Direction == SPI_DIRECTION_2LINES) && (tmp_st
 2233              		.loc 1 1561 54
 2234 0044 FB68     		ldr	r3, [r7, #12]
 2235 0046 9B68     		ldr	r3, [r3, #8]
 2236              		.loc 1 1561 40
 2237 0048 002B     		cmp	r3, #0
 2238 004a 02D1     		bne	.L121
 2239              		.loc 1 1561 90 discriminator 1
 2240 004c BB7D     		ldrb	r3, [r7, #22]	@ zero_extendqisi2
 2241 004e 042B     		cmp	r3, #4
 2242 0050 02D0     		beq	.L120
 2243              	.L121:
1562:Drivers/STM32F1xx_HAL_Driver/Src/stm32f1xx_hal_spi.c ****   {
1563:Drivers/STM32F1xx_HAL_Driver/Src/stm32f1xx_hal_spi.c ****     errorcode = HAL_BUSY;
 2244              		.loc 1 1563 15
 2245 0052 0223     		movs	r3, #2
 2246 0054 FB75     		strb	r3, [r7, #23]
1564:Drivers/STM32F1xx_HAL_Driver/Src/stm32f1xx_hal_spi.c ****     goto error;
 2247              		.loc 1 1564 5
 2248 0056 54E0     		b	.L122
 2249              	.L120:
1565:Drivers/STM32F1xx_HAL_Driver/Src/stm32f1xx_hal_spi.c ****   }
1566:Drivers/STM32F1xx_HAL_Driver/Src/stm32f1xx_hal_spi.c **** 
1567:Drivers/STM32F1xx_HAL_Driver/Src/stm32f1xx_hal_spi.c ****   if ((pTxData == NULL) || (pRxData == NULL) || (Size == 0U))
 2250              		.loc 1 1567 6
 2251 0058 BB68     		ldr	r3, [r7, #8]
 2252 005a 002B     		cmp	r3, #0
 2253 005c 05D0     		beq	.L123
 2254              		.loc 1 1567 25 discriminator 1
 2255 005e 7B68     		ldr	r3, [r7, #4]
ARM GAS  C:\Users\Alex\AppData\Local\Temp\ccfYuLQH.s 			page 68


 2256 0060 002B     		cmp	r3, #0
 2257 0062 02D0     		beq	.L123
 2258              		.loc 1 1567 46 discriminator 2
 2259 0064 7B88     		ldrh	r3, [r7, #2]
 2260 0066 002B     		cmp	r3, #0
 2261 0068 02D1     		bne	.L124
 2262              	.L123:
1568:Drivers/STM32F1xx_HAL_Driver/Src/stm32f1xx_hal_spi.c ****   {
1569:Drivers/STM32F1xx_HAL_Driver/Src/stm32f1xx_hal_spi.c ****     errorcode = HAL_ERROR;
 2263              		.loc 1 1569 15
 2264 006a 0123     		movs	r3, #1
 2265 006c FB75     		strb	r3, [r7, #23]
1570:Drivers/STM32F1xx_HAL_Driver/Src/stm32f1xx_hal_spi.c ****     goto error;
 2266              		.loc 1 1570 5
 2267 006e 48E0     		b	.L122
 2268              	.L124:
1571:Drivers/STM32F1xx_HAL_Driver/Src/stm32f1xx_hal_spi.c ****   }
1572:Drivers/STM32F1xx_HAL_Driver/Src/stm32f1xx_hal_spi.c **** 
1573:Drivers/STM32F1xx_HAL_Driver/Src/stm32f1xx_hal_spi.c ****   /* Don't overwrite in case of HAL_SPI_STATE_BUSY_RX */
1574:Drivers/STM32F1xx_HAL_Driver/Src/stm32f1xx_hal_spi.c ****   if (hspi->State != HAL_SPI_STATE_BUSY_RX)
 2269              		.loc 1 1574 11
 2270 0070 FB68     		ldr	r3, [r7, #12]
 2271 0072 93F85130 		ldrb	r3, [r3, #81]
 2272 0076 DBB2     		uxtb	r3, r3
 2273              		.loc 1 1574 6
 2274 0078 042B     		cmp	r3, #4
 2275 007a 03D0     		beq	.L125
1575:Drivers/STM32F1xx_HAL_Driver/Src/stm32f1xx_hal_spi.c ****   {
1576:Drivers/STM32F1xx_HAL_Driver/Src/stm32f1xx_hal_spi.c ****     hspi->State = HAL_SPI_STATE_BUSY_TX_RX;
 2276              		.loc 1 1576 17
 2277 007c FB68     		ldr	r3, [r7, #12]
 2278 007e 0522     		movs	r2, #5
 2279 0080 83F85120 		strb	r2, [r3, #81]
 2280              	.L125:
1577:Drivers/STM32F1xx_HAL_Driver/Src/stm32f1xx_hal_spi.c ****   }
1578:Drivers/STM32F1xx_HAL_Driver/Src/stm32f1xx_hal_spi.c **** 
1579:Drivers/STM32F1xx_HAL_Driver/Src/stm32f1xx_hal_spi.c ****   /* Set the transaction information */
1580:Drivers/STM32F1xx_HAL_Driver/Src/stm32f1xx_hal_spi.c ****   hspi->ErrorCode   = HAL_SPI_ERROR_NONE;
 2281              		.loc 1 1580 21
 2282 0084 FB68     		ldr	r3, [r7, #12]
 2283 0086 0022     		movs	r2, #0
 2284 0088 5A65     		str	r2, [r3, #84]
1581:Drivers/STM32F1xx_HAL_Driver/Src/stm32f1xx_hal_spi.c ****   hspi->pTxBuffPtr  = (uint8_t *)pTxData;
 2285              		.loc 1 1581 21
 2286 008a FB68     		ldr	r3, [r7, #12]
 2287 008c BA68     		ldr	r2, [r7, #8]
 2288 008e 1A63     		str	r2, [r3, #48]
1582:Drivers/STM32F1xx_HAL_Driver/Src/stm32f1xx_hal_spi.c ****   hspi->TxXferSize  = Size;
 2289              		.loc 1 1582 21
 2290 0090 FB68     		ldr	r3, [r7, #12]
 2291 0092 7A88     		ldrh	r2, [r7, #2]	@ movhi
 2292 0094 9A86     		strh	r2, [r3, #52]	@ movhi
1583:Drivers/STM32F1xx_HAL_Driver/Src/stm32f1xx_hal_spi.c ****   hspi->TxXferCount = Size;
 2293              		.loc 1 1583 21
 2294 0096 FB68     		ldr	r3, [r7, #12]
 2295 0098 7A88     		ldrh	r2, [r7, #2]	@ movhi
 2296 009a DA86     		strh	r2, [r3, #54]	@ movhi
ARM GAS  C:\Users\Alex\AppData\Local\Temp\ccfYuLQH.s 			page 69


1584:Drivers/STM32F1xx_HAL_Driver/Src/stm32f1xx_hal_spi.c ****   hspi->pRxBuffPtr  = (uint8_t *)pRxData;
 2297              		.loc 1 1584 21
 2298 009c FB68     		ldr	r3, [r7, #12]
 2299 009e 7A68     		ldr	r2, [r7, #4]
 2300 00a0 9A63     		str	r2, [r3, #56]
1585:Drivers/STM32F1xx_HAL_Driver/Src/stm32f1xx_hal_spi.c ****   hspi->RxXferSize  = Size;
 2301              		.loc 1 1585 21
 2302 00a2 FB68     		ldr	r3, [r7, #12]
 2303 00a4 7A88     		ldrh	r2, [r7, #2]	@ movhi
 2304 00a6 9A87     		strh	r2, [r3, #60]	@ movhi
1586:Drivers/STM32F1xx_HAL_Driver/Src/stm32f1xx_hal_spi.c ****   hspi->RxXferCount = Size;
 2305              		.loc 1 1586 21
 2306 00a8 FB68     		ldr	r3, [r7, #12]
 2307 00aa 7A88     		ldrh	r2, [r7, #2]	@ movhi
 2308 00ac DA87     		strh	r2, [r3, #62]	@ movhi
1587:Drivers/STM32F1xx_HAL_Driver/Src/stm32f1xx_hal_spi.c **** 
1588:Drivers/STM32F1xx_HAL_Driver/Src/stm32f1xx_hal_spi.c ****   /* Set the function for IT treatment */
1589:Drivers/STM32F1xx_HAL_Driver/Src/stm32f1xx_hal_spi.c ****   if (hspi->Init.DataSize > SPI_DATASIZE_8BIT)
 2309              		.loc 1 1589 17
 2310 00ae FB68     		ldr	r3, [r7, #12]
 2311 00b0 DB68     		ldr	r3, [r3, #12]
 2312              		.loc 1 1589 6
 2313 00b2 002B     		cmp	r3, #0
 2314 00b4 06D0     		beq	.L126
1590:Drivers/STM32F1xx_HAL_Driver/Src/stm32f1xx_hal_spi.c ****   {
1591:Drivers/STM32F1xx_HAL_Driver/Src/stm32f1xx_hal_spi.c ****     hspi->RxISR     = SPI_2linesRxISR_16BIT;
 2315              		.loc 1 1591 21
 2316 00b6 FB68     		ldr	r3, [r7, #12]
 2317 00b8 174A     		ldr	r2, .L129
 2318 00ba 1A64     		str	r2, [r3, #64]
1592:Drivers/STM32F1xx_HAL_Driver/Src/stm32f1xx_hal_spi.c ****     hspi->TxISR     = SPI_2linesTxISR_16BIT;
 2319              		.loc 1 1592 21
 2320 00bc FB68     		ldr	r3, [r7, #12]
 2321 00be 174A     		ldr	r2, .L129+4
 2322 00c0 5A64     		str	r2, [r3, #68]
 2323 00c2 05E0     		b	.L127
 2324              	.L126:
1593:Drivers/STM32F1xx_HAL_Driver/Src/stm32f1xx_hal_spi.c ****   }
1594:Drivers/STM32F1xx_HAL_Driver/Src/stm32f1xx_hal_spi.c ****   else
1595:Drivers/STM32F1xx_HAL_Driver/Src/stm32f1xx_hal_spi.c ****   {
1596:Drivers/STM32F1xx_HAL_Driver/Src/stm32f1xx_hal_spi.c ****     hspi->RxISR     = SPI_2linesRxISR_8BIT;
 2325              		.loc 1 1596 21
 2326 00c4 FB68     		ldr	r3, [r7, #12]
 2327 00c6 164A     		ldr	r2, .L129+8
 2328 00c8 1A64     		str	r2, [r3, #64]
1597:Drivers/STM32F1xx_HAL_Driver/Src/stm32f1xx_hal_spi.c ****     hspi->TxISR     = SPI_2linesTxISR_8BIT;
 2329              		.loc 1 1597 21
 2330 00ca FB68     		ldr	r3, [r7, #12]
 2331 00cc 154A     		ldr	r2, .L129+12
 2332 00ce 5A64     		str	r2, [r3, #68]
 2333              	.L127:
1598:Drivers/STM32F1xx_HAL_Driver/Src/stm32f1xx_hal_spi.c ****   }
1599:Drivers/STM32F1xx_HAL_Driver/Src/stm32f1xx_hal_spi.c **** 
1600:Drivers/STM32F1xx_HAL_Driver/Src/stm32f1xx_hal_spi.c **** #if (USE_SPI_CRC != 0U)
1601:Drivers/STM32F1xx_HAL_Driver/Src/stm32f1xx_hal_spi.c ****   /* Reset CRC Calculation */
1602:Drivers/STM32F1xx_HAL_Driver/Src/stm32f1xx_hal_spi.c ****   if (hspi->Init.CRCCalculation == SPI_CRCCALCULATION_ENABLE)
1603:Drivers/STM32F1xx_HAL_Driver/Src/stm32f1xx_hal_spi.c ****   {
ARM GAS  C:\Users\Alex\AppData\Local\Temp\ccfYuLQH.s 			page 70


1604:Drivers/STM32F1xx_HAL_Driver/Src/stm32f1xx_hal_spi.c ****     SPI_RESET_CRC(hspi);
1605:Drivers/STM32F1xx_HAL_Driver/Src/stm32f1xx_hal_spi.c ****   }
1606:Drivers/STM32F1xx_HAL_Driver/Src/stm32f1xx_hal_spi.c **** #endif /* USE_SPI_CRC */
1607:Drivers/STM32F1xx_HAL_Driver/Src/stm32f1xx_hal_spi.c **** 
1608:Drivers/STM32F1xx_HAL_Driver/Src/stm32f1xx_hal_spi.c ****   /* Enable TXE, RXNE and ERR interrupt */
1609:Drivers/STM32F1xx_HAL_Driver/Src/stm32f1xx_hal_spi.c ****   __HAL_SPI_ENABLE_IT(hspi, (SPI_IT_TXE | SPI_IT_RXNE | SPI_IT_ERR));
 2334              		.loc 1 1609 3
 2335 00d0 FB68     		ldr	r3, [r7, #12]
 2336 00d2 1B68     		ldr	r3, [r3]
 2337 00d4 5A68     		ldr	r2, [r3, #4]
 2338 00d6 FB68     		ldr	r3, [r7, #12]
 2339 00d8 1B68     		ldr	r3, [r3]
 2340 00da 42F0E002 		orr	r2, r2, #224
 2341 00de 5A60     		str	r2, [r3, #4]
1610:Drivers/STM32F1xx_HAL_Driver/Src/stm32f1xx_hal_spi.c **** 
1611:Drivers/STM32F1xx_HAL_Driver/Src/stm32f1xx_hal_spi.c ****   /* Check if the SPI is already enabled */
1612:Drivers/STM32F1xx_HAL_Driver/Src/stm32f1xx_hal_spi.c ****   if ((hspi->Instance->CR1 & SPI_CR1_SPE) != SPI_CR1_SPE)
 2342              		.loc 1 1612 12
 2343 00e0 FB68     		ldr	r3, [r7, #12]
 2344 00e2 1B68     		ldr	r3, [r3]
 2345              		.loc 1 1612 22
 2346 00e4 1B68     		ldr	r3, [r3]
 2347              		.loc 1 1612 28
 2348 00e6 03F04003 		and	r3, r3, #64
 2349              		.loc 1 1612 6
 2350 00ea 402B     		cmp	r3, #64
 2351 00ec 08D0     		beq	.L128
1613:Drivers/STM32F1xx_HAL_Driver/Src/stm32f1xx_hal_spi.c ****   {
1614:Drivers/STM32F1xx_HAL_Driver/Src/stm32f1xx_hal_spi.c ****     /* Enable SPI peripheral */
1615:Drivers/STM32F1xx_HAL_Driver/Src/stm32f1xx_hal_spi.c ****     __HAL_SPI_ENABLE(hspi);
 2352              		.loc 1 1615 5
 2353 00ee FB68     		ldr	r3, [r7, #12]
 2354 00f0 1B68     		ldr	r3, [r3]
 2355 00f2 1A68     		ldr	r2, [r3]
 2356 00f4 FB68     		ldr	r3, [r7, #12]
 2357 00f6 1B68     		ldr	r3, [r3]
 2358 00f8 42F04002 		orr	r2, r2, #64
