ARM GAS  C:\Users\Alex\AppData\Local\Temp\ccfYuLQH.s 			page 1


   1              		.cpu cortex-m3
   2              		.eabi_attribute 20, 1
   3              		.eabi_attribute 21, 1
   4              		.eabi_attribute 23, 3
   5              		.eabi_attribute 24, 1
   6              		.eabi_attribute 25, 1
   7              		.eabi_attribute 26, 1
   8              		.eabi_attribute 30, 6
   9              		.eabi_attribute 34, 1
  10              		.eabi_attribute 18, 4
  11              		.file	"stm32f1xx_hal_spi.c"
  12              		.text
  13              	.Ltext0:
  14              		.cfi_sections	.debug_frame
  15              		.section	.text.HAL_SPI_Init,"ax",%progbits
  16              		.align	1
  17              		.global	HAL_SPI_Init
  18              		.arch armv7-m
  19              		.syntax unified
  20              		.thumb
  21              		.thumb_func
  22              		.fpu softvfp
  24              	HAL_SPI_Init:
  25              	.LFB65:
  26              		.file 1 "Drivers/STM32F1xx_HAL_Driver/Src/stm32f1xx_hal_spi.c"
   1:Drivers/STM32F1xx_HAL_Driver/Src/stm32f1xx_hal_spi.c **** /**
   2:Drivers/STM32F1xx_HAL_Driver/Src/stm32f1xx_hal_spi.c ****   ******************************************************************************
   3:Drivers/STM32F1xx_HAL_Driver/Src/stm32f1xx_hal_spi.c ****   * @file    stm32f1xx_hal_spi.c
   4:Drivers/STM32F1xx_HAL_Driver/Src/stm32f1xx_hal_spi.c ****   * @author  MCD Application Team
   5:Drivers/STM32F1xx_HAL_Driver/Src/stm32f1xx_hal_spi.c ****   * @brief   SPI HAL module driver.
   6:Drivers/STM32F1xx_HAL_Driver/Src/stm32f1xx_hal_spi.c ****   *          This file provides firmware functions to manage the following
   7:Drivers/STM32F1xx_HAL_Driver/Src/stm32f1xx_hal_spi.c ****   *          functionalities of the Serial Peripheral Interface (SPI) peripheral:
   8:Drivers/STM32F1xx_HAL_Driver/Src/stm32f1xx_hal_spi.c ****   *           + Initialization and de-initialization functions
   9:Drivers/STM32F1xx_HAL_Driver/Src/stm32f1xx_hal_spi.c ****   *           + IO operation functions
  10:Drivers/STM32F1xx_HAL_Driver/Src/stm32f1xx_hal_spi.c ****   *           + Peripheral Control functions
  11:Drivers/STM32F1xx_HAL_Driver/Src/stm32f1xx_hal_spi.c ****   *           + Peripheral State functions
  12:Drivers/STM32F1xx_HAL_Driver/Src/stm32f1xx_hal_spi.c ****   *
  13:Drivers/STM32F1xx_HAL_Driver/Src/stm32f1xx_hal_spi.c ****   @verbatim
  14:Drivers/STM32F1xx_HAL_Driver/Src/stm32f1xx_hal_spi.c ****   ==============================================================================
  15:Drivers/STM32F1xx_HAL_Driver/Src/stm32f1xx_hal_spi.c ****                         ##### How to use this driver #####
  16:Drivers/STM32F1xx_HAL_Driver/Src/stm32f1xx_hal_spi.c ****   ==============================================================================
  17:Drivers/STM32F1xx_HAL_Driver/Src/stm32f1xx_hal_spi.c ****     [..]
  18:Drivers/STM32F1xx_HAL_Driver/Src/stm32f1xx_hal_spi.c ****       The SPI HAL driver can be used as follows:
  19:Drivers/STM32F1xx_HAL_Driver/Src/stm32f1xx_hal_spi.c **** 
  20:Drivers/STM32F1xx_HAL_Driver/Src/stm32f1xx_hal_spi.c ****       (#) Declare a SPI_HandleTypeDef handle structure, for example:
  21:Drivers/STM32F1xx_HAL_Driver/Src/stm32f1xx_hal_spi.c ****           SPI_HandleTypeDef  hspi;
  22:Drivers/STM32F1xx_HAL_Driver/Src/stm32f1xx_hal_spi.c **** 
  23:Drivers/STM32F1xx_HAL_Driver/Src/stm32f1xx_hal_spi.c ****       (#)Initialize the SPI low level resources by implementing the HAL_SPI_MspInit() API:
  24:Drivers/STM32F1xx_HAL_Driver/Src/stm32f1xx_hal_spi.c ****           (##) Enable the SPIx interface clock
  25:Drivers/STM32F1xx_HAL_Driver/Src/stm32f1xx_hal_spi.c ****           (##) SPI pins configuration
  26:Drivers/STM32F1xx_HAL_Driver/Src/stm32f1xx_hal_spi.c ****               (+++) Enable the clock for the SPI GPIOs
  27:Drivers/STM32F1xx_HAL_Driver/Src/stm32f1xx_hal_spi.c ****               (+++) Configure these SPI pins as alternate function push-pull
  28:Drivers/STM32F1xx_HAL_Driver/Src/stm32f1xx_hal_spi.c ****           (##) NVIC configuration if you need to use interrupt process
  29:Drivers/STM32F1xx_HAL_Driver/Src/stm32f1xx_hal_spi.c ****               (+++) Configure the SPIx interrupt priority
  30:Drivers/STM32F1xx_HAL_Driver/Src/stm32f1xx_hal_spi.c ****               (+++) Enable the NVIC SPI IRQ handle
  31:Drivers/STM32F1xx_HAL_Driver/Src/stm32f1xx_hal_spi.c ****           (##) DMA Configuration if you need to use DMA process
  32:Drivers/STM32F1xx_HAL_Driver/Src/stm32f1xx_hal_spi.c ****               (+++) Declare a DMA_HandleTypeDef handle structure for the transmit or receive Stream
ARM GAS  C:\Users\Alex\AppData\Local\Temp\ccfYuLQH.s 			page 2


  33:Drivers/STM32F1xx_HAL_Driver/Src/stm32f1xx_hal_spi.c ****               (+++) Enable the DMAx clock
  34:Drivers/STM32F1xx_HAL_Driver/Src/stm32f1xx_hal_spi.c ****               (+++) Configure the DMA handle parameters
  35:Drivers/STM32F1xx_HAL_Driver/Src/stm32f1xx_hal_spi.c ****               (+++) Configure the DMA Tx or Rx Stream/Channel
  36:Drivers/STM32F1xx_HAL_Driver/Src/stm32f1xx_hal_spi.c ****               (+++) Associate the initialized hdma_tx(or _rx)  handle to the hspi DMA Tx or Rx hand
  37:Drivers/STM32F1xx_HAL_Driver/Src/stm32f1xx_hal_spi.c ****               (+++) Configure the priority and enable the NVIC for the transfer complete interrupt 
  38:Drivers/STM32F1xx_HAL_Driver/Src/stm32f1xx_hal_spi.c **** 
  39:Drivers/STM32F1xx_HAL_Driver/Src/stm32f1xx_hal_spi.c ****       (#) Program the Mode, BidirectionalMode , Data size, Baudrate Prescaler, NSS
  40:Drivers/STM32F1xx_HAL_Driver/Src/stm32f1xx_hal_spi.c ****           management, Clock polarity and phase, FirstBit and CRC configuration in the hspi Init str
  41:Drivers/STM32F1xx_HAL_Driver/Src/stm32f1xx_hal_spi.c **** 
  42:Drivers/STM32F1xx_HAL_Driver/Src/stm32f1xx_hal_spi.c ****       (#) Initialize the SPI registers by calling the HAL_SPI_Init() API:
  43:Drivers/STM32F1xx_HAL_Driver/Src/stm32f1xx_hal_spi.c ****           (++) This API configures also the low level Hardware GPIO, CLOCK, CORTEX...etc)
  44:Drivers/STM32F1xx_HAL_Driver/Src/stm32f1xx_hal_spi.c ****               by calling the customized HAL_SPI_MspInit() API.
  45:Drivers/STM32F1xx_HAL_Driver/Src/stm32f1xx_hal_spi.c ****      [..]
  46:Drivers/STM32F1xx_HAL_Driver/Src/stm32f1xx_hal_spi.c ****        Circular mode restriction:
  47:Drivers/STM32F1xx_HAL_Driver/Src/stm32f1xx_hal_spi.c ****       (#) The DMA circular mode cannot be used when the SPI is configured in these modes:
  48:Drivers/STM32F1xx_HAL_Driver/Src/stm32f1xx_hal_spi.c ****           (##) Master 2Lines RxOnly
  49:Drivers/STM32F1xx_HAL_Driver/Src/stm32f1xx_hal_spi.c ****           (##) Master 1Line Rx
  50:Drivers/STM32F1xx_HAL_Driver/Src/stm32f1xx_hal_spi.c ****       (#) The CRC feature is not managed when the DMA circular mode is enabled
  51:Drivers/STM32F1xx_HAL_Driver/Src/stm32f1xx_hal_spi.c ****       (#) When the SPI DMA Pause/Stop features are used, we must use the following APIs
  52:Drivers/STM32F1xx_HAL_Driver/Src/stm32f1xx_hal_spi.c ****           the HAL_SPI_DMAPause()/ HAL_SPI_DMAStop() only under the SPI callbacks
  53:Drivers/STM32F1xx_HAL_Driver/Src/stm32f1xx_hal_spi.c ****      [..]
  54:Drivers/STM32F1xx_HAL_Driver/Src/stm32f1xx_hal_spi.c ****        Master Receive mode restriction:
  55:Drivers/STM32F1xx_HAL_Driver/Src/stm32f1xx_hal_spi.c ****       (#) In Master unidirectional receive-only mode (MSTR =1, BIDIMODE=0, RXONLY=1) or
  56:Drivers/STM32F1xx_HAL_Driver/Src/stm32f1xx_hal_spi.c ****           bidirectional receive mode (MSTR=1, BIDIMODE=1, BIDIOE=0), to ensure that the SPI
  57:Drivers/STM32F1xx_HAL_Driver/Src/stm32f1xx_hal_spi.c ****           does not initiate a new transfer the following procedure has to be respected:
  58:Drivers/STM32F1xx_HAL_Driver/Src/stm32f1xx_hal_spi.c ****           (##) HAL_SPI_DeInit()
  59:Drivers/STM32F1xx_HAL_Driver/Src/stm32f1xx_hal_spi.c ****           (##) HAL_SPI_Init()
  60:Drivers/STM32F1xx_HAL_Driver/Src/stm32f1xx_hal_spi.c ****      [..]
  61:Drivers/STM32F1xx_HAL_Driver/Src/stm32f1xx_hal_spi.c ****        Callback registration:
  62:Drivers/STM32F1xx_HAL_Driver/Src/stm32f1xx_hal_spi.c **** 
  63:Drivers/STM32F1xx_HAL_Driver/Src/stm32f1xx_hal_spi.c ****       (#) The compilation flag USE_HAL_SPI_REGISTER_CALLBACKS when set to 1U
  64:Drivers/STM32F1xx_HAL_Driver/Src/stm32f1xx_hal_spi.c ****           allows the user to configure dynamically the driver callbacks.
  65:Drivers/STM32F1xx_HAL_Driver/Src/stm32f1xx_hal_spi.c ****           Use Functions HAL_SPI_RegisterCallback() to register an interrupt callback.
  66:Drivers/STM32F1xx_HAL_Driver/Src/stm32f1xx_hal_spi.c **** 
  67:Drivers/STM32F1xx_HAL_Driver/Src/stm32f1xx_hal_spi.c ****           Function HAL_SPI_RegisterCallback() allows to register following callbacks:
  68:Drivers/STM32F1xx_HAL_Driver/Src/stm32f1xx_hal_spi.c ****             (++) TxCpltCallback        : SPI Tx Completed callback
  69:Drivers/STM32F1xx_HAL_Driver/Src/stm32f1xx_hal_spi.c ****             (++) RxCpltCallback        : SPI Rx Completed callback
  70:Drivers/STM32F1xx_HAL_Driver/Src/stm32f1xx_hal_spi.c ****             (++) TxRxCpltCallback      : SPI TxRx Completed callback
  71:Drivers/STM32F1xx_HAL_Driver/Src/stm32f1xx_hal_spi.c ****             (++) TxHalfCpltCallback    : SPI Tx Half Completed callback
  72:Drivers/STM32F1xx_HAL_Driver/Src/stm32f1xx_hal_spi.c ****             (++) RxHalfCpltCallback    : SPI Rx Half Completed callback
  73:Drivers/STM32F1xx_HAL_Driver/Src/stm32f1xx_hal_spi.c ****             (++) TxRxHalfCpltCallback  : SPI TxRx Half Completed callback
  74:Drivers/STM32F1xx_HAL_Driver/Src/stm32f1xx_hal_spi.c ****             (++) ErrorCallback         : SPI Error callback
  75:Drivers/STM32F1xx_HAL_Driver/Src/stm32f1xx_hal_spi.c ****             (++) AbortCpltCallback     : SPI Abort callback
  76:Drivers/STM32F1xx_HAL_Driver/Src/stm32f1xx_hal_spi.c ****             (++) MspInitCallback       : SPI Msp Init callback
  77:Drivers/STM32F1xx_HAL_Driver/Src/stm32f1xx_hal_spi.c ****             (++) MspDeInitCallback     : SPI Msp DeInit callback
  78:Drivers/STM32F1xx_HAL_Driver/Src/stm32f1xx_hal_spi.c ****           This function takes as parameters the HAL peripheral handle, the Callback ID
  79:Drivers/STM32F1xx_HAL_Driver/Src/stm32f1xx_hal_spi.c ****           and a pointer to the user callback function.
  80:Drivers/STM32F1xx_HAL_Driver/Src/stm32f1xx_hal_spi.c **** 
  81:Drivers/STM32F1xx_HAL_Driver/Src/stm32f1xx_hal_spi.c **** 
  82:Drivers/STM32F1xx_HAL_Driver/Src/stm32f1xx_hal_spi.c ****       (#) Use function HAL_SPI_UnRegisterCallback to reset a callback to the default
  83:Drivers/STM32F1xx_HAL_Driver/Src/stm32f1xx_hal_spi.c ****           weak function.
  84:Drivers/STM32F1xx_HAL_Driver/Src/stm32f1xx_hal_spi.c ****           HAL_SPI_UnRegisterCallback takes as parameters the HAL peripheral handle,
  85:Drivers/STM32F1xx_HAL_Driver/Src/stm32f1xx_hal_spi.c ****           and the Callback ID.
  86:Drivers/STM32F1xx_HAL_Driver/Src/stm32f1xx_hal_spi.c ****           This function allows to reset following callbacks:
  87:Drivers/STM32F1xx_HAL_Driver/Src/stm32f1xx_hal_spi.c ****             (++) TxCpltCallback        : SPI Tx Completed callback
  88:Drivers/STM32F1xx_HAL_Driver/Src/stm32f1xx_hal_spi.c ****             (++) RxCpltCallback        : SPI Rx Completed callback
  89:Drivers/STM32F1xx_HAL_Driver/Src/stm32f1xx_hal_spi.c ****             (++) TxRxCpltCallback      : SPI TxRx Completed callback
ARM GAS  C:\Users\Alex\AppData\Local\Temp\ccfYuLQH.s 			page 3


  90:Drivers/STM32F1xx_HAL_Driver/Src/stm32f1xx_hal_spi.c ****             (++) TxHalfCpltCallback    : SPI Tx Half Completed callback
  91:Drivers/STM32F1xx_HAL_Driver/Src/stm32f1xx_hal_spi.c ****             (++) RxHalfCpltCallback    : SPI Rx Half Completed callback
  92:Drivers/STM32F1xx_HAL_Driver/Src/stm32f1xx_hal_spi.c ****             (++) TxRxHalfCpltCallback  : SPI TxRx Half Completed callback
  93:Drivers/STM32F1xx_HAL_Driver/Src/stm32f1xx_hal_spi.c ****             (++) ErrorCallback         : SPI Error callback
  94:Drivers/STM32F1xx_HAL_Driver/Src/stm32f1xx_hal_spi.c ****             (++) AbortCpltCallback     : SPI Abort callback
  95:Drivers/STM32F1xx_HAL_Driver/Src/stm32f1xx_hal_spi.c ****             (++) MspInitCallback       : SPI Msp Init callback
  96:Drivers/STM32F1xx_HAL_Driver/Src/stm32f1xx_hal_spi.c ****             (++) MspDeInitCallback     : SPI Msp DeInit callback
  97:Drivers/STM32F1xx_HAL_Driver/Src/stm32f1xx_hal_spi.c **** 
  98:Drivers/STM32F1xx_HAL_Driver/Src/stm32f1xx_hal_spi.c ****        [..]
  99:Drivers/STM32F1xx_HAL_Driver/Src/stm32f1xx_hal_spi.c ****        By default, after the HAL_SPI_Init() and when the state is HAL_SPI_STATE_RESET
 100:Drivers/STM32F1xx_HAL_Driver/Src/stm32f1xx_hal_spi.c ****        all callbacks are set to the corresponding weak functions:
 101:Drivers/STM32F1xx_HAL_Driver/Src/stm32f1xx_hal_spi.c ****        examples HAL_SPI_MasterTxCpltCallback(), HAL_SPI_MasterRxCpltCallback().
 102:Drivers/STM32F1xx_HAL_Driver/Src/stm32f1xx_hal_spi.c ****        Exception done for MspInit and MspDeInit functions that are
 103:Drivers/STM32F1xx_HAL_Driver/Src/stm32f1xx_hal_spi.c ****        reset to the legacy weak functions in the HAL_SPI_Init()/ HAL_SPI_DeInit() only when
 104:Drivers/STM32F1xx_HAL_Driver/Src/stm32f1xx_hal_spi.c ****        these callbacks are null (not registered beforehand).
 105:Drivers/STM32F1xx_HAL_Driver/Src/stm32f1xx_hal_spi.c ****        If MspInit or MspDeInit are not null, the HAL_SPI_Init()/ HAL_SPI_DeInit()
 106:Drivers/STM32F1xx_HAL_Driver/Src/stm32f1xx_hal_spi.c ****        keep and use the user MspInit/MspDeInit callbacks (registered beforehand) whatever the state
 107:Drivers/STM32F1xx_HAL_Driver/Src/stm32f1xx_hal_spi.c **** 
 108:Drivers/STM32F1xx_HAL_Driver/Src/stm32f1xx_hal_spi.c ****        [..]
 109:Drivers/STM32F1xx_HAL_Driver/Src/stm32f1xx_hal_spi.c ****        Callbacks can be registered/unregistered in HAL_SPI_STATE_READY state only.
 110:Drivers/STM32F1xx_HAL_Driver/Src/stm32f1xx_hal_spi.c ****        Exception done MspInit/MspDeInit functions that can be registered/unregistered
 111:Drivers/STM32F1xx_HAL_Driver/Src/stm32f1xx_hal_spi.c ****        in HAL_SPI_STATE_READY or HAL_SPI_STATE_RESET state,
 112:Drivers/STM32F1xx_HAL_Driver/Src/stm32f1xx_hal_spi.c ****        thus registered (user) MspInit/DeInit callbacks can be used during the Init/DeInit.
 113:Drivers/STM32F1xx_HAL_Driver/Src/stm32f1xx_hal_spi.c ****        Then, the user first registers the MspInit/MspDeInit user callbacks
 114:Drivers/STM32F1xx_HAL_Driver/Src/stm32f1xx_hal_spi.c ****        using HAL_SPI_RegisterCallback() before calling HAL_SPI_DeInit()
 115:Drivers/STM32F1xx_HAL_Driver/Src/stm32f1xx_hal_spi.c ****        or HAL_SPI_Init() function.
 116:Drivers/STM32F1xx_HAL_Driver/Src/stm32f1xx_hal_spi.c **** 
 117:Drivers/STM32F1xx_HAL_Driver/Src/stm32f1xx_hal_spi.c ****        [..]
 118:Drivers/STM32F1xx_HAL_Driver/Src/stm32f1xx_hal_spi.c ****        When the compilation define USE_HAL_PPP_REGISTER_CALLBACKS is set to 0 or
 119:Drivers/STM32F1xx_HAL_Driver/Src/stm32f1xx_hal_spi.c ****        not defined, the callback registering feature is not available
 120:Drivers/STM32F1xx_HAL_Driver/Src/stm32f1xx_hal_spi.c ****        and weak (surcharged) callbacks are used.
 121:Drivers/STM32F1xx_HAL_Driver/Src/stm32f1xx_hal_spi.c **** 
 122:Drivers/STM32F1xx_HAL_Driver/Src/stm32f1xx_hal_spi.c ****      [..]
 123:Drivers/STM32F1xx_HAL_Driver/Src/stm32f1xx_hal_spi.c ****        Using the HAL it is not possible to reach all supported SPI frequency with the different SPI
 124:Drivers/STM32F1xx_HAL_Driver/Src/stm32f1xx_hal_spi.c ****        the following table resume the max SPI frequency reached with data size 8bits/16bits,
 125:Drivers/STM32F1xx_HAL_Driver/Src/stm32f1xx_hal_spi.c ****          according to frequency of the APBx Peripheral Clock (fPCLK) used by the SPI instance.
 126:Drivers/STM32F1xx_HAL_Driver/Src/stm32f1xx_hal_spi.c **** 
 127:Drivers/STM32F1xx_HAL_Driver/Src/stm32f1xx_hal_spi.c ****   @endverbatim
 128:Drivers/STM32F1xx_HAL_Driver/Src/stm32f1xx_hal_spi.c **** 
 129:Drivers/STM32F1xx_HAL_Driver/Src/stm32f1xx_hal_spi.c ****   Additional table :
 130:Drivers/STM32F1xx_HAL_Driver/Src/stm32f1xx_hal_spi.c **** 
 131:Drivers/STM32F1xx_HAL_Driver/Src/stm32f1xx_hal_spi.c ****        DataSize = SPI_DATASIZE_8BIT:
 132:Drivers/STM32F1xx_HAL_Driver/Src/stm32f1xx_hal_spi.c ****        +-------------------------------------------------------------------------------------------
 133:Drivers/STM32F1xx_HAL_Driver/Src/stm32f1xx_hal_spi.c ****        |         |                | 2Lines Fullduplex   |     2Lines RxOnly    |         1Line     
 134:Drivers/STM32F1xx_HAL_Driver/Src/stm32f1xx_hal_spi.c ****        | Process | Tranfert mode  |---------------------|----------------------|-------------------
 135:Drivers/STM32F1xx_HAL_Driver/Src/stm32f1xx_hal_spi.c ****        |         |                |  Master  |  Slave   |  Master   |  Slave   |  Master   |  Slave
 136:Drivers/STM32F1xx_HAL_Driver/Src/stm32f1xx_hal_spi.c ****        |===========================================================================================
 137:Drivers/STM32F1xx_HAL_Driver/Src/stm32f1xx_hal_spi.c ****        |    T    |     Polling    | Fpclk/2  | Fpclk/2  |    NA     |    NA    |    NA     |   NA  
 138:Drivers/STM32F1xx_HAL_Driver/Src/stm32f1xx_hal_spi.c ****        |    X    |----------------|----------|----------|-----------|----------|-----------|-------
 139:Drivers/STM32F1xx_HAL_Driver/Src/stm32f1xx_hal_spi.c ****        |    /    |     Interrupt  | Fpclk/4  | Fpclk/8  |    NA     |    NA    |    NA     |   NA  
 140:Drivers/STM32F1xx_HAL_Driver/Src/stm32f1xx_hal_spi.c ****        |    R    |----------------|----------|----------|-----------|----------|-----------|-------
 141:Drivers/STM32F1xx_HAL_Driver/Src/stm32f1xx_hal_spi.c ****        |    X    |       DMA      | Fpclk/2  | Fpclk/2  |    NA     |    NA    |    NA     |   NA  
 142:Drivers/STM32F1xx_HAL_Driver/Src/stm32f1xx_hal_spi.c ****        |=========|================|==========|==========|===========|==========|===========|=======
 143:Drivers/STM32F1xx_HAL_Driver/Src/stm32f1xx_hal_spi.c ****        |         |     Polling    | Fpclk/2  | Fpclk/2  | Fpclk/64  | Fpclk/2  | Fpclk/64  | Fpclk/
 144:Drivers/STM32F1xx_HAL_Driver/Src/stm32f1xx_hal_spi.c ****        |         |----------------|----------|----------|-----------|----------|-----------|-------
 145:Drivers/STM32F1xx_HAL_Driver/Src/stm32f1xx_hal_spi.c ****        |    R    |     Interrupt  | Fpclk/8  | Fpclk/8  | Fpclk/64  | Fpclk/2  | Fpclk/64  | Fpclk/
 146:Drivers/STM32F1xx_HAL_Driver/Src/stm32f1xx_hal_spi.c ****        |    X    |----------------|----------|----------|-----------|----------|-----------|-------
ARM GAS  C:\Users\Alex\AppData\Local\Temp\ccfYuLQH.s 			page 4


 147:Drivers/STM32F1xx_HAL_Driver/Src/stm32f1xx_hal_spi.c ****        |         |       DMA      | Fpclk/2  | Fpclk/2  | Fpclk/64  | Fpclk/2  | Fpclk/128 | Fpclk/
 148:Drivers/STM32F1xx_HAL_Driver/Src/stm32f1xx_hal_spi.c ****        |=========|================|==========|==========|===========|==========|===========|=======
 149:Drivers/STM32F1xx_HAL_Driver/Src/stm32f1xx_hal_spi.c ****        |         |     Polling    | Fpclk/2  | Fpclk/4  |     NA    |    NA    | Fpclk/2   | Fpclk/
 150:Drivers/STM32F1xx_HAL_Driver/Src/stm32f1xx_hal_spi.c ****        |         |----------------|----------|----------|-----------|----------|-----------|-------
 151:Drivers/STM32F1xx_HAL_Driver/Src/stm32f1xx_hal_spi.c ****        |    T    |     Interrupt  | Fpclk/2  | Fpclk/4  |     NA    |    NA    | Fpclk/2   | Fpclk/
 152:Drivers/STM32F1xx_HAL_Driver/Src/stm32f1xx_hal_spi.c ****        |    X    |----------------|----------|----------|-----------|----------|-----------|-------
 153:Drivers/STM32F1xx_HAL_Driver/Src/stm32f1xx_hal_spi.c ****        |         |       DMA      | Fpclk/2  | Fpclk/2  |     NA    |    NA    | Fpclk/2   | Fpclk/
 154:Drivers/STM32F1xx_HAL_Driver/Src/stm32f1xx_hal_spi.c ****        +-------------------------------------------------------------------------------------------
 155:Drivers/STM32F1xx_HAL_Driver/Src/stm32f1xx_hal_spi.c **** 
 156:Drivers/STM32F1xx_HAL_Driver/Src/stm32f1xx_hal_spi.c ****        DataSize = SPI_DATASIZE_16BIT:
 157:Drivers/STM32F1xx_HAL_Driver/Src/stm32f1xx_hal_spi.c ****        +-------------------------------------------------------------------------------------------
 158:Drivers/STM32F1xx_HAL_Driver/Src/stm32f1xx_hal_spi.c ****        |         |                | 2Lines Fullduplex   |     2Lines RxOnly    |         1Line     
 159:Drivers/STM32F1xx_HAL_Driver/Src/stm32f1xx_hal_spi.c ****        | Process | Tranfert mode  |---------------------|----------------------|-------------------
 160:Drivers/STM32F1xx_HAL_Driver/Src/stm32f1xx_hal_spi.c ****        |         |                |  Master  |  Slave   |  Master   |  Slave   |  Master   |  Slave
 161:Drivers/STM32F1xx_HAL_Driver/Src/stm32f1xx_hal_spi.c ****        |===========================================================================================
 162:Drivers/STM32F1xx_HAL_Driver/Src/stm32f1xx_hal_spi.c ****        |    T    |     Polling    | Fpclk/2  | Fpclk/2  |    NA     |    NA    |    NA     |   NA  
 163:Drivers/STM32F1xx_HAL_Driver/Src/stm32f1xx_hal_spi.c ****        |    X    |----------------|----------|----------|-----------|----------|-----------|-------
 164:Drivers/STM32F1xx_HAL_Driver/Src/stm32f1xx_hal_spi.c ****        |    /    |     Interrupt  | Fpclk/4  | Fpclk/4  |    NA     |    NA    |    NA     |   NA  
 165:Drivers/STM32F1xx_HAL_Driver/Src/stm32f1xx_hal_spi.c ****        |    R    |----------------|----------|----------|-----------|----------|-----------|-------
 166:Drivers/STM32F1xx_HAL_Driver/Src/stm32f1xx_hal_spi.c ****        |    X    |       DMA      | Fpclk/2  | Fpclk/2  |    NA     |    NA    |    NA     |   NA  
 167:Drivers/STM32F1xx_HAL_Driver/Src/stm32f1xx_hal_spi.c ****        |=========|================|==========|==========|===========|==========|===========|=======
 168:Drivers/STM32F1xx_HAL_Driver/Src/stm32f1xx_hal_spi.c ****        |         |     Polling    | Fpclk/2  | Fpclk/2  | Fpclk/64  | Fpclk/2  | Fpclk/32  | Fpclk/
 169:Drivers/STM32F1xx_HAL_Driver/Src/stm32f1xx_hal_spi.c ****        |         |----------------|----------|----------|-----------|----------|-----------|-------
 170:Drivers/STM32F1xx_HAL_Driver/Src/stm32f1xx_hal_spi.c ****        |    R    |     Interrupt  | Fpclk/4  | Fpclk/4  | Fpclk/64  | Fpclk/2  | Fpclk/64  | Fpclk/
 171:Drivers/STM32F1xx_HAL_Driver/Src/stm32f1xx_hal_spi.c ****        |    X    |----------------|----------|----------|-----------|----------|-----------|-------
 172:Drivers/STM32F1xx_HAL_Driver/Src/stm32f1xx_hal_spi.c ****        |         |       DMA      | Fpclk/2  | Fpclk/2  | Fpclk/64  | Fpclk/2  | Fpclk/128 | Fpclk/
 173:Drivers/STM32F1xx_HAL_Driver/Src/stm32f1xx_hal_spi.c ****        |=========|================|==========|==========|===========|==========|===========|=======
 174:Drivers/STM32F1xx_HAL_Driver/Src/stm32f1xx_hal_spi.c ****        |         |     Polling    | Fpclk/2  | Fpclk/2  |     NA    |    NA    | Fpclk/2   | Fpclk/
 175:Drivers/STM32F1xx_HAL_Driver/Src/stm32f1xx_hal_spi.c ****        |         |----------------|----------|----------|-----------|----------|-----------|-------
 176:Drivers/STM32F1xx_HAL_Driver/Src/stm32f1xx_hal_spi.c ****        |    T    |     Interrupt  | Fpclk/2  | Fpclk/2  |     NA    |    NA    | Fpclk/2   | Fpclk/
 177:Drivers/STM32F1xx_HAL_Driver/Src/stm32f1xx_hal_spi.c ****        |    X    |----------------|----------|----------|-----------|----------|-----------|-------
 178:Drivers/STM32F1xx_HAL_Driver/Src/stm32f1xx_hal_spi.c ****        |         |       DMA      | Fpclk/2  | Fpclk/2  |     NA    |    NA    | Fpclk/2   | Fpclk/
 179:Drivers/STM32F1xx_HAL_Driver/Src/stm32f1xx_hal_spi.c ****        +-------------------------------------------------------------------------------------------
 180:Drivers/STM32F1xx_HAL_Driver/Src/stm32f1xx_hal_spi.c ****        @note The max SPI frequency depend on SPI data size (8bits, 16bits),
 181:Drivers/STM32F1xx_HAL_Driver/Src/stm32f1xx_hal_spi.c ****              SPI mode(2 Lines fullduplex, 2 lines RxOnly, 1 line TX/RX) and Process mode (Polling, 
 182:Drivers/STM32F1xx_HAL_Driver/Src/stm32f1xx_hal_spi.c ****        @note
 183:Drivers/STM32F1xx_HAL_Driver/Src/stm32f1xx_hal_spi.c ****             (#) TX/RX processes are HAL_SPI_TransmitReceive(), HAL_SPI_TransmitReceive_IT() and HAL
 184:Drivers/STM32F1xx_HAL_Driver/Src/stm32f1xx_hal_spi.c ****             (#) RX processes are HAL_SPI_Receive(), HAL_SPI_Receive_IT() and HAL_SPI_Receive_DMA()
 185:Drivers/STM32F1xx_HAL_Driver/Src/stm32f1xx_hal_spi.c ****             (#) TX processes are HAL_SPI_Transmit(), HAL_SPI_Transmit_IT() and HAL_SPI_Transmit_DMA
 186:Drivers/STM32F1xx_HAL_Driver/Src/stm32f1xx_hal_spi.c **** 
 187:Drivers/STM32F1xx_HAL_Driver/Src/stm32f1xx_hal_spi.c ****   ******************************************************************************
 188:Drivers/STM32F1xx_HAL_Driver/Src/stm32f1xx_hal_spi.c ****   * @attention
 189:Drivers/STM32F1xx_HAL_Driver/Src/stm32f1xx_hal_spi.c ****   *
 190:Drivers/STM32F1xx_HAL_Driver/Src/stm32f1xx_hal_spi.c ****   * <h2><center>&copy; Copyright (c) 2016 STMicroelectronics.
 191:Drivers/STM32F1xx_HAL_Driver/Src/stm32f1xx_hal_spi.c ****   * All rights reserved.</center></h2>
 192:Drivers/STM32F1xx_HAL_Driver/Src/stm32f1xx_hal_spi.c ****   *
 193:Drivers/STM32F1xx_HAL_Driver/Src/stm32f1xx_hal_spi.c ****   * This software component is licensed by ST under BSD 3-Clause license,
 194:Drivers/STM32F1xx_HAL_Driver/Src/stm32f1xx_hal_spi.c ****   * the "License"; You may not use this file except in compliance with the
 195:Drivers/STM32F1xx_HAL_Driver/Src/stm32f1xx_hal_spi.c ****   * License. You may obtain a copy of the License at:
 196:Drivers/STM32F1xx_HAL_Driver/Src/stm32f1xx_hal_spi.c ****   *                        opensource.org/licenses/BSD-3-Clause
 197:Drivers/STM32F1xx_HAL_Driver/Src/stm32f1xx_hal_spi.c ****   *
 198:Drivers/STM32F1xx_HAL_Driver/Src/stm32f1xx_hal_spi.c ****   ******************************************************************************
 199:Drivers/STM32F1xx_HAL_Driver/Src/stm32f1xx_hal_spi.c ****   */
 200:Drivers/STM32F1xx_HAL_Driver/Src/stm32f1xx_hal_spi.c **** 
 201:Drivers/STM32F1xx_HAL_Driver/Src/stm32f1xx_hal_spi.c **** /* Includes ------------------------------------------------------------------*/
 202:Drivers/STM32F1xx_HAL_Driver/Src/stm32f1xx_hal_spi.c **** #include "stm32f1xx_hal.h"
 203:Drivers/STM32F1xx_HAL_Driver/Src/stm32f1xx_hal_spi.c **** 
ARM GAS  C:\Users\Alex\AppData\Local\Temp\ccfYuLQH.s 			page 5


 204:Drivers/STM32F1xx_HAL_Driver/Src/stm32f1xx_hal_spi.c **** /** @addtogroup STM32F1xx_HAL_Driver
 205:Drivers/STM32F1xx_HAL_Driver/Src/stm32f1xx_hal_spi.c ****   * @{
 206:Drivers/STM32F1xx_HAL_Driver/Src/stm32f1xx_hal_spi.c ****   */
 207:Drivers/STM32F1xx_HAL_Driver/Src/stm32f1xx_hal_spi.c **** 
 208:Drivers/STM32F1xx_HAL_Driver/Src/stm32f1xx_hal_spi.c **** /** @defgroup SPI SPI
 209:Drivers/STM32F1xx_HAL_Driver/Src/stm32f1xx_hal_spi.c ****   * @brief SPI HAL module driver
 210:Drivers/STM32F1xx_HAL_Driver/Src/stm32f1xx_hal_spi.c ****   * @{
 211:Drivers/STM32F1xx_HAL_Driver/Src/stm32f1xx_hal_spi.c ****   */
 212:Drivers/STM32F1xx_HAL_Driver/Src/stm32f1xx_hal_spi.c **** #ifdef HAL_SPI_MODULE_ENABLED
 213:Drivers/STM32F1xx_HAL_Driver/Src/stm32f1xx_hal_spi.c **** 
 214:Drivers/STM32F1xx_HAL_Driver/Src/stm32f1xx_hal_spi.c **** /* Private typedef -----------------------------------------------------------*/
 215:Drivers/STM32F1xx_HAL_Driver/Src/stm32f1xx_hal_spi.c **** /* Private defines -----------------------------------------------------------*/
 216:Drivers/STM32F1xx_HAL_Driver/Src/stm32f1xx_hal_spi.c **** #if (USE_SPI_CRC != 0U) && defined(SPI_CRC_ERROR_WORKAROUND_FEATURE)
 217:Drivers/STM32F1xx_HAL_Driver/Src/stm32f1xx_hal_spi.c **** /* CRC WORKAOUND FEATURE: Variable used to determine if device is impacted by implementation
 218:Drivers/STM32F1xx_HAL_Driver/Src/stm32f1xx_hal_spi.c ****  * of workaround related to wrong CRC errors detection on SPI2. Conditions in which this workaround
 219:Drivers/STM32F1xx_HAL_Driver/Src/stm32f1xx_hal_spi.c ****  * has to be applied, are:
 220:Drivers/STM32F1xx_HAL_Driver/Src/stm32f1xx_hal_spi.c ****  *  - STM32F101CDE/STM32F103CDE
 221:Drivers/STM32F1xx_HAL_Driver/Src/stm32f1xx_hal_spi.c ****  *  - Revision ID : Z
 222:Drivers/STM32F1xx_HAL_Driver/Src/stm32f1xx_hal_spi.c ****  *  - SPI2
 223:Drivers/STM32F1xx_HAL_Driver/Src/stm32f1xx_hal_spi.c ****  *  - In receive only mode, with CRC calculation enabled, at the end of the CRC reception,
 224:Drivers/STM32F1xx_HAL_Driver/Src/stm32f1xx_hal_spi.c ****  *     the software needs to check the CRCERR flag. If it is found set, read back the SPI_RXCRC:
 225:Drivers/STM32F1xx_HAL_Driver/Src/stm32f1xx_hal_spi.c ****  *       + If the value is 0, the complete data transfer is successful.
 226:Drivers/STM32F1xx_HAL_Driver/Src/stm32f1xx_hal_spi.c ****  *       + Otherwise, one or more errors have been detected during the data transfer by CPU or DMA.
 227:Drivers/STM32F1xx_HAL_Driver/Src/stm32f1xx_hal_spi.c ****  *    If CRCERR is found reset, the complete data transfer is considered successful.
 228:Drivers/STM32F1xx_HAL_Driver/Src/stm32f1xx_hal_spi.c ****  *
 229:Drivers/STM32F1xx_HAL_Driver/Src/stm32f1xx_hal_spi.c ****  * Check RevisionID value for identifying if Device is Rev Z (0x0001) in order to enable workaround
 230:Drivers/STM32F1xx_HAL_Driver/Src/stm32f1xx_hal_spi.c ****  * CRC errors wrongly detected
 231:Drivers/STM32F1xx_HAL_Driver/Src/stm32f1xx_hal_spi.c ****  */
 232:Drivers/STM32F1xx_HAL_Driver/Src/stm32f1xx_hal_spi.c **** /* Pb is that ES_STM32F10xxCDE also identify an issue in Debug registers access while not in Debug 
 233:Drivers/STM32F1xx_HAL_Driver/Src/stm32f1xx_hal_spi.c ****  * Revision ID information is only available in Debug mode, so Workaround could not be implemented
 234:Drivers/STM32F1xx_HAL_Driver/Src/stm32f1xx_hal_spi.c ****  * to distinguish Rev Z devices (issue present) from more recent version (issue fixed).
 235:Drivers/STM32F1xx_HAL_Driver/Src/stm32f1xx_hal_spi.c ****  * So, in case of Revison Z F101 or F103 devices, below define should be assigned to 1.
 236:Drivers/STM32F1xx_HAL_Driver/Src/stm32f1xx_hal_spi.c ****  */
 237:Drivers/STM32F1xx_HAL_Driver/Src/stm32f1xx_hal_spi.c **** #define  USE_SPI_CRC_ERROR_WORKAROUND   0U
 238:Drivers/STM32F1xx_HAL_Driver/Src/stm32f1xx_hal_spi.c **** #endif
 239:Drivers/STM32F1xx_HAL_Driver/Src/stm32f1xx_hal_spi.c **** /** @defgroup SPI_Private_Constants SPI Private Constants
 240:Drivers/STM32F1xx_HAL_Driver/Src/stm32f1xx_hal_spi.c ****   * @{
 241:Drivers/STM32F1xx_HAL_Driver/Src/stm32f1xx_hal_spi.c ****   */
 242:Drivers/STM32F1xx_HAL_Driver/Src/stm32f1xx_hal_spi.c **** #define SPI_DEFAULT_TIMEOUT 100U
 243:Drivers/STM32F1xx_HAL_Driver/Src/stm32f1xx_hal_spi.c **** /**
 244:Drivers/STM32F1xx_HAL_Driver/Src/stm32f1xx_hal_spi.c ****   * @}
 245:Drivers/STM32F1xx_HAL_Driver/Src/stm32f1xx_hal_spi.c ****   */
 246:Drivers/STM32F1xx_HAL_Driver/Src/stm32f1xx_hal_spi.c **** 
 247:Drivers/STM32F1xx_HAL_Driver/Src/stm32f1xx_hal_spi.c **** /* Private macros ------------------------------------------------------------*/
 248:Drivers/STM32F1xx_HAL_Driver/Src/stm32f1xx_hal_spi.c **** /* Private variables ---------------------------------------------------------*/
 249:Drivers/STM32F1xx_HAL_Driver/Src/stm32f1xx_hal_spi.c **** /* Private function prototypes -----------------------------------------------*/
 250:Drivers/STM32F1xx_HAL_Driver/Src/stm32f1xx_hal_spi.c **** /** @defgroup SPI_Private_Functions SPI Private Functions
 251:Drivers/STM32F1xx_HAL_Driver/Src/stm32f1xx_hal_spi.c ****   * @{
 252:Drivers/STM32F1xx_HAL_Driver/Src/stm32f1xx_hal_spi.c ****   */
 253:Drivers/STM32F1xx_HAL_Driver/Src/stm32f1xx_hal_spi.c **** static void SPI_DMATransmitCplt(DMA_HandleTypeDef *hdma);
 254:Drivers/STM32F1xx_HAL_Driver/Src/stm32f1xx_hal_spi.c **** static void SPI_DMAReceiveCplt(DMA_HandleTypeDef *hdma);
 255:Drivers/STM32F1xx_HAL_Driver/Src/stm32f1xx_hal_spi.c **** static void SPI_DMATransmitReceiveCplt(DMA_HandleTypeDef *hdma);
 256:Drivers/STM32F1xx_HAL_Driver/Src/stm32f1xx_hal_spi.c **** static void SPI_DMAHalfTransmitCplt(DMA_HandleTypeDef *hdma);
 257:Drivers/STM32F1xx_HAL_Driver/Src/stm32f1xx_hal_spi.c **** static void SPI_DMAHalfReceiveCplt(DMA_HandleTypeDef *hdma);
 258:Drivers/STM32F1xx_HAL_Driver/Src/stm32f1xx_hal_spi.c **** static void SPI_DMAHalfTransmitReceiveCplt(DMA_HandleTypeDef *hdma);
 259:Drivers/STM32F1xx_HAL_Driver/Src/stm32f1xx_hal_spi.c **** static void SPI_DMAError(DMA_HandleTypeDef *hdma);
 260:Drivers/STM32F1xx_HAL_Driver/Src/stm32f1xx_hal_spi.c **** static void SPI_DMAAbortOnError(DMA_HandleTypeDef *hdma);
ARM GAS  C:\Users\Alex\AppData\Local\Temp\ccfYuLQH.s 			page 6


 261:Drivers/STM32F1xx_HAL_Driver/Src/stm32f1xx_hal_spi.c **** static void SPI_DMATxAbortCallback(DMA_HandleTypeDef *hdma);
 262:Drivers/STM32F1xx_HAL_Driver/Src/stm32f1xx_hal_spi.c **** static void SPI_DMARxAbortCallback(DMA_HandleTypeDef *hdma);
 263:Drivers/STM32F1xx_HAL_Driver/Src/stm32f1xx_hal_spi.c **** static HAL_StatusTypeDef SPI_WaitFlagStateUntilTimeout(SPI_HandleTypeDef *hspi, uint32_t Flag, Flag
 264:Drivers/STM32F1xx_HAL_Driver/Src/stm32f1xx_hal_spi.c ****                                                        uint32_t Timeout, uint32_t Tickstart);
 265:Drivers/STM32F1xx_HAL_Driver/Src/stm32f1xx_hal_spi.c **** static void SPI_TxISR_8BIT(struct __SPI_HandleTypeDef *hspi);
 266:Drivers/STM32F1xx_HAL_Driver/Src/stm32f1xx_hal_spi.c **** static void SPI_TxISR_16BIT(struct __SPI_HandleTypeDef *hspi);
 267:Drivers/STM32F1xx_HAL_Driver/Src/stm32f1xx_hal_spi.c **** static void SPI_RxISR_8BIT(struct __SPI_HandleTypeDef *hspi);
 268:Drivers/STM32F1xx_HAL_Driver/Src/stm32f1xx_hal_spi.c **** static void SPI_RxISR_16BIT(struct __SPI_HandleTypeDef *hspi);
 269:Drivers/STM32F1xx_HAL_Driver/Src/stm32f1xx_hal_spi.c **** static void SPI_2linesRxISR_8BIT(struct __SPI_HandleTypeDef *hspi);
 270:Drivers/STM32F1xx_HAL_Driver/Src/stm32f1xx_hal_spi.c **** static void SPI_2linesTxISR_8BIT(struct __SPI_HandleTypeDef *hspi);
 271:Drivers/STM32F1xx_HAL_Driver/Src/stm32f1xx_hal_spi.c **** static void SPI_2linesTxISR_16BIT(struct __SPI_HandleTypeDef *hspi);
 272:Drivers/STM32F1xx_HAL_Driver/Src/stm32f1xx_hal_spi.c **** static void SPI_2linesRxISR_16BIT(struct __SPI_HandleTypeDef *hspi);
 273:Drivers/STM32F1xx_HAL_Driver/Src/stm32f1xx_hal_spi.c **** #if (USE_SPI_CRC != 0U)
 274:Drivers/STM32F1xx_HAL_Driver/Src/stm32f1xx_hal_spi.c **** static void SPI_RxISR_8BITCRC(struct __SPI_HandleTypeDef *hspi);
 275:Drivers/STM32F1xx_HAL_Driver/Src/stm32f1xx_hal_spi.c **** static void SPI_RxISR_16BITCRC(struct __SPI_HandleTypeDef *hspi);
 276:Drivers/STM32F1xx_HAL_Driver/Src/stm32f1xx_hal_spi.c **** static void SPI_2linesRxISR_8BITCRC(struct __SPI_HandleTypeDef *hspi);
 277:Drivers/STM32F1xx_HAL_Driver/Src/stm32f1xx_hal_spi.c **** static void SPI_2linesRxISR_16BITCRC(struct __SPI_HandleTypeDef *hspi);
 278:Drivers/STM32F1xx_HAL_Driver/Src/stm32f1xx_hal_spi.c **** #endif /* USE_SPI_CRC */
 279:Drivers/STM32F1xx_HAL_Driver/Src/stm32f1xx_hal_spi.c **** static void SPI_AbortRx_ISR(SPI_HandleTypeDef *hspi);
 280:Drivers/STM32F1xx_HAL_Driver/Src/stm32f1xx_hal_spi.c **** static void SPI_AbortTx_ISR(SPI_HandleTypeDef *hspi);
 281:Drivers/STM32F1xx_HAL_Driver/Src/stm32f1xx_hal_spi.c **** static void SPI_CloseRxTx_ISR(SPI_HandleTypeDef *hspi);
 282:Drivers/STM32F1xx_HAL_Driver/Src/stm32f1xx_hal_spi.c **** static void SPI_CloseRx_ISR(SPI_HandleTypeDef *hspi);
 283:Drivers/STM32F1xx_HAL_Driver/Src/stm32f1xx_hal_spi.c **** static void SPI_CloseTx_ISR(SPI_HandleTypeDef *hspi);
 284:Drivers/STM32F1xx_HAL_Driver/Src/stm32f1xx_hal_spi.c **** static HAL_StatusTypeDef SPI_EndRxTransaction(SPI_HandleTypeDef *hspi, uint32_t Timeout, uint32_t T
 285:Drivers/STM32F1xx_HAL_Driver/Src/stm32f1xx_hal_spi.c **** static HAL_StatusTypeDef SPI_EndRxTxTransaction(SPI_HandleTypeDef *hspi, uint32_t Timeout, uint32_t
 286:Drivers/STM32F1xx_HAL_Driver/Src/stm32f1xx_hal_spi.c **** /**
 287:Drivers/STM32F1xx_HAL_Driver/Src/stm32f1xx_hal_spi.c ****   * @}
 288:Drivers/STM32F1xx_HAL_Driver/Src/stm32f1xx_hal_spi.c ****   */
 289:Drivers/STM32F1xx_HAL_Driver/Src/stm32f1xx_hal_spi.c **** 
 290:Drivers/STM32F1xx_HAL_Driver/Src/stm32f1xx_hal_spi.c **** /* Exported functions --------------------------------------------------------*/
 291:Drivers/STM32F1xx_HAL_Driver/Src/stm32f1xx_hal_spi.c **** /** @defgroup SPI_Exported_Functions SPI Exported Functions
 292:Drivers/STM32F1xx_HAL_Driver/Src/stm32f1xx_hal_spi.c ****   * @{
 293:Drivers/STM32F1xx_HAL_Driver/Src/stm32f1xx_hal_spi.c ****   */
 294:Drivers/STM32F1xx_HAL_Driver/Src/stm32f1xx_hal_spi.c **** 
 295:Drivers/STM32F1xx_HAL_Driver/Src/stm32f1xx_hal_spi.c **** /** @defgroup SPI_Exported_Functions_Group1 Initialization and de-initialization functions
 296:Drivers/STM32F1xx_HAL_Driver/Src/stm32f1xx_hal_spi.c ****   *  @brief    Initialization and Configuration functions
 297:Drivers/STM32F1xx_HAL_Driver/Src/stm32f1xx_hal_spi.c ****   *
 298:Drivers/STM32F1xx_HAL_Driver/Src/stm32f1xx_hal_spi.c **** @verbatim
 299:Drivers/STM32F1xx_HAL_Driver/Src/stm32f1xx_hal_spi.c ****  ===============================================================================
 300:Drivers/STM32F1xx_HAL_Driver/Src/stm32f1xx_hal_spi.c ****               ##### Initialization and de-initialization functions #####
 301:Drivers/STM32F1xx_HAL_Driver/Src/stm32f1xx_hal_spi.c ****  ===============================================================================
 302:Drivers/STM32F1xx_HAL_Driver/Src/stm32f1xx_hal_spi.c ****     [..]  This subsection provides a set of functions allowing to initialize and
 303:Drivers/STM32F1xx_HAL_Driver/Src/stm32f1xx_hal_spi.c ****           de-initialize the SPIx peripheral:
 304:Drivers/STM32F1xx_HAL_Driver/Src/stm32f1xx_hal_spi.c **** 
 305:Drivers/STM32F1xx_HAL_Driver/Src/stm32f1xx_hal_spi.c ****       (+) User must implement HAL_SPI_MspInit() function in which he configures
 306:Drivers/STM32F1xx_HAL_Driver/Src/stm32f1xx_hal_spi.c ****           all related peripherals resources (CLOCK, GPIO, DMA, IT and NVIC ).
 307:Drivers/STM32F1xx_HAL_Driver/Src/stm32f1xx_hal_spi.c **** 
 308:Drivers/STM32F1xx_HAL_Driver/Src/stm32f1xx_hal_spi.c ****       (+) Call the function HAL_SPI_Init() to configure the selected device with
 309:Drivers/STM32F1xx_HAL_Driver/Src/stm32f1xx_hal_spi.c ****           the selected configuration:
 310:Drivers/STM32F1xx_HAL_Driver/Src/stm32f1xx_hal_spi.c ****         (++) Mode
 311:Drivers/STM32F1xx_HAL_Driver/Src/stm32f1xx_hal_spi.c ****         (++) Direction
 312:Drivers/STM32F1xx_HAL_Driver/Src/stm32f1xx_hal_spi.c ****         (++) Data Size
 313:Drivers/STM32F1xx_HAL_Driver/Src/stm32f1xx_hal_spi.c ****         (++) Clock Polarity and Phase
 314:Drivers/STM32F1xx_HAL_Driver/Src/stm32f1xx_hal_spi.c ****         (++) NSS Management
 315:Drivers/STM32F1xx_HAL_Driver/Src/stm32f1xx_hal_spi.c ****         (++) BaudRate Prescaler
 316:Drivers/STM32F1xx_HAL_Driver/Src/stm32f1xx_hal_spi.c ****         (++) FirstBit
 317:Drivers/STM32F1xx_HAL_Driver/Src/stm32f1xx_hal_spi.c ****         (++) TIMode
ARM GAS  C:\Users\Alex\AppData\Local\Temp\ccfYuLQH.s 			page 7


 318:Drivers/STM32F1xx_HAL_Driver/Src/stm32f1xx_hal_spi.c ****         (++) CRC Calculation
 319:Drivers/STM32F1xx_HAL_Driver/Src/stm32f1xx_hal_spi.c ****         (++) CRC Polynomial if CRC enabled
 320:Drivers/STM32F1xx_HAL_Driver/Src/stm32f1xx_hal_spi.c **** 
 321:Drivers/STM32F1xx_HAL_Driver/Src/stm32f1xx_hal_spi.c ****       (+) Call the function HAL_SPI_DeInit() to restore the default configuration
 322:Drivers/STM32F1xx_HAL_Driver/Src/stm32f1xx_hal_spi.c ****           of the selected SPIx peripheral.
 323:Drivers/STM32F1xx_HAL_Driver/Src/stm32f1xx_hal_spi.c **** 
 324:Drivers/STM32F1xx_HAL_Driver/Src/stm32f1xx_hal_spi.c **** @endverbatim
 325:Drivers/STM32F1xx_HAL_Driver/Src/stm32f1xx_hal_spi.c ****   * @{
 326:Drivers/STM32F1xx_HAL_Driver/Src/stm32f1xx_hal_spi.c ****   */
 327:Drivers/STM32F1xx_HAL_Driver/Src/stm32f1xx_hal_spi.c **** 
 328:Drivers/STM32F1xx_HAL_Driver/Src/stm32f1xx_hal_spi.c **** /**
 329:Drivers/STM32F1xx_HAL_Driver/Src/stm32f1xx_hal_spi.c ****   * @brief  Initialize the SPI according to the specified parameters
 330:Drivers/STM32F1xx_HAL_Driver/Src/stm32f1xx_hal_spi.c ****   *         in the SPI_InitTypeDef and initialize the associated handle.
 331:Drivers/STM32F1xx_HAL_Driver/Src/stm32f1xx_hal_spi.c ****   * @param  hspi pointer to a SPI_HandleTypeDef structure that contains
 332:Drivers/STM32F1xx_HAL_Driver/Src/stm32f1xx_hal_spi.c ****   *               the configuration information for SPI module.
 333:Drivers/STM32F1xx_HAL_Driver/Src/stm32f1xx_hal_spi.c ****   * @retval HAL status
 334:Drivers/STM32F1xx_HAL_Driver/Src/stm32f1xx_hal_spi.c ****   */
 335:Drivers/STM32F1xx_HAL_Driver/Src/stm32f1xx_hal_spi.c **** HAL_StatusTypeDef HAL_SPI_Init(SPI_HandleTypeDef *hspi)
 336:Drivers/STM32F1xx_HAL_Driver/Src/stm32f1xx_hal_spi.c **** {
  27              		.loc 1 336 1
  28              		.cfi_startproc
  29              		@ args = 0, pretend = 0, frame = 8
  30              		@ frame_needed = 1, uses_anonymous_args = 0
  31 0000 80B5     		push	{r7, lr}
  32              	.LCFI0:
  33              		.cfi_def_cfa_offset 8
  34              		.cfi_offset 7, -8
  35              		.cfi_offset 14, -4
  36 0002 82B0     		sub	sp, sp, #8
  37              	.LCFI1:
  38              		.cfi_def_cfa_offset 16
  39 0004 00AF     		add	r7, sp, #0
  40              	.LCFI2:
  41              		.cfi_def_cfa_register 7
  42 0006 7860     		str	r0, [r7, #4]
 337:Drivers/STM32F1xx_HAL_Driver/Src/stm32f1xx_hal_spi.c ****   /* Check the SPI handle allocation */
 338:Drivers/STM32F1xx_HAL_Driver/Src/stm32f1xx_hal_spi.c ****   if (hspi == NULL)
  43              		.loc 1 338 6
  44 0008 7B68     		ldr	r3, [r7, #4]
  45 000a 002B     		cmp	r3, #0
  46 000c 01D1     		bne	.L2
 339:Drivers/STM32F1xx_HAL_Driver/Src/stm32f1xx_hal_spi.c ****   {
 340:Drivers/STM32F1xx_HAL_Driver/Src/stm32f1xx_hal_spi.c ****     return HAL_ERROR;
  47              		.loc 1 340 12
  48 000e 0123     		movs	r3, #1
  49 0010 53E0     		b	.L3
  50              	.L2:
 341:Drivers/STM32F1xx_HAL_Driver/Src/stm32f1xx_hal_spi.c ****   }
 342:Drivers/STM32F1xx_HAL_Driver/Src/stm32f1xx_hal_spi.c **** 
 343:Drivers/STM32F1xx_HAL_Driver/Src/stm32f1xx_hal_spi.c ****   /* Check the parameters */
 344:Drivers/STM32F1xx_HAL_Driver/Src/stm32f1xx_hal_spi.c ****   assert_param(IS_SPI_ALL_INSTANCE(hspi->Instance));
 345:Drivers/STM32F1xx_HAL_Driver/Src/stm32f1xx_hal_spi.c ****   assert_param(IS_SPI_MODE(hspi->Init.Mode));
 346:Drivers/STM32F1xx_HAL_Driver/Src/stm32f1xx_hal_spi.c ****   assert_param(IS_SPI_DIRECTION(hspi->Init.Direction));
 347:Drivers/STM32F1xx_HAL_Driver/Src/stm32f1xx_hal_spi.c ****   assert_param(IS_SPI_DATASIZE(hspi->Init.DataSize));
 348:Drivers/STM32F1xx_HAL_Driver/Src/stm32f1xx_hal_spi.c ****   assert_param(IS_SPI_NSS(hspi->Init.NSS));
 349:Drivers/STM32F1xx_HAL_Driver/Src/stm32f1xx_hal_spi.c ****   assert_param(IS_SPI_BAUDRATE_PRESCALER(hspi->Init.BaudRatePrescaler));
 350:Drivers/STM32F1xx_HAL_Driver/Src/stm32f1xx_hal_spi.c ****   assert_param(IS_SPI_FIRST_BIT(hspi->Init.FirstBit));
ARM GAS  C:\Users\Alex\AppData\Local\Temp\ccfYuLQH.s 			page 8


 351:Drivers/STM32F1xx_HAL_Driver/Src/stm32f1xx_hal_spi.c ****   /* TI mode is not supported on this device.
 352:Drivers/STM32F1xx_HAL_Driver/Src/stm32f1xx_hal_spi.c ****      TIMode parameter is mandatory equal to SPI_TIMODE_DISABLE */
 353:Drivers/STM32F1xx_HAL_Driver/Src/stm32f1xx_hal_spi.c ****   assert_param(IS_SPI_TIMODE(hspi->Init.TIMode));
 354:Drivers/STM32F1xx_HAL_Driver/Src/stm32f1xx_hal_spi.c ****   if (hspi->Init.TIMode == SPI_TIMODE_DISABLE)
 355:Drivers/STM32F1xx_HAL_Driver/Src/stm32f1xx_hal_spi.c ****   {
 356:Drivers/STM32F1xx_HAL_Driver/Src/stm32f1xx_hal_spi.c ****     assert_param(IS_SPI_CPOL(hspi->Init.CLKPolarity));
 357:Drivers/STM32F1xx_HAL_Driver/Src/stm32f1xx_hal_spi.c ****     assert_param(IS_SPI_CPHA(hspi->Init.CLKPhase));
 358:Drivers/STM32F1xx_HAL_Driver/Src/stm32f1xx_hal_spi.c ****   }
 359:Drivers/STM32F1xx_HAL_Driver/Src/stm32f1xx_hal_spi.c **** #if (USE_SPI_CRC != 0U)
 360:Drivers/STM32F1xx_HAL_Driver/Src/stm32f1xx_hal_spi.c ****   assert_param(IS_SPI_CRC_CALCULATION(hspi->Init.CRCCalculation));
 361:Drivers/STM32F1xx_HAL_Driver/Src/stm32f1xx_hal_spi.c ****   if (hspi->Init.CRCCalculation == SPI_CRCCALCULATION_ENABLE)
 362:Drivers/STM32F1xx_HAL_Driver/Src/stm32f1xx_hal_spi.c ****   {
 363:Drivers/STM32F1xx_HAL_Driver/Src/stm32f1xx_hal_spi.c ****     assert_param(IS_SPI_CRC_POLYNOMIAL(hspi->Init.CRCPolynomial));
 364:Drivers/STM32F1xx_HAL_Driver/Src/stm32f1xx_hal_spi.c ****   }
 365:Drivers/STM32F1xx_HAL_Driver/Src/stm32f1xx_hal_spi.c **** #else
 366:Drivers/STM32F1xx_HAL_Driver/Src/stm32f1xx_hal_spi.c ****   hspi->Init.CRCCalculation = SPI_CRCCALCULATION_DISABLE;
  51              		.loc 1 366 29
  52 0012 7B68     		ldr	r3, [r7, #4]
  53 0014 0022     		movs	r2, #0
  54 0016 9A62     		str	r2, [r3, #40]
 367:Drivers/STM32F1xx_HAL_Driver/Src/stm32f1xx_hal_spi.c **** #endif /* USE_SPI_CRC */
 368:Drivers/STM32F1xx_HAL_Driver/Src/stm32f1xx_hal_spi.c **** 
 369:Drivers/STM32F1xx_HAL_Driver/Src/stm32f1xx_hal_spi.c ****   if (hspi->State == HAL_SPI_STATE_RESET)
  55              		.loc 1 369 11
  56 0018 7B68     		ldr	r3, [r7, #4]
  57 001a 93F85130 		ldrb	r3, [r3, #81]
  58 001e DBB2     		uxtb	r3, r3
  59              		.loc 1 369 6
  60 0020 002B     		cmp	r3, #0
  61 0022 06D1     		bne	.L4
 370:Drivers/STM32F1xx_HAL_Driver/Src/stm32f1xx_hal_spi.c ****   {
 371:Drivers/STM32F1xx_HAL_Driver/Src/stm32f1xx_hal_spi.c ****     /* Allocate lock resource and initialize it */
 372:Drivers/STM32F1xx_HAL_Driver/Src/stm32f1xx_hal_spi.c ****     hspi->Lock = HAL_UNLOCKED;
  62              		.loc 1 372 16
  63 0024 7B68     		ldr	r3, [r7, #4]
  64 0026 0022     		movs	r2, #0
  65 0028 83F85020 		strb	r2, [r3, #80]
 373:Drivers/STM32F1xx_HAL_Driver/Src/stm32f1xx_hal_spi.c **** 
 374:Drivers/STM32F1xx_HAL_Driver/Src/stm32f1xx_hal_spi.c **** #if (USE_HAL_SPI_REGISTER_CALLBACKS == 1U)
 375:Drivers/STM32F1xx_HAL_Driver/Src/stm32f1xx_hal_spi.c ****     /* Init the SPI Callback settings */
 376:Drivers/STM32F1xx_HAL_Driver/Src/stm32f1xx_hal_spi.c ****     hspi->TxCpltCallback       = HAL_SPI_TxCpltCallback;       /* Legacy weak TxCpltCallback       
 377:Drivers/STM32F1xx_HAL_Driver/Src/stm32f1xx_hal_spi.c ****     hspi->RxCpltCallback       = HAL_SPI_RxCpltCallback;       /* Legacy weak RxCpltCallback       
 378:Drivers/STM32F1xx_HAL_Driver/Src/stm32f1xx_hal_spi.c ****     hspi->TxRxCpltCallback     = HAL_SPI_TxRxCpltCallback;     /* Legacy weak TxRxCpltCallback     
 379:Drivers/STM32F1xx_HAL_Driver/Src/stm32f1xx_hal_spi.c ****     hspi->TxHalfCpltCallback   = HAL_SPI_TxHalfCpltCallback;   /* Legacy weak TxHalfCpltCallback   
 380:Drivers/STM32F1xx_HAL_Driver/Src/stm32f1xx_hal_spi.c ****     hspi->RxHalfCpltCallback   = HAL_SPI_RxHalfCpltCallback;   /* Legacy weak RxHalfCpltCallback   
 381:Drivers/STM32F1xx_HAL_Driver/Src/stm32f1xx_hal_spi.c ****     hspi->TxRxHalfCpltCallback = HAL_SPI_TxRxHalfCpltCallback; /* Legacy weak TxRxHalfCpltCallback 
 382:Drivers/STM32F1xx_HAL_Driver/Src/stm32f1xx_hal_spi.c ****     hspi->ErrorCallback        = HAL_SPI_ErrorCallback;        /* Legacy weak ErrorCallback        
 383:Drivers/STM32F1xx_HAL_Driver/Src/stm32f1xx_hal_spi.c ****     hspi->AbortCpltCallback    = HAL_SPI_AbortCpltCallback;    /* Legacy weak AbortCpltCallback    
 384:Drivers/STM32F1xx_HAL_Driver/Src/stm32f1xx_hal_spi.c **** 
 385:Drivers/STM32F1xx_HAL_Driver/Src/stm32f1xx_hal_spi.c ****     if (hspi->MspInitCallback == NULL)
 386:Drivers/STM32F1xx_HAL_Driver/Src/stm32f1xx_hal_spi.c ****     {
 387:Drivers/STM32F1xx_HAL_Driver/Src/stm32f1xx_hal_spi.c ****       hspi->MspInitCallback = HAL_SPI_MspInit; /* Legacy weak MspInit  */
 388:Drivers/STM32F1xx_HAL_Driver/Src/stm32f1xx_hal_spi.c ****     }
 389:Drivers/STM32F1xx_HAL_Driver/Src/stm32f1xx_hal_spi.c **** 
 390:Drivers/STM32F1xx_HAL_Driver/Src/stm32f1xx_hal_spi.c ****     /* Init the low level hardware : GPIO, CLOCK, NVIC... */
 391:Drivers/STM32F1xx_HAL_Driver/Src/stm32f1xx_hal_spi.c ****     hspi->MspInitCallback(hspi);
 392:Drivers/STM32F1xx_HAL_Driver/Src/stm32f1xx_hal_spi.c **** #else
ARM GAS  C:\Users\Alex\AppData\Local\Temp\ccfYuLQH.s 			page 9


 393:Drivers/STM32F1xx_HAL_Driver/Src/stm32f1xx_hal_spi.c ****     /* Init the low level hardware : GPIO, CLOCK, NVIC... */
 394:Drivers/STM32F1xx_HAL_Driver/Src/stm32f1xx_hal_spi.c ****     HAL_SPI_MspInit(hspi);
  66              		.loc 1 394 5
  67 002c 7868     		ldr	r0, [r7, #4]
  68 002e FFF7FEFF 		bl	HAL_SPI_MspInit
  69              	.L4:
 395:Drivers/STM32F1xx_HAL_Driver/Src/stm32f1xx_hal_spi.c **** #endif /* USE_HAL_SPI_REGISTER_CALLBACKS */
 396:Drivers/STM32F1xx_HAL_Driver/Src/stm32f1xx_hal_spi.c ****   }
 397:Drivers/STM32F1xx_HAL_Driver/Src/stm32f1xx_hal_spi.c **** 
 398:Drivers/STM32F1xx_HAL_Driver/Src/stm32f1xx_hal_spi.c ****   hspi->State = HAL_SPI_STATE_BUSY;
  70              		.loc 1 398 15
  71 0032 7B68     		ldr	r3, [r7, #4]
  72 0034 0222     		movs	r2, #2
  73 0036 83F85120 		strb	r2, [r3, #81]
 399:Drivers/STM32F1xx_HAL_Driver/Src/stm32f1xx_hal_spi.c **** 
 400:Drivers/STM32F1xx_HAL_Driver/Src/stm32f1xx_hal_spi.c ****   /* Disable the selected SPI peripheral */
 401:Drivers/STM32F1xx_HAL_Driver/Src/stm32f1xx_hal_spi.c ****   __HAL_SPI_DISABLE(hspi);
  74              		.loc 1 401 3
  75 003a 7B68     		ldr	r3, [r7, #4]
  76 003c 1B68     		ldr	r3, [r3]
  77 003e 1A68     		ldr	r2, [r3]
  78 0040 7B68     		ldr	r3, [r7, #4]
  79 0042 1B68     		ldr	r3, [r3]
  80 0044 22F04002 		bic	r2, r2, #64
  81 0048 1A60     		str	r2, [r3]
 402:Drivers/STM32F1xx_HAL_Driver/Src/stm32f1xx_hal_spi.c **** 
 403:Drivers/STM32F1xx_HAL_Driver/Src/stm32f1xx_hal_spi.c ****   /*----------------------- SPIx CR1 & CR2 Configuration ---------------------*/
 404:Drivers/STM32F1xx_HAL_Driver/Src/stm32f1xx_hal_spi.c ****   /* Configure : SPI Mode, Communication Mode, Data size, Clock polarity and phase, NSS management,
 405:Drivers/STM32F1xx_HAL_Driver/Src/stm32f1xx_hal_spi.c ****   Communication speed, First bit and CRC calculation state */
 406:Drivers/STM32F1xx_HAL_Driver/Src/stm32f1xx_hal_spi.c ****   WRITE_REG(hspi->Instance->CR1, (hspi->Init.Mode | hspi->Init.Direction | hspi->Init.DataSize |
  82              		.loc 1 406 3
  83 004a 7B68     		ldr	r3, [r7, #4]
  84 004c 5A68     		ldr	r2, [r3, #4]
  85 004e 7B68     		ldr	r3, [r7, #4]
  86 0050 9B68     		ldr	r3, [r3, #8]
  87 0052 1A43     		orrs	r2, r2, r3
  88 0054 7B68     		ldr	r3, [r7, #4]
  89 0056 DB68     		ldr	r3, [r3, #12]
  90 0058 1A43     		orrs	r2, r2, r3
  91 005a 7B68     		ldr	r3, [r7, #4]
  92 005c 1B69     		ldr	r3, [r3, #16]
  93 005e 1A43     		orrs	r2, r2, r3
  94 0060 7B68     		ldr	r3, [r7, #4]
  95 0062 5B69     		ldr	r3, [r3, #20]
  96 0064 1A43     		orrs	r2, r2, r3
  97 0066 7B68     		ldr	r3, [r7, #4]
  98 0068 9B69     		ldr	r3, [r3, #24]
  99 006a 03F40073 		and	r3, r3, #512
 100 006e 1A43     		orrs	r2, r2, r3
 101 0070 7B68     		ldr	r3, [r7, #4]
 102 0072 DB69     		ldr	r3, [r3, #28]
 103 0074 1A43     		orrs	r2, r2, r3
 104 0076 7B68     		ldr	r3, [r7, #4]
 105 0078 1B6A     		ldr	r3, [r3, #32]
 106 007a 42EA0301 		orr	r1, r2, r3
 107 007e 7B68     		ldr	r3, [r7, #4]
 108 0080 9A6A     		ldr	r2, [r3, #40]
ARM GAS  C:\Users\Alex\AppData\Local\Temp\ccfYuLQH.s 			page 10


 109 0082 7B68     		ldr	r3, [r7, #4]
 110 0084 1B68     		ldr	r3, [r3]
 111 0086 0A43     		orrs	r2, r2, r1
 112 0088 1A60     		str	r2, [r3]
 407:Drivers/STM32F1xx_HAL_Driver/Src/stm32f1xx_hal_spi.c ****                                   hspi->Init.CLKPolarity | hspi->Init.CLKPhase | (hspi->Init.NSS & 
 408:Drivers/STM32F1xx_HAL_Driver/Src/stm32f1xx_hal_spi.c ****                                   hspi->Init.BaudRatePrescaler | hspi->Init.FirstBit  | hspi->Init.
 409:Drivers/STM32F1xx_HAL_Driver/Src/stm32f1xx_hal_spi.c **** 
 410:Drivers/STM32F1xx_HAL_Driver/Src/stm32f1xx_hal_spi.c ****   /* Configure : NSS management */
 411:Drivers/STM32F1xx_HAL_Driver/Src/stm32f1xx_hal_spi.c ****   WRITE_REG(hspi->Instance->CR2, ((hspi->Init.NSS >> 16U) & SPI_CR2_SSOE));
 113              		.loc 1 411 3
 114 008a 7B68     		ldr	r3, [r7, #4]
 115 008c 9B69     		ldr	r3, [r3, #24]
 116 008e 1A0C     		lsrs	r2, r3, #16
 117 0090 7B68     		ldr	r3, [r7, #4]
 118 0092 1B68     		ldr	r3, [r3]
 119 0094 02F00402 		and	r2, r2, #4
 120 0098 5A60     		str	r2, [r3, #4]
 412:Drivers/STM32F1xx_HAL_Driver/Src/stm32f1xx_hal_spi.c **** 
 413:Drivers/STM32F1xx_HAL_Driver/Src/stm32f1xx_hal_spi.c **** #if (USE_SPI_CRC != 0U)
 414:Drivers/STM32F1xx_HAL_Driver/Src/stm32f1xx_hal_spi.c ****   /*---------------------------- SPIx CRCPOLY Configuration ------------------*/
 415:Drivers/STM32F1xx_HAL_Driver/Src/stm32f1xx_hal_spi.c ****   /* Configure : CRC Polynomial */
 416:Drivers/STM32F1xx_HAL_Driver/Src/stm32f1xx_hal_spi.c ****   if (hspi->Init.CRCCalculation == SPI_CRCCALCULATION_ENABLE)
 417:Drivers/STM32F1xx_HAL_Driver/Src/stm32f1xx_hal_spi.c ****   {
 418:Drivers/STM32F1xx_HAL_Driver/Src/stm32f1xx_hal_spi.c ****     WRITE_REG(hspi->Instance->CRCPR, hspi->Init.CRCPolynomial);
 419:Drivers/STM32F1xx_HAL_Driver/Src/stm32f1xx_hal_spi.c ****   }
 420:Drivers/STM32F1xx_HAL_Driver/Src/stm32f1xx_hal_spi.c **** #endif /* USE_SPI_CRC */
 421:Drivers/STM32F1xx_HAL_Driver/Src/stm32f1xx_hal_spi.c **** 
 422:Drivers/STM32F1xx_HAL_Driver/Src/stm32f1xx_hal_spi.c **** #if defined(SPI_I2SCFGR_I2SMOD)
 423:Drivers/STM32F1xx_HAL_Driver/Src/stm32f1xx_hal_spi.c ****   /* Activate the SPI mode (Make sure that I2SMOD bit in I2SCFGR register is reset) */
 424:Drivers/STM32F1xx_HAL_Driver/Src/stm32f1xx_hal_spi.c ****   CLEAR_BIT(hspi->Instance->I2SCFGR, SPI_I2SCFGR_I2SMOD);
 121              		.loc 1 424 3
 122 009a 7B68     		ldr	r3, [r7, #4]
 123 009c 1B68     		ldr	r3, [r3]
 124 009e DA69     		ldr	r2, [r3, #28]
 125 00a0 7B68     		ldr	r3, [r7, #4]
 126 00a2 1B68     		ldr	r3, [r3]
 127 00a4 22F40062 		bic	r2, r2, #2048
 128 00a8 DA61     		str	r2, [r3, #28]
 425:Drivers/STM32F1xx_HAL_Driver/Src/stm32f1xx_hal_spi.c **** #endif /* SPI_I2SCFGR_I2SMOD */
 426:Drivers/STM32F1xx_HAL_Driver/Src/stm32f1xx_hal_spi.c **** 
 427:Drivers/STM32F1xx_HAL_Driver/Src/stm32f1xx_hal_spi.c ****   hspi->ErrorCode = HAL_SPI_ERROR_NONE;
 129              		.loc 1 427 19
 130 00aa 7B68     		ldr	r3, [r7, #4]
 131 00ac 0022     		movs	r2, #0
 132 00ae 5A65     		str	r2, [r3, #84]
 428:Drivers/STM32F1xx_HAL_Driver/Src/stm32f1xx_hal_spi.c ****   hspi->State     = HAL_SPI_STATE_READY;
 133              		.loc 1 428 19
 134 00b0 7B68     		ldr	r3, [r7, #4]
 135 00b2 0122     		movs	r2, #1
 136 00b4 83F85120 		strb	r2, [r3, #81]
 429:Drivers/STM32F1xx_HAL_Driver/Src/stm32f1xx_hal_spi.c **** 
 430:Drivers/STM32F1xx_HAL_Driver/Src/stm32f1xx_hal_spi.c ****   return HAL_OK;
 137              		.loc 1 430 10
 138 00b8 0023     		movs	r3, #0
 139              	.L3:
 431:Drivers/STM32F1xx_HAL_Driver/Src/stm32f1xx_hal_spi.c **** }
 140              		.loc 1 431 1
ARM GAS  C:\Users\Alex\AppData\Local\Temp\ccfYuLQH.s 			page 11


 141 00ba 1846     		mov	r0, r3
 142 00bc 0837     		adds	r7, r7, #8
 143              	.LCFI3:
 144              		.cfi_def_cfa_offset 8
 145 00be BD46     		mov	sp, r7
 146              	.LCFI4:
 147              		.cfi_def_cfa_register 13
 148              		@ sp needed
 149 00c0 80BD     		pop	{r7, pc}
 150              		.cfi_endproc
 151              	.LFE65:
 153              		.section	.text.HAL_SPI_DeInit,"ax",%progbits
 154              		.align	1
 155              		.global	HAL_SPI_DeInit
 156              		.syntax unified
 157              		.thumb
 158              		.thumb_func
 159              		.fpu softvfp
 161              	HAL_SPI_DeInit:
 162              	.LFB66:
 432:Drivers/STM32F1xx_HAL_Driver/Src/stm32f1xx_hal_spi.c **** 
 433:Drivers/STM32F1xx_HAL_Driver/Src/stm32f1xx_hal_spi.c **** /**
 434:Drivers/STM32F1xx_HAL_Driver/Src/stm32f1xx_hal_spi.c ****   * @brief  De-Initialize the SPI peripheral.
 435:Drivers/STM32F1xx_HAL_Driver/Src/stm32f1xx_hal_spi.c ****   * @param  hspi pointer to a SPI_HandleTypeDef structure that contains
 436:Drivers/STM32F1xx_HAL_Driver/Src/stm32f1xx_hal_spi.c ****   *               the configuration information for SPI module.
 437:Drivers/STM32F1xx_HAL_Driver/Src/stm32f1xx_hal_spi.c ****   * @retval HAL status
 438:Drivers/STM32F1xx_HAL_Driver/Src/stm32f1xx_hal_spi.c ****   */
 439:Drivers/STM32F1xx_HAL_Driver/Src/stm32f1xx_hal_spi.c **** HAL_StatusTypeDef HAL_SPI_DeInit(SPI_HandleTypeDef *hspi)
 440:Drivers/STM32F1xx_HAL_Driver/Src/stm32f1xx_hal_spi.c **** {
 163              		.loc 1 440 1
 164              		.cfi_startproc
 165              		@ args = 0, pretend = 0, frame = 8
 166              		@ frame_needed = 1, uses_anonymous_args = 0
 167 0000 80B5     		push	{r7, lr}
 168              	.LCFI5:
 169              		.cfi_def_cfa_offset 8
 170              		.cfi_offset 7, -8
 171              		.cfi_offset 14, -4
 172 0002 82B0     		sub	sp, sp, #8
 173              	.LCFI6:
 174              		.cfi_def_cfa_offset 16
 175 0004 00AF     		add	r7, sp, #0
 176              	.LCFI7:
 177              		.cfi_def_cfa_register 7
 178 0006 7860     		str	r0, [r7, #4]
 441:Drivers/STM32F1xx_HAL_Driver/Src/stm32f1xx_hal_spi.c ****   /* Check the SPI handle allocation */
 442:Drivers/STM32F1xx_HAL_Driver/Src/stm32f1xx_hal_spi.c ****   if (hspi == NULL)
 179              		.loc 1 442 6
 180 0008 7B68     		ldr	r3, [r7, #4]
 181 000a 002B     		cmp	r3, #0
 182 000c 01D1     		bne	.L6
 443:Drivers/STM32F1xx_HAL_Driver/Src/stm32f1xx_hal_spi.c ****   {
 444:Drivers/STM32F1xx_HAL_Driver/Src/stm32f1xx_hal_spi.c ****     return HAL_ERROR;
 183              		.loc 1 444 12
 184 000e 0123     		movs	r3, #1
 185 0010 1AE0     		b	.L7
 186              	.L6:
ARM GAS  C:\Users\Alex\AppData\Local\Temp\ccfYuLQH.s 			page 12


 445:Drivers/STM32F1xx_HAL_Driver/Src/stm32f1xx_hal_spi.c ****   }
 446:Drivers/STM32F1xx_HAL_Driver/Src/stm32f1xx_hal_spi.c **** 
 447:Drivers/STM32F1xx_HAL_Driver/Src/stm32f1xx_hal_spi.c ****   /* Check SPI Instance parameter */
 448:Drivers/STM32F1xx_HAL_Driver/Src/stm32f1xx_hal_spi.c ****   assert_param(IS_SPI_ALL_INSTANCE(hspi->Instance));
 449:Drivers/STM32F1xx_HAL_Driver/Src/stm32f1xx_hal_spi.c **** 
 450:Drivers/STM32F1xx_HAL_Driver/Src/stm32f1xx_hal_spi.c ****   hspi->State = HAL_SPI_STATE_BUSY;
 187              		.loc 1 450 15
 188 0012 7B68     		ldr	r3, [r7, #4]
 189 0014 0222     		movs	r2, #2
 190 0016 83F85120 		strb	r2, [r3, #81]
 451:Drivers/STM32F1xx_HAL_Driver/Src/stm32f1xx_hal_spi.c **** 
 452:Drivers/STM32F1xx_HAL_Driver/Src/stm32f1xx_hal_spi.c ****   /* Disable the SPI Peripheral Clock */
 453:Drivers/STM32F1xx_HAL_Driver/Src/stm32f1xx_hal_spi.c ****   __HAL_SPI_DISABLE(hspi);
 191              		.loc 1 453 3
 192 001a 7B68     		ldr	r3, [r7, #4]
 193 001c 1B68     		ldr	r3, [r3]
 194 001e 1A68     		ldr	r2, [r3]
 195 0020 7B68     		ldr	r3, [r7, #4]
 196 0022 1B68     		ldr	r3, [r3]
 197 0024 22F04002 		bic	r2, r2, #64
 198 0028 1A60     		str	r2, [r3]
 454:Drivers/STM32F1xx_HAL_Driver/Src/stm32f1xx_hal_spi.c **** 
 455:Drivers/STM32F1xx_HAL_Driver/Src/stm32f1xx_hal_spi.c **** #if (USE_HAL_SPI_REGISTER_CALLBACKS == 1U)
 456:Drivers/STM32F1xx_HAL_Driver/Src/stm32f1xx_hal_spi.c ****   if (hspi->MspDeInitCallback == NULL)
 457:Drivers/STM32F1xx_HAL_Driver/Src/stm32f1xx_hal_spi.c ****   {
 458:Drivers/STM32F1xx_HAL_Driver/Src/stm32f1xx_hal_spi.c ****     hspi->MspDeInitCallback = HAL_SPI_MspDeInit; /* Legacy weak MspDeInit  */
 459:Drivers/STM32F1xx_HAL_Driver/Src/stm32f1xx_hal_spi.c ****   }
 460:Drivers/STM32F1xx_HAL_Driver/Src/stm32f1xx_hal_spi.c **** 
 461:Drivers/STM32F1xx_HAL_Driver/Src/stm32f1xx_hal_spi.c ****   /* DeInit the low level hardware: GPIO, CLOCK, NVIC... */
 462:Drivers/STM32F1xx_HAL_Driver/Src/stm32f1xx_hal_spi.c ****   hspi->MspDeInitCallback(hspi);
 463:Drivers/STM32F1xx_HAL_Driver/Src/stm32f1xx_hal_spi.c **** #else
 464:Drivers/STM32F1xx_HAL_Driver/Src/stm32f1xx_hal_spi.c ****   /* DeInit the low level hardware: GPIO, CLOCK, NVIC... */
 465:Drivers/STM32F1xx_HAL_Driver/Src/stm32f1xx_hal_spi.c ****   HAL_SPI_MspDeInit(hspi);
 199              		.loc 1 465 3
 200 002a 7868     		ldr	r0, [r7, #4]
 201 002c FFF7FEFF 		bl	HAL_SPI_MspDeInit
 466:Drivers/STM32F1xx_HAL_Driver/Src/stm32f1xx_hal_spi.c **** #endif /* USE_HAL_SPI_REGISTER_CALLBACKS */
 467:Drivers/STM32F1xx_HAL_Driver/Src/stm32f1xx_hal_spi.c **** 
 468:Drivers/STM32F1xx_HAL_Driver/Src/stm32f1xx_hal_spi.c ****   hspi->ErrorCode = HAL_SPI_ERROR_NONE;
 202              		.loc 1 468 19
 203 0030 7B68     		ldr	r3, [r7, #4]
 204 0032 0022     		movs	r2, #0
 205 0034 5A65     		str	r2, [r3, #84]
 469:Drivers/STM32F1xx_HAL_Driver/Src/stm32f1xx_hal_spi.c ****   hspi->State = HAL_SPI_STATE_RESET;
 206              		.loc 1 469 15
 207 0036 7B68     		ldr	r3, [r7, #4]
 208 0038 0022     		movs	r2, #0
 209 003a 83F85120 		strb	r2, [r3, #81]
 470:Drivers/STM32F1xx_HAL_Driver/Src/stm32f1xx_hal_spi.c **** 
 471:Drivers/STM32F1xx_HAL_Driver/Src/stm32f1xx_hal_spi.c ****   /* Release Lock */
 472:Drivers/STM32F1xx_HAL_Driver/Src/stm32f1xx_hal_spi.c ****   __HAL_UNLOCK(hspi);
 210              		.loc 1 472 3
 211 003e 7B68     		ldr	r3, [r7, #4]
 212 0040 0022     		movs	r2, #0
 213 0042 83F85020 		strb	r2, [r3, #80]
 473:Drivers/STM32F1xx_HAL_Driver/Src/stm32f1xx_hal_spi.c **** 
 474:Drivers/STM32F1xx_HAL_Driver/Src/stm32f1xx_hal_spi.c ****   return HAL_OK;
ARM GAS  C:\Users\Alex\AppData\Local\Temp\ccfYuLQH.s 			page 13


 214              		.loc 1 474 10
 215 0046 0023     		movs	r3, #0
 216              	.L7:
 475:Drivers/STM32F1xx_HAL_Driver/Src/stm32f1xx_hal_spi.c **** }
 217              		.loc 1 475 1
 218 0048 1846     		mov	r0, r3
 219 004a 0837     		adds	r7, r7, #8
 220              	.LCFI8:
 221              		.cfi_def_cfa_offset 8
 222 004c BD46     		mov	sp, r7
 223              	.LCFI9:
 224              		.cfi_def_cfa_register 13
 225              		@ sp needed
 226 004e 80BD     		pop	{r7, pc}
 227              		.cfi_endproc
 228              	.LFE66:
 230              		.section	.text.HAL_SPI_MspInit,"ax",%progbits
 231              		.align	1
 232              		.weak	HAL_SPI_MspInit
 233              		.syntax unified
 234              		.thumb
 235              		.thumb_func
 236              		.fpu softvfp
 238              	HAL_SPI_MspInit:
 239              	.LFB67:
 476:Drivers/STM32F1xx_HAL_Driver/Src/stm32f1xx_hal_spi.c **** 
 477:Drivers/STM32F1xx_HAL_Driver/Src/stm32f1xx_hal_spi.c **** /**
 478:Drivers/STM32F1xx_HAL_Driver/Src/stm32f1xx_hal_spi.c ****   * @brief  Initialize the SPI MSP.
 479:Drivers/STM32F1xx_HAL_Driver/Src/stm32f1xx_hal_spi.c ****   * @param  hspi pointer to a SPI_HandleTypeDef structure that contains
 480:Drivers/STM32F1xx_HAL_Driver/Src/stm32f1xx_hal_spi.c ****   *               the configuration information for SPI module.
 481:Drivers/STM32F1xx_HAL_Driver/Src/stm32f1xx_hal_spi.c ****   * @retval None
 482:Drivers/STM32F1xx_HAL_Driver/Src/stm32f1xx_hal_spi.c ****   */
 483:Drivers/STM32F1xx_HAL_Driver/Src/stm32f1xx_hal_spi.c **** __weak void HAL_SPI_MspInit(SPI_HandleTypeDef *hspi)
 484:Drivers/STM32F1xx_HAL_Driver/Src/stm32f1xx_hal_spi.c **** {
 240              		.loc 1 484 1
 241              		.cfi_startproc
 242              		@ args = 0, pretend = 0, frame = 8
 243              		@ frame_needed = 1, uses_anonymous_args = 0
 244              		@ link register save eliminated.
 245 0000 80B4     		push	{r7}
 246              	.LCFI10:
 247              		.cfi_def_cfa_offset 4
 248              		.cfi_offset 7, -4
 249 0002 83B0     		sub	sp, sp, #12
 250              	.LCFI11:
 251              		.cfi_def_cfa_offset 16
 252 0004 00AF     		add	r7, sp, #0
 253              	.LCFI12:
 254              		.cfi_def_cfa_register 7
 255 0006 7860     		str	r0, [r7, #4]
 485:Drivers/STM32F1xx_HAL_Driver/Src/stm32f1xx_hal_spi.c ****   /* Prevent unused argument(s) compilation warning */
 486:Drivers/STM32F1xx_HAL_Driver/Src/stm32f1xx_hal_spi.c ****   UNUSED(hspi);
 487:Drivers/STM32F1xx_HAL_Driver/Src/stm32f1xx_hal_spi.c **** 
 488:Drivers/STM32F1xx_HAL_Driver/Src/stm32f1xx_hal_spi.c ****   /* NOTE : This function should not be modified, when the callback is needed,
 489:Drivers/STM32F1xx_HAL_Driver/Src/stm32f1xx_hal_spi.c ****             the HAL_SPI_MspInit should be implemented in the user file
 490:Drivers/STM32F1xx_HAL_Driver/Src/stm32f1xx_hal_spi.c ****    */
 491:Drivers/STM32F1xx_HAL_Driver/Src/stm32f1xx_hal_spi.c **** }
ARM GAS  C:\Users\Alex\AppData\Local\Temp\ccfYuLQH.s 			page 14


 256              		.loc 1 491 1
 257 0008 00BF     		nop
 258 000a 0C37     		adds	r7, r7, #12
 259              	.LCFI13:
 260              		.cfi_def_cfa_offset 4
 261 000c BD46     		mov	sp, r7
 262              	.LCFI14:
 263              		.cfi_def_cfa_register 13
 264              		@ sp needed
 265 000e 80BC     		pop	{r7}
 266              	.LCFI15:
 267              		.cfi_restore 7
 268              		.cfi_def_cfa_offset 0
 269 0010 7047     		bx	lr
 270              		.cfi_endproc
 271              	.LFE67:
 273              		.section	.text.HAL_SPI_MspDeInit,"ax",%progbits
 274              		.align	1
 275              		.weak	HAL_SPI_MspDeInit
 276              		.syntax unified
 277              		.thumb
 278              		.thumb_func
 279              		.fpu softvfp
 281              	HAL_SPI_MspDeInit:
 282              	.LFB68:
 492:Drivers/STM32F1xx_HAL_Driver/Src/stm32f1xx_hal_spi.c **** 
 493:Drivers/STM32F1xx_HAL_Driver/Src/stm32f1xx_hal_spi.c **** /**
 494:Drivers/STM32F1xx_HAL_Driver/Src/stm32f1xx_hal_spi.c ****   * @brief  De-Initialize the SPI MSP.
 495:Drivers/STM32F1xx_HAL_Driver/Src/stm32f1xx_hal_spi.c ****   * @param  hspi pointer to a SPI_HandleTypeDef structure that contains
 496:Drivers/STM32F1xx_HAL_Driver/Src/stm32f1xx_hal_spi.c ****   *               the configuration information for SPI module.
 497:Drivers/STM32F1xx_HAL_Driver/Src/stm32f1xx_hal_spi.c ****   * @retval None
 498:Drivers/STM32F1xx_HAL_Driver/Src/stm32f1xx_hal_spi.c ****   */
 499:Drivers/STM32F1xx_HAL_Driver/Src/stm32f1xx_hal_spi.c **** __weak void HAL_SPI_MspDeInit(SPI_HandleTypeDef *hspi)
 500:Drivers/STM32F1xx_HAL_Driver/Src/stm32f1xx_hal_spi.c **** {
 283              		.loc 1 500 1
 284              		.cfi_startproc
 285              		@ args = 0, pretend = 0, frame = 8
 286              		@ frame_needed = 1, uses_anonymous_args = 0
 287              		@ link register save eliminated.
 288 0000 80B4     		push	{r7}
 289              	.LCFI16:
 290              		.cfi_def_cfa_offset 4
 291              		.cfi_offset 7, -4
 292 0002 83B0     		sub	sp, sp, #12
 293              	.LCFI17:
 294              		.cfi_def_cfa_offset 16
 295 0004 00AF     		add	r7, sp, #0
 296              	.LCFI18:
 297              		.cfi_def_cfa_register 7
 298 0006 7860     		str	r0, [r7, #4]
 501:Drivers/STM32F1xx_HAL_Driver/Src/stm32f1xx_hal_spi.c ****   /* Prevent unused argument(s) compilation warning */
 502:Drivers/STM32F1xx_HAL_Driver/Src/stm32f1xx_hal_spi.c ****   UNUSED(hspi);
 503:Drivers/STM32F1xx_HAL_Driver/Src/stm32f1xx_hal_spi.c **** 
 504:Drivers/STM32F1xx_HAL_Driver/Src/stm32f1xx_hal_spi.c ****   /* NOTE : This function should not be modified, when the callback is needed,
 505:Drivers/STM32F1xx_HAL_Driver/Src/stm32f1xx_hal_spi.c ****             the HAL_SPI_MspDeInit should be implemented in the user file
 506:Drivers/STM32F1xx_HAL_Driver/Src/stm32f1xx_hal_spi.c ****    */
 507:Drivers/STM32F1xx_HAL_Driver/Src/stm32f1xx_hal_spi.c **** }
ARM GAS  C:\Users\Alex\AppData\Local\Temp\ccfYuLQH.s 			page 15


 299              		.loc 1 507 1
 300 0008 00BF     		nop
 301 000a 0C37     		adds	r7, r7, #12
 302              	.LCFI19:
 303              		.cfi_def_cfa_offset 4
 304 000c BD46     		mov	sp, r7
 305              	.LCFI20:
 306              		.cfi_def_cfa_register 13
 307              		@ sp needed
 308 000e 80BC     		pop	{r7}
 309              	.LCFI21:
 310              		.cfi_restore 7
 311              		.cfi_def_cfa_offset 0
 312 0010 7047     		bx	lr
 313              		.cfi_endproc
 314              	.LFE68:
 316              		.section	.text.HAL_SPI_Transmit,"ax",%progbits
 317              		.align	1
 318              		.global	HAL_SPI_Transmit
 319              		.syntax unified
 320              		.thumb
 321              		.thumb_func
 322              		.fpu softvfp
 324              	HAL_SPI_Transmit:
 325              	.LFB69:
 508:Drivers/STM32F1xx_HAL_Driver/Src/stm32f1xx_hal_spi.c **** 
 509:Drivers/STM32F1xx_HAL_Driver/Src/stm32f1xx_hal_spi.c **** #if (USE_HAL_SPI_REGISTER_CALLBACKS == 1U)
 510:Drivers/STM32F1xx_HAL_Driver/Src/stm32f1xx_hal_spi.c **** /**
 511:Drivers/STM32F1xx_HAL_Driver/Src/stm32f1xx_hal_spi.c ****   * @brief  Register a User SPI Callback
 512:Drivers/STM32F1xx_HAL_Driver/Src/stm32f1xx_hal_spi.c ****   *         To be used instead of the weak predefined callback
 513:Drivers/STM32F1xx_HAL_Driver/Src/stm32f1xx_hal_spi.c ****   * @param  hspi Pointer to a SPI_HandleTypeDef structure that contains
 514:Drivers/STM32F1xx_HAL_Driver/Src/stm32f1xx_hal_spi.c ****   *                the configuration information for the specified SPI.
 515:Drivers/STM32F1xx_HAL_Driver/Src/stm32f1xx_hal_spi.c ****   * @param  CallbackID ID of the callback to be registered
 516:Drivers/STM32F1xx_HAL_Driver/Src/stm32f1xx_hal_spi.c ****   * @param  pCallback pointer to the Callback function
 517:Drivers/STM32F1xx_HAL_Driver/Src/stm32f1xx_hal_spi.c ****   * @retval HAL status
 518:Drivers/STM32F1xx_HAL_Driver/Src/stm32f1xx_hal_spi.c ****   */
 519:Drivers/STM32F1xx_HAL_Driver/Src/stm32f1xx_hal_spi.c **** HAL_StatusTypeDef HAL_SPI_RegisterCallback(SPI_HandleTypeDef *hspi, HAL_SPI_CallbackIDTypeDef Callb
 520:Drivers/STM32F1xx_HAL_Driver/Src/stm32f1xx_hal_spi.c ****                                            pSPI_CallbackTypeDef pCallback)
 521:Drivers/STM32F1xx_HAL_Driver/Src/stm32f1xx_hal_spi.c **** {
 522:Drivers/STM32F1xx_HAL_Driver/Src/stm32f1xx_hal_spi.c ****   HAL_StatusTypeDef status = HAL_OK;
 523:Drivers/STM32F1xx_HAL_Driver/Src/stm32f1xx_hal_spi.c **** 
 524:Drivers/STM32F1xx_HAL_Driver/Src/stm32f1xx_hal_spi.c ****   if (pCallback == NULL)
 525:Drivers/STM32F1xx_HAL_Driver/Src/stm32f1xx_hal_spi.c ****   {
 526:Drivers/STM32F1xx_HAL_Driver/Src/stm32f1xx_hal_spi.c ****     /* Update the error code */
 527:Drivers/STM32F1xx_HAL_Driver/Src/stm32f1xx_hal_spi.c ****     hspi->ErrorCode |= HAL_SPI_ERROR_INVALID_CALLBACK;
 528:Drivers/STM32F1xx_HAL_Driver/Src/stm32f1xx_hal_spi.c **** 
 529:Drivers/STM32F1xx_HAL_Driver/Src/stm32f1xx_hal_spi.c ****     return HAL_ERROR;
 530:Drivers/STM32F1xx_HAL_Driver/Src/stm32f1xx_hal_spi.c ****   }
 531:Drivers/STM32F1xx_HAL_Driver/Src/stm32f1xx_hal_spi.c ****   /* Process locked */
 532:Drivers/STM32F1xx_HAL_Driver/Src/stm32f1xx_hal_spi.c ****   __HAL_LOCK(hspi);
 533:Drivers/STM32F1xx_HAL_Driver/Src/stm32f1xx_hal_spi.c **** 
 534:Drivers/STM32F1xx_HAL_Driver/Src/stm32f1xx_hal_spi.c ****   if (HAL_SPI_STATE_READY == hspi->State)
 535:Drivers/STM32F1xx_HAL_Driver/Src/stm32f1xx_hal_spi.c ****   {
 536:Drivers/STM32F1xx_HAL_Driver/Src/stm32f1xx_hal_spi.c ****     switch (CallbackID)
 537:Drivers/STM32F1xx_HAL_Driver/Src/stm32f1xx_hal_spi.c ****     {
 538:Drivers/STM32F1xx_HAL_Driver/Src/stm32f1xx_hal_spi.c ****       case HAL_SPI_TX_COMPLETE_CB_ID :
 539:Drivers/STM32F1xx_HAL_Driver/Src/stm32f1xx_hal_spi.c ****         hspi->TxCpltCallback = pCallback;
ARM GAS  C:\Users\Alex\AppData\Local\Temp\ccfYuLQH.s 			page 16


 540:Drivers/STM32F1xx_HAL_Driver/Src/stm32f1xx_hal_spi.c ****         break;
 541:Drivers/STM32F1xx_HAL_Driver/Src/stm32f1xx_hal_spi.c **** 
 542:Drivers/STM32F1xx_HAL_Driver/Src/stm32f1xx_hal_spi.c ****       case HAL_SPI_RX_COMPLETE_CB_ID :
 543:Drivers/STM32F1xx_HAL_Driver/Src/stm32f1xx_hal_spi.c ****         hspi->RxCpltCallback = pCallback;
 544:Drivers/STM32F1xx_HAL_Driver/Src/stm32f1xx_hal_spi.c ****         break;
 545:Drivers/STM32F1xx_HAL_Driver/Src/stm32f1xx_hal_spi.c **** 
 546:Drivers/STM32F1xx_HAL_Driver/Src/stm32f1xx_hal_spi.c ****       case HAL_SPI_TX_RX_COMPLETE_CB_ID :
 547:Drivers/STM32F1xx_HAL_Driver/Src/stm32f1xx_hal_spi.c ****         hspi->TxRxCpltCallback = pCallback;
 548:Drivers/STM32F1xx_HAL_Driver/Src/stm32f1xx_hal_spi.c ****         break;
 549:Drivers/STM32F1xx_HAL_Driver/Src/stm32f1xx_hal_spi.c **** 
 550:Drivers/STM32F1xx_HAL_Driver/Src/stm32f1xx_hal_spi.c ****       case HAL_SPI_TX_HALF_COMPLETE_CB_ID :
 551:Drivers/STM32F1xx_HAL_Driver/Src/stm32f1xx_hal_spi.c ****         hspi->TxHalfCpltCallback = pCallback;
 552:Drivers/STM32F1xx_HAL_Driver/Src/stm32f1xx_hal_spi.c ****         break;
 553:Drivers/STM32F1xx_HAL_Driver/Src/stm32f1xx_hal_spi.c **** 
 554:Drivers/STM32F1xx_HAL_Driver/Src/stm32f1xx_hal_spi.c ****       case HAL_SPI_RX_HALF_COMPLETE_CB_ID :
 555:Drivers/STM32F1xx_HAL_Driver/Src/stm32f1xx_hal_spi.c ****         hspi->RxHalfCpltCallback = pCallback;
 556:Drivers/STM32F1xx_HAL_Driver/Src/stm32f1xx_hal_spi.c ****         break;
 557:Drivers/STM32F1xx_HAL_Driver/Src/stm32f1xx_hal_spi.c **** 
 558:Drivers/STM32F1xx_HAL_Driver/Src/stm32f1xx_hal_spi.c ****       case HAL_SPI_TX_RX_HALF_COMPLETE_CB_ID :
 559:Drivers/STM32F1xx_HAL_Driver/Src/stm32f1xx_hal_spi.c ****         hspi->TxRxHalfCpltCallback = pCallback;
 560:Drivers/STM32F1xx_HAL_Driver/Src/stm32f1xx_hal_spi.c ****         break;
 561:Drivers/STM32F1xx_HAL_Driver/Src/stm32f1xx_hal_spi.c **** 
 562:Drivers/STM32F1xx_HAL_Driver/Src/stm32f1xx_hal_spi.c ****       case HAL_SPI_ERROR_CB_ID :
 563:Drivers/STM32F1xx_HAL_Driver/Src/stm32f1xx_hal_spi.c ****         hspi->ErrorCallback = pCallback;
 564:Drivers/STM32F1xx_HAL_Driver/Src/stm32f1xx_hal_spi.c ****         break;
 565:Drivers/STM32F1xx_HAL_Driver/Src/stm32f1xx_hal_spi.c **** 
 566:Drivers/STM32F1xx_HAL_Driver/Src/stm32f1xx_hal_spi.c ****       case HAL_SPI_ABORT_CB_ID :
 567:Drivers/STM32F1xx_HAL_Driver/Src/stm32f1xx_hal_spi.c ****         hspi->AbortCpltCallback = pCallback;
 568:Drivers/STM32F1xx_HAL_Driver/Src/stm32f1xx_hal_spi.c ****         break;
 569:Drivers/STM32F1xx_HAL_Driver/Src/stm32f1xx_hal_spi.c **** 
 570:Drivers/STM32F1xx_HAL_Driver/Src/stm32f1xx_hal_spi.c ****       case HAL_SPI_MSPINIT_CB_ID :
 571:Drivers/STM32F1xx_HAL_Driver/Src/stm32f1xx_hal_spi.c ****         hspi->MspInitCallback = pCallback;
 572:Drivers/STM32F1xx_HAL_Driver/Src/stm32f1xx_hal_spi.c ****         break;
 573:Drivers/STM32F1xx_HAL_Driver/Src/stm32f1xx_hal_spi.c **** 
 574:Drivers/STM32F1xx_HAL_Driver/Src/stm32f1xx_hal_spi.c ****       case HAL_SPI_MSPDEINIT_CB_ID :
 575:Drivers/STM32F1xx_HAL_Driver/Src/stm32f1xx_hal_spi.c ****         hspi->MspDeInitCallback = pCallback;
 576:Drivers/STM32F1xx_HAL_Driver/Src/stm32f1xx_hal_spi.c ****         break;
 577:Drivers/STM32F1xx_HAL_Driver/Src/stm32f1xx_hal_spi.c **** 
 578:Drivers/STM32F1xx_HAL_Driver/Src/stm32f1xx_hal_spi.c ****       default :
 579:Drivers/STM32F1xx_HAL_Driver/Src/stm32f1xx_hal_spi.c ****         /* Update the error code */
 580:Drivers/STM32F1xx_HAL_Driver/Src/stm32f1xx_hal_spi.c ****         SET_BIT(hspi->ErrorCode, HAL_SPI_ERROR_INVALID_CALLBACK);
 581:Drivers/STM32F1xx_HAL_Driver/Src/stm32f1xx_hal_spi.c **** 
 582:Drivers/STM32F1xx_HAL_Driver/Src/stm32f1xx_hal_spi.c ****         /* Return error status */
 583:Drivers/STM32F1xx_HAL_Driver/Src/stm32f1xx_hal_spi.c ****         status =  HAL_ERROR;
 584:Drivers/STM32F1xx_HAL_Driver/Src/stm32f1xx_hal_spi.c ****         break;
 585:Drivers/STM32F1xx_HAL_Driver/Src/stm32f1xx_hal_spi.c ****     }
 586:Drivers/STM32F1xx_HAL_Driver/Src/stm32f1xx_hal_spi.c ****   }
 587:Drivers/STM32F1xx_HAL_Driver/Src/stm32f1xx_hal_spi.c ****   else if (HAL_SPI_STATE_RESET == hspi->State)
 588:Drivers/STM32F1xx_HAL_Driver/Src/stm32f1xx_hal_spi.c ****   {
 589:Drivers/STM32F1xx_HAL_Driver/Src/stm32f1xx_hal_spi.c ****     switch (CallbackID)
 590:Drivers/STM32F1xx_HAL_Driver/Src/stm32f1xx_hal_spi.c ****     {
 591:Drivers/STM32F1xx_HAL_Driver/Src/stm32f1xx_hal_spi.c ****       case HAL_SPI_MSPINIT_CB_ID :
 592:Drivers/STM32F1xx_HAL_Driver/Src/stm32f1xx_hal_spi.c ****         hspi->MspInitCallback = pCallback;
 593:Drivers/STM32F1xx_HAL_Driver/Src/stm32f1xx_hal_spi.c ****         break;
 594:Drivers/STM32F1xx_HAL_Driver/Src/stm32f1xx_hal_spi.c **** 
 595:Drivers/STM32F1xx_HAL_Driver/Src/stm32f1xx_hal_spi.c ****       case HAL_SPI_MSPDEINIT_CB_ID :
 596:Drivers/STM32F1xx_HAL_Driver/Src/stm32f1xx_hal_spi.c ****         hspi->MspDeInitCallback = pCallback;
ARM GAS  C:\Users\Alex\AppData\Local\Temp\ccfYuLQH.s 			page 17


 597:Drivers/STM32F1xx_HAL_Driver/Src/stm32f1xx_hal_spi.c ****         break;
 598:Drivers/STM32F1xx_HAL_Driver/Src/stm32f1xx_hal_spi.c **** 
 599:Drivers/STM32F1xx_HAL_Driver/Src/stm32f1xx_hal_spi.c ****       default :
 600:Drivers/STM32F1xx_HAL_Driver/Src/stm32f1xx_hal_spi.c ****         /* Update the error code */
 601:Drivers/STM32F1xx_HAL_Driver/Src/stm32f1xx_hal_spi.c ****         SET_BIT(hspi->ErrorCode, HAL_SPI_ERROR_INVALID_CALLBACK);
 602:Drivers/STM32F1xx_HAL_Driver/Src/stm32f1xx_hal_spi.c **** 
 603:Drivers/STM32F1xx_HAL_Driver/Src/stm32f1xx_hal_spi.c ****         /* Return error status */
 604:Drivers/STM32F1xx_HAL_Driver/Src/stm32f1xx_hal_spi.c ****         status =  HAL_ERROR;
 605:Drivers/STM32F1xx_HAL_Driver/Src/stm32f1xx_hal_spi.c ****         break;
 606:Drivers/STM32F1xx_HAL_Driver/Src/stm32f1xx_hal_spi.c ****     }
 607:Drivers/STM32F1xx_HAL_Driver/Src/stm32f1xx_hal_spi.c ****   }
 608:Drivers/STM32F1xx_HAL_Driver/Src/stm32f1xx_hal_spi.c ****   else
 609:Drivers/STM32F1xx_HAL_Driver/Src/stm32f1xx_hal_spi.c ****   {
 610:Drivers/STM32F1xx_HAL_Driver/Src/stm32f1xx_hal_spi.c ****     /* Update the error code */
 611:Drivers/STM32F1xx_HAL_Driver/Src/stm32f1xx_hal_spi.c ****     SET_BIT(hspi->ErrorCode, HAL_SPI_ERROR_INVALID_CALLBACK);
 612:Drivers/STM32F1xx_HAL_Driver/Src/stm32f1xx_hal_spi.c **** 
 613:Drivers/STM32F1xx_HAL_Driver/Src/stm32f1xx_hal_spi.c ****     /* Return error status */
 614:Drivers/STM32F1xx_HAL_Driver/Src/stm32f1xx_hal_spi.c ****     status =  HAL_ERROR;
 615:Drivers/STM32F1xx_HAL_Driver/Src/stm32f1xx_hal_spi.c ****   }
 616:Drivers/STM32F1xx_HAL_Driver/Src/stm32f1xx_hal_spi.c **** 
 617:Drivers/STM32F1xx_HAL_Driver/Src/stm32f1xx_hal_spi.c ****   /* Release Lock */
 618:Drivers/STM32F1xx_HAL_Driver/Src/stm32f1xx_hal_spi.c ****   __HAL_UNLOCK(hspi);
 619:Drivers/STM32F1xx_HAL_Driver/Src/stm32f1xx_hal_spi.c ****   return status;
 620:Drivers/STM32F1xx_HAL_Driver/Src/stm32f1xx_hal_spi.c **** }
 621:Drivers/STM32F1xx_HAL_Driver/Src/stm32f1xx_hal_spi.c **** 
 622:Drivers/STM32F1xx_HAL_Driver/Src/stm32f1xx_hal_spi.c **** /**
 623:Drivers/STM32F1xx_HAL_Driver/Src/stm32f1xx_hal_spi.c ****   * @brief  Unregister an SPI Callback
 624:Drivers/STM32F1xx_HAL_Driver/Src/stm32f1xx_hal_spi.c ****   *         SPI callback is redirected to the weak predefined callback
 625:Drivers/STM32F1xx_HAL_Driver/Src/stm32f1xx_hal_spi.c ****   * @param  hspi Pointer to a SPI_HandleTypeDef structure that contains
 626:Drivers/STM32F1xx_HAL_Driver/Src/stm32f1xx_hal_spi.c ****   *                the configuration information for the specified SPI.
 627:Drivers/STM32F1xx_HAL_Driver/Src/stm32f1xx_hal_spi.c ****   * @param  CallbackID ID of the callback to be unregistered
 628:Drivers/STM32F1xx_HAL_Driver/Src/stm32f1xx_hal_spi.c ****   * @retval HAL status
 629:Drivers/STM32F1xx_HAL_Driver/Src/stm32f1xx_hal_spi.c ****   */
 630:Drivers/STM32F1xx_HAL_Driver/Src/stm32f1xx_hal_spi.c **** HAL_StatusTypeDef HAL_SPI_UnRegisterCallback(SPI_HandleTypeDef *hspi, HAL_SPI_CallbackIDTypeDef Cal
 631:Drivers/STM32F1xx_HAL_Driver/Src/stm32f1xx_hal_spi.c **** {
 632:Drivers/STM32F1xx_HAL_Driver/Src/stm32f1xx_hal_spi.c ****   HAL_StatusTypeDef status = HAL_OK;
 633:Drivers/STM32F1xx_HAL_Driver/Src/stm32f1xx_hal_spi.c **** 
 634:Drivers/STM32F1xx_HAL_Driver/Src/stm32f1xx_hal_spi.c ****   /* Process locked */
 635:Drivers/STM32F1xx_HAL_Driver/Src/stm32f1xx_hal_spi.c ****   __HAL_LOCK(hspi);
 636:Drivers/STM32F1xx_HAL_Driver/Src/stm32f1xx_hal_spi.c **** 
 637:Drivers/STM32F1xx_HAL_Driver/Src/stm32f1xx_hal_spi.c ****   if (HAL_SPI_STATE_READY == hspi->State)
 638:Drivers/STM32F1xx_HAL_Driver/Src/stm32f1xx_hal_spi.c ****   {
 639:Drivers/STM32F1xx_HAL_Driver/Src/stm32f1xx_hal_spi.c ****     switch (CallbackID)
 640:Drivers/STM32F1xx_HAL_Driver/Src/stm32f1xx_hal_spi.c ****     {
 641:Drivers/STM32F1xx_HAL_Driver/Src/stm32f1xx_hal_spi.c ****       case HAL_SPI_TX_COMPLETE_CB_ID :
 642:Drivers/STM32F1xx_HAL_Driver/Src/stm32f1xx_hal_spi.c ****         hspi->TxCpltCallback = HAL_SPI_TxCpltCallback;             /* Legacy weak TxCpltCallback   
 643:Drivers/STM32F1xx_HAL_Driver/Src/stm32f1xx_hal_spi.c ****         break;
 644:Drivers/STM32F1xx_HAL_Driver/Src/stm32f1xx_hal_spi.c **** 
 645:Drivers/STM32F1xx_HAL_Driver/Src/stm32f1xx_hal_spi.c ****       case HAL_SPI_RX_COMPLETE_CB_ID :
 646:Drivers/STM32F1xx_HAL_Driver/Src/stm32f1xx_hal_spi.c ****         hspi->RxCpltCallback = HAL_SPI_RxCpltCallback;             /* Legacy weak RxCpltCallback   
 647:Drivers/STM32F1xx_HAL_Driver/Src/stm32f1xx_hal_spi.c ****         break;
 648:Drivers/STM32F1xx_HAL_Driver/Src/stm32f1xx_hal_spi.c **** 
 649:Drivers/STM32F1xx_HAL_Driver/Src/stm32f1xx_hal_spi.c ****       case HAL_SPI_TX_RX_COMPLETE_CB_ID :
 650:Drivers/STM32F1xx_HAL_Driver/Src/stm32f1xx_hal_spi.c ****         hspi->TxRxCpltCallback = HAL_SPI_TxRxCpltCallback;         /* Legacy weak TxRxCpltCallback 
 651:Drivers/STM32F1xx_HAL_Driver/Src/stm32f1xx_hal_spi.c ****         break;
 652:Drivers/STM32F1xx_HAL_Driver/Src/stm32f1xx_hal_spi.c **** 
 653:Drivers/STM32F1xx_HAL_Driver/Src/stm32f1xx_hal_spi.c ****       case HAL_SPI_TX_HALF_COMPLETE_CB_ID :
ARM GAS  C:\Users\Alex\AppData\Local\Temp\ccfYuLQH.s 			page 18


 654:Drivers/STM32F1xx_HAL_Driver/Src/stm32f1xx_hal_spi.c ****         hspi->TxHalfCpltCallback = HAL_SPI_TxHalfCpltCallback;     /* Legacy weak TxHalfCpltCallbac
 655:Drivers/STM32F1xx_HAL_Driver/Src/stm32f1xx_hal_spi.c ****         break;
 656:Drivers/STM32F1xx_HAL_Driver/Src/stm32f1xx_hal_spi.c **** 
 657:Drivers/STM32F1xx_HAL_Driver/Src/stm32f1xx_hal_spi.c ****       case HAL_SPI_RX_HALF_COMPLETE_CB_ID :
 658:Drivers/STM32F1xx_HAL_Driver/Src/stm32f1xx_hal_spi.c ****         hspi->RxHalfCpltCallback = HAL_SPI_RxHalfCpltCallback;     /* Legacy weak RxHalfCpltCallbac
 659:Drivers/STM32F1xx_HAL_Driver/Src/stm32f1xx_hal_spi.c ****         break;
 660:Drivers/STM32F1xx_HAL_Driver/Src/stm32f1xx_hal_spi.c **** 
 661:Drivers/STM32F1xx_HAL_Driver/Src/stm32f1xx_hal_spi.c ****       case HAL_SPI_TX_RX_HALF_COMPLETE_CB_ID :
 662:Drivers/STM32F1xx_HAL_Driver/Src/stm32f1xx_hal_spi.c ****         hspi->TxRxHalfCpltCallback = HAL_SPI_TxRxHalfCpltCallback; /* Legacy weak TxRxHalfCpltCallb
 663:Drivers/STM32F1xx_HAL_Driver/Src/stm32f1xx_hal_spi.c ****         break;
 664:Drivers/STM32F1xx_HAL_Driver/Src/stm32f1xx_hal_spi.c **** 
 665:Drivers/STM32F1xx_HAL_Driver/Src/stm32f1xx_hal_spi.c ****       case HAL_SPI_ERROR_CB_ID :
 666:Drivers/STM32F1xx_HAL_Driver/Src/stm32f1xx_hal_spi.c ****         hspi->ErrorCallback = HAL_SPI_ErrorCallback;               /* Legacy weak ErrorCallback    
 667:Drivers/STM32F1xx_HAL_Driver/Src/stm32f1xx_hal_spi.c ****         break;
 668:Drivers/STM32F1xx_HAL_Driver/Src/stm32f1xx_hal_spi.c **** 
 669:Drivers/STM32F1xx_HAL_Driver/Src/stm32f1xx_hal_spi.c ****       case HAL_SPI_ABORT_CB_ID :
 670:Drivers/STM32F1xx_HAL_Driver/Src/stm32f1xx_hal_spi.c ****         hspi->AbortCpltCallback = HAL_SPI_AbortCpltCallback;       /* Legacy weak AbortCpltCallback
 671:Drivers/STM32F1xx_HAL_Driver/Src/stm32f1xx_hal_spi.c ****         break;
 672:Drivers/STM32F1xx_HAL_Driver/Src/stm32f1xx_hal_spi.c **** 
 673:Drivers/STM32F1xx_HAL_Driver/Src/stm32f1xx_hal_spi.c ****       case HAL_SPI_MSPINIT_CB_ID :
 674:Drivers/STM32F1xx_HAL_Driver/Src/stm32f1xx_hal_spi.c ****         hspi->MspInitCallback = HAL_SPI_MspInit;                   /* Legacy weak MspInit          
 675:Drivers/STM32F1xx_HAL_Driver/Src/stm32f1xx_hal_spi.c ****         break;
 676:Drivers/STM32F1xx_HAL_Driver/Src/stm32f1xx_hal_spi.c **** 
 677:Drivers/STM32F1xx_HAL_Driver/Src/stm32f1xx_hal_spi.c ****       case HAL_SPI_MSPDEINIT_CB_ID :
 678:Drivers/STM32F1xx_HAL_Driver/Src/stm32f1xx_hal_spi.c ****         hspi->MspDeInitCallback = HAL_SPI_MspDeInit;               /* Legacy weak MspDeInit        
 679:Drivers/STM32F1xx_HAL_Driver/Src/stm32f1xx_hal_spi.c ****         break;
 680:Drivers/STM32F1xx_HAL_Driver/Src/stm32f1xx_hal_spi.c **** 
 681:Drivers/STM32F1xx_HAL_Driver/Src/stm32f1xx_hal_spi.c ****       default :
 682:Drivers/STM32F1xx_HAL_Driver/Src/stm32f1xx_hal_spi.c ****         /* Update the error code */
 683:Drivers/STM32F1xx_HAL_Driver/Src/stm32f1xx_hal_spi.c ****         SET_BIT(hspi->ErrorCode, HAL_SPI_ERROR_INVALID_CALLBACK);
 684:Drivers/STM32F1xx_HAL_Driver/Src/stm32f1xx_hal_spi.c **** 
 685:Drivers/STM32F1xx_HAL_Driver/Src/stm32f1xx_hal_spi.c ****         /* Return error status */
 686:Drivers/STM32F1xx_HAL_Driver/Src/stm32f1xx_hal_spi.c ****         status =  HAL_ERROR;
 687:Drivers/STM32F1xx_HAL_Driver/Src/stm32f1xx_hal_spi.c ****         break;
 688:Drivers/STM32F1xx_HAL_Driver/Src/stm32f1xx_hal_spi.c ****     }
 689:Drivers/STM32F1xx_HAL_Driver/Src/stm32f1xx_hal_spi.c ****   }
 690:Drivers/STM32F1xx_HAL_Driver/Src/stm32f1xx_hal_spi.c ****   else if (HAL_SPI_STATE_RESET == hspi->State)
 691:Drivers/STM32F1xx_HAL_Driver/Src/stm32f1xx_hal_spi.c ****   {
 692:Drivers/STM32F1xx_HAL_Driver/Src/stm32f1xx_hal_spi.c ****     switch (CallbackID)
 693:Drivers/STM32F1xx_HAL_Driver/Src/stm32f1xx_hal_spi.c ****     {
 694:Drivers/STM32F1xx_HAL_Driver/Src/stm32f1xx_hal_spi.c ****       case HAL_SPI_MSPINIT_CB_ID :
 695:Drivers/STM32F1xx_HAL_Driver/Src/stm32f1xx_hal_spi.c ****         hspi->MspInitCallback = HAL_SPI_MspInit;                   /* Legacy weak MspInit          
 696:Drivers/STM32F1xx_HAL_Driver/Src/stm32f1xx_hal_spi.c ****         break;
 697:Drivers/STM32F1xx_HAL_Driver/Src/stm32f1xx_hal_spi.c **** 
 698:Drivers/STM32F1xx_HAL_Driver/Src/stm32f1xx_hal_spi.c ****       case HAL_SPI_MSPDEINIT_CB_ID :
 699:Drivers/STM32F1xx_HAL_Driver/Src/stm32f1xx_hal_spi.c ****         hspi->MspDeInitCallback = HAL_SPI_MspDeInit;               /* Legacy weak MspDeInit        
 700:Drivers/STM32F1xx_HAL_Driver/Src/stm32f1xx_hal_spi.c ****         break;
 701:Drivers/STM32F1xx_HAL_Driver/Src/stm32f1xx_hal_spi.c **** 
 702:Drivers/STM32F1xx_HAL_Driver/Src/stm32f1xx_hal_spi.c ****       default :
 703:Drivers/STM32F1xx_HAL_Driver/Src/stm32f1xx_hal_spi.c ****         /* Update the error code */
 704:Drivers/STM32F1xx_HAL_Driver/Src/stm32f1xx_hal_spi.c ****         SET_BIT(hspi->ErrorCode, HAL_SPI_ERROR_INVALID_CALLBACK);
 705:Drivers/STM32F1xx_HAL_Driver/Src/stm32f1xx_hal_spi.c **** 
 706:Drivers/STM32F1xx_HAL_Driver/Src/stm32f1xx_hal_spi.c ****         /* Return error status */
 707:Drivers/STM32F1xx_HAL_Driver/Src/stm32f1xx_hal_spi.c ****         status =  HAL_ERROR;
 708:Drivers/STM32F1xx_HAL_Driver/Src/stm32f1xx_hal_spi.c ****         break;
 709:Drivers/STM32F1xx_HAL_Driver/Src/stm32f1xx_hal_spi.c ****     }
 710:Drivers/STM32F1xx_HAL_Driver/Src/stm32f1xx_hal_spi.c ****   }
ARM GAS  C:\Users\Alex\AppData\Local\Temp\ccfYuLQH.s 			page 19


 711:Drivers/STM32F1xx_HAL_Driver/Src/stm32f1xx_hal_spi.c ****   else
 712:Drivers/STM32F1xx_HAL_Driver/Src/stm32f1xx_hal_spi.c ****   {
 713:Drivers/STM32F1xx_HAL_Driver/Src/stm32f1xx_hal_spi.c ****     /* Update the error code */
 714:Drivers/STM32F1xx_HAL_Driver/Src/stm32f1xx_hal_spi.c ****     SET_BIT(hspi->ErrorCode, HAL_SPI_ERROR_INVALID_CALLBACK);
 715:Drivers/STM32F1xx_HAL_Driver/Src/stm32f1xx_hal_spi.c **** 
 716:Drivers/STM32F1xx_HAL_Driver/Src/stm32f1xx_hal_spi.c ****     /* Return error status */
 717:Drivers/STM32F1xx_HAL_Driver/Src/stm32f1xx_hal_spi.c ****     status =  HAL_ERROR;
 718:Drivers/STM32F1xx_HAL_Driver/Src/stm32f1xx_hal_spi.c ****   }
 719:Drivers/STM32F1xx_HAL_Driver/Src/stm32f1xx_hal_spi.c **** 
 720:Drivers/STM32F1xx_HAL_Driver/Src/stm32f1xx_hal_spi.c ****   /* Release Lock */
 721:Drivers/STM32F1xx_HAL_Driver/Src/stm32f1xx_hal_spi.c ****   __HAL_UNLOCK(hspi);
 722:Drivers/STM32F1xx_HAL_Driver/Src/stm32f1xx_hal_spi.c ****   return status;
 723:Drivers/STM32F1xx_HAL_Driver/Src/stm32f1xx_hal_spi.c **** }
 724:Drivers/STM32F1xx_HAL_Driver/Src/stm32f1xx_hal_spi.c **** #endif /* USE_HAL_SPI_REGISTER_CALLBACKS */
 725:Drivers/STM32F1xx_HAL_Driver/Src/stm32f1xx_hal_spi.c **** /**
 726:Drivers/STM32F1xx_HAL_Driver/Src/stm32f1xx_hal_spi.c ****   * @}
 727:Drivers/STM32F1xx_HAL_Driver/Src/stm32f1xx_hal_spi.c ****   */
 728:Drivers/STM32F1xx_HAL_Driver/Src/stm32f1xx_hal_spi.c **** 
 729:Drivers/STM32F1xx_HAL_Driver/Src/stm32f1xx_hal_spi.c **** /** @defgroup SPI_Exported_Functions_Group2 IO operation functions
 730:Drivers/STM32F1xx_HAL_Driver/Src/stm32f1xx_hal_spi.c ****   *  @brief   Data transfers functions
 731:Drivers/STM32F1xx_HAL_Driver/Src/stm32f1xx_hal_spi.c ****   *
 732:Drivers/STM32F1xx_HAL_Driver/Src/stm32f1xx_hal_spi.c **** @verbatim
 733:Drivers/STM32F1xx_HAL_Driver/Src/stm32f1xx_hal_spi.c ****   ==============================================================================
 734:Drivers/STM32F1xx_HAL_Driver/Src/stm32f1xx_hal_spi.c ****                       ##### IO operation functions #####
 735:Drivers/STM32F1xx_HAL_Driver/Src/stm32f1xx_hal_spi.c ****  ===============================================================================
 736:Drivers/STM32F1xx_HAL_Driver/Src/stm32f1xx_hal_spi.c ****  [..]
 737:Drivers/STM32F1xx_HAL_Driver/Src/stm32f1xx_hal_spi.c ****     This subsection provides a set of functions allowing to manage the SPI
 738:Drivers/STM32F1xx_HAL_Driver/Src/stm32f1xx_hal_spi.c ****     data transfers.
 739:Drivers/STM32F1xx_HAL_Driver/Src/stm32f1xx_hal_spi.c **** 
 740:Drivers/STM32F1xx_HAL_Driver/Src/stm32f1xx_hal_spi.c ****     [..] The SPI supports master and slave mode :
 741:Drivers/STM32F1xx_HAL_Driver/Src/stm32f1xx_hal_spi.c **** 
 742:Drivers/STM32F1xx_HAL_Driver/Src/stm32f1xx_hal_spi.c ****     (#) There are two modes of transfer:
 743:Drivers/STM32F1xx_HAL_Driver/Src/stm32f1xx_hal_spi.c ****        (++) Blocking mode: The communication is performed in polling mode.
 744:Drivers/STM32F1xx_HAL_Driver/Src/stm32f1xx_hal_spi.c ****             The HAL status of all data processing is returned by the same function
 745:Drivers/STM32F1xx_HAL_Driver/Src/stm32f1xx_hal_spi.c ****             after finishing transfer.
 746:Drivers/STM32F1xx_HAL_Driver/Src/stm32f1xx_hal_spi.c ****        (++) No-Blocking mode: The communication is performed using Interrupts
 747:Drivers/STM32F1xx_HAL_Driver/Src/stm32f1xx_hal_spi.c ****             or DMA, These APIs return the HAL status.
 748:Drivers/STM32F1xx_HAL_Driver/Src/stm32f1xx_hal_spi.c ****             The end of the data processing will be indicated through the
 749:Drivers/STM32F1xx_HAL_Driver/Src/stm32f1xx_hal_spi.c ****             dedicated SPI IRQ when using Interrupt mode or the DMA IRQ when
 750:Drivers/STM32F1xx_HAL_Driver/Src/stm32f1xx_hal_spi.c ****             using DMA mode.
 751:Drivers/STM32F1xx_HAL_Driver/Src/stm32f1xx_hal_spi.c ****             The HAL_SPI_TxCpltCallback(), HAL_SPI_RxCpltCallback() and HAL_SPI_TxRxCpltCallback() u
 752:Drivers/STM32F1xx_HAL_Driver/Src/stm32f1xx_hal_spi.c ****             will be executed respectively at the end of the transmit or Receive process
 753:Drivers/STM32F1xx_HAL_Driver/Src/stm32f1xx_hal_spi.c ****             The HAL_SPI_ErrorCallback()user callback will be executed when a communication error is
 754:Drivers/STM32F1xx_HAL_Driver/Src/stm32f1xx_hal_spi.c **** 
 755:Drivers/STM32F1xx_HAL_Driver/Src/stm32f1xx_hal_spi.c ****     (#) APIs provided for these 2 transfer modes (Blocking mode or Non blocking mode using either I
 756:Drivers/STM32F1xx_HAL_Driver/Src/stm32f1xx_hal_spi.c ****         exist for 1Line (simplex) and 2Lines (full duplex) modes.
 757:Drivers/STM32F1xx_HAL_Driver/Src/stm32f1xx_hal_spi.c **** 
 758:Drivers/STM32F1xx_HAL_Driver/Src/stm32f1xx_hal_spi.c **** @endverbatim
 759:Drivers/STM32F1xx_HAL_Driver/Src/stm32f1xx_hal_spi.c ****   * @{
 760:Drivers/STM32F1xx_HAL_Driver/Src/stm32f1xx_hal_spi.c ****   */
 761:Drivers/STM32F1xx_HAL_Driver/Src/stm32f1xx_hal_spi.c **** 
 762:Drivers/STM32F1xx_HAL_Driver/Src/stm32f1xx_hal_spi.c **** /**
 763:Drivers/STM32F1xx_HAL_Driver/Src/stm32f1xx_hal_spi.c ****   * @brief  Transmit an amount of data in blocking mode.
 764:Drivers/STM32F1xx_HAL_Driver/Src/stm32f1xx_hal_spi.c ****   * @param  hspi pointer to a SPI_HandleTypeDef structure that contains
 765:Drivers/STM32F1xx_HAL_Driver/Src/stm32f1xx_hal_spi.c ****   *               the configuration information for SPI module.
 766:Drivers/STM32F1xx_HAL_Driver/Src/stm32f1xx_hal_spi.c ****   * @param  pData pointer to data buffer
 767:Drivers/STM32F1xx_HAL_Driver/Src/stm32f1xx_hal_spi.c ****   * @param  Size amount of data to be sent
ARM GAS  C:\Users\Alex\AppData\Local\Temp\ccfYuLQH.s 			page 20


 768:Drivers/STM32F1xx_HAL_Driver/Src/stm32f1xx_hal_spi.c ****   * @param  Timeout Timeout duration
 769:Drivers/STM32F1xx_HAL_Driver/Src/stm32f1xx_hal_spi.c ****   * @retval HAL status
 770:Drivers/STM32F1xx_HAL_Driver/Src/stm32f1xx_hal_spi.c ****   */
 771:Drivers/STM32F1xx_HAL_Driver/Src/stm32f1xx_hal_spi.c **** HAL_StatusTypeDef HAL_SPI_Transmit(SPI_HandleTypeDef *hspi, uint8_t *pData, uint16_t Size, uint32_t
 772:Drivers/STM32F1xx_HAL_Driver/Src/stm32f1xx_hal_spi.c **** {
 326              		.loc 1 772 1
 327              		.cfi_startproc
 328              		@ args = 0, pretend = 0, frame = 32
 329              		@ frame_needed = 1, uses_anonymous_args = 0
 330 0000 80B5     		push	{r7, lr}
 331              	.LCFI22:
 332              		.cfi_def_cfa_offset 8
 333              		.cfi_offset 7, -8
 334              		.cfi_offset 14, -4
 335 0002 88B0     		sub	sp, sp, #32
 336              	.LCFI23:
 337              		.cfi_def_cfa_offset 40
 338 0004 00AF     		add	r7, sp, #0
 339              	.LCFI24:
 340              		.cfi_def_cfa_register 7
 341 0006 F860     		str	r0, [r7, #12]
 342 0008 B960     		str	r1, [r7, #8]
 343 000a 3B60     		str	r3, [r7]
 344 000c 1346     		mov	r3, r2	@ movhi
 345 000e FB80     		strh	r3, [r7, #6]	@ movhi
 773:Drivers/STM32F1xx_HAL_Driver/Src/stm32f1xx_hal_spi.c ****   uint32_t tickstart;
 774:Drivers/STM32F1xx_HAL_Driver/Src/stm32f1xx_hal_spi.c ****   HAL_StatusTypeDef errorcode = HAL_OK;
 346              		.loc 1 774 21
 347 0010 0023     		movs	r3, #0
 348 0012 FB77     		strb	r3, [r7, #31]
 775:Drivers/STM32F1xx_HAL_Driver/Src/stm32f1xx_hal_spi.c ****   uint16_t initial_TxXferCount;
 776:Drivers/STM32F1xx_HAL_Driver/Src/stm32f1xx_hal_spi.c **** 
 777:Drivers/STM32F1xx_HAL_Driver/Src/stm32f1xx_hal_spi.c ****   /* Check Direction parameter */
 778:Drivers/STM32F1xx_HAL_Driver/Src/stm32f1xx_hal_spi.c ****   assert_param(IS_SPI_DIRECTION_2LINES_OR_1LINE(hspi->Init.Direction));
 779:Drivers/STM32F1xx_HAL_Driver/Src/stm32f1xx_hal_spi.c **** 
 780:Drivers/STM32F1xx_HAL_Driver/Src/stm32f1xx_hal_spi.c ****   /* Process Locked */
 781:Drivers/STM32F1xx_HAL_Driver/Src/stm32f1xx_hal_spi.c ****   __HAL_LOCK(hspi);
 349              		.loc 1 781 3
 350 0014 FB68     		ldr	r3, [r7, #12]
 351 0016 93F85030 		ldrb	r3, [r3, #80]	@ zero_extendqisi2
 352 001a 012B     		cmp	r3, #1
 353 001c 01D1     		bne	.L11
 354              		.loc 1 781 3 is_stmt 0 discriminator 1
 355 001e 0223     		movs	r3, #2
 356 0020 1EE1     		b	.L12
 357              	.L11:
 358              		.loc 1 781 3 discriminator 2
 359 0022 FB68     		ldr	r3, [r7, #12]
 360 0024 0122     		movs	r2, #1
 361 0026 83F85020 		strb	r2, [r3, #80]
 782:Drivers/STM32F1xx_HAL_Driver/Src/stm32f1xx_hal_spi.c **** 
 783:Drivers/STM32F1xx_HAL_Driver/Src/stm32f1xx_hal_spi.c ****   /* Init tickstart for timeout management*/
 784:Drivers/STM32F1xx_HAL_Driver/Src/stm32f1xx_hal_spi.c ****   tickstart = HAL_GetTick();
 362              		.loc 1 784 15 is_stmt 1 discriminator 2
 363 002a FFF7FEFF 		bl	HAL_GetTick
 364 002e B861     		str	r0, [r7, #24]
 785:Drivers/STM32F1xx_HAL_Driver/Src/stm32f1xx_hal_spi.c ****   initial_TxXferCount = Size;
ARM GAS  C:\Users\Alex\AppData\Local\Temp\ccfYuLQH.s 			page 21


 365              		.loc 1 785 23 discriminator 2
 366 0030 FB88     		ldrh	r3, [r7, #6]	@ movhi
 367 0032 FB82     		strh	r3, [r7, #22]	@ movhi
 786:Drivers/STM32F1xx_HAL_Driver/Src/stm32f1xx_hal_spi.c **** 
 787:Drivers/STM32F1xx_HAL_Driver/Src/stm32f1xx_hal_spi.c ****   if (hspi->State != HAL_SPI_STATE_READY)
 368              		.loc 1 787 11 discriminator 2
 369 0034 FB68     		ldr	r3, [r7, #12]
 370 0036 93F85130 		ldrb	r3, [r3, #81]
 371 003a DBB2     		uxtb	r3, r3
 372              		.loc 1 787 6 discriminator 2
 373 003c 012B     		cmp	r3, #1
 374 003e 02D0     		beq	.L13
 788:Drivers/STM32F1xx_HAL_Driver/Src/stm32f1xx_hal_spi.c ****   {
 789:Drivers/STM32F1xx_HAL_Driver/Src/stm32f1xx_hal_spi.c ****     errorcode = HAL_BUSY;
 375              		.loc 1 789 15
 376 0040 0223     		movs	r3, #2
 377 0042 FB77     		strb	r3, [r7, #31]
 790:Drivers/STM32F1xx_HAL_Driver/Src/stm32f1xx_hal_spi.c ****     goto error;
 378              		.loc 1 790 5
 379 0044 03E1     		b	.L14
 380              	.L13:
 791:Drivers/STM32F1xx_HAL_Driver/Src/stm32f1xx_hal_spi.c ****   }
 792:Drivers/STM32F1xx_HAL_Driver/Src/stm32f1xx_hal_spi.c **** 
 793:Drivers/STM32F1xx_HAL_Driver/Src/stm32f1xx_hal_spi.c ****   if ((pData == NULL) || (Size == 0U))
 381              		.loc 1 793 6
 382 0046 BB68     		ldr	r3, [r7, #8]
 383 0048 002B     		cmp	r3, #0
 384 004a 02D0     		beq	.L15
 385              		.loc 1 793 23 discriminator 1
 386 004c FB88     		ldrh	r3, [r7, #6]
 387 004e 002B     		cmp	r3, #0
 388 0050 02D1     		bne	.L16
 389              	.L15:
 794:Drivers/STM32F1xx_HAL_Driver/Src/stm32f1xx_hal_spi.c ****   {
 795:Drivers/STM32F1xx_HAL_Driver/Src/stm32f1xx_hal_spi.c ****     errorcode = HAL_ERROR;
 390              		.loc 1 795 15
 391 0052 0123     		movs	r3, #1
 392 0054 FB77     		strb	r3, [r7, #31]
 796:Drivers/STM32F1xx_HAL_Driver/Src/stm32f1xx_hal_spi.c ****     goto error;
 393              		.loc 1 796 5
 394 0056 FAE0     		b	.L14
 395              	.L16:
 797:Drivers/STM32F1xx_HAL_Driver/Src/stm32f1xx_hal_spi.c ****   }
 798:Drivers/STM32F1xx_HAL_Driver/Src/stm32f1xx_hal_spi.c **** 
 799:Drivers/STM32F1xx_HAL_Driver/Src/stm32f1xx_hal_spi.c ****   /* Set the transaction information */
 800:Drivers/STM32F1xx_HAL_Driver/Src/stm32f1xx_hal_spi.c ****   hspi->State       = HAL_SPI_STATE_BUSY_TX;
 396              		.loc 1 800 21
 397 0058 FB68     		ldr	r3, [r7, #12]
 398 005a 0322     		movs	r2, #3
 399 005c 83F85120 		strb	r2, [r3, #81]
 801:Drivers/STM32F1xx_HAL_Driver/Src/stm32f1xx_hal_spi.c ****   hspi->ErrorCode   = HAL_SPI_ERROR_NONE;
 400              		.loc 1 801 21
 401 0060 FB68     		ldr	r3, [r7, #12]
 402 0062 0022     		movs	r2, #0
 403 0064 5A65     		str	r2, [r3, #84]
 802:Drivers/STM32F1xx_HAL_Driver/Src/stm32f1xx_hal_spi.c ****   hspi->pTxBuffPtr  = (uint8_t *)pData;
 404              		.loc 1 802 21
ARM GAS  C:\Users\Alex\AppData\Local\Temp\ccfYuLQH.s 			page 22


 405 0066 FB68     		ldr	r3, [r7, #12]
 406 0068 BA68     		ldr	r2, [r7, #8]
 407 006a 1A63     		str	r2, [r3, #48]
 803:Drivers/STM32F1xx_HAL_Driver/Src/stm32f1xx_hal_spi.c ****   hspi->TxXferSize  = Size;
 408              		.loc 1 803 21
 409 006c FB68     		ldr	r3, [r7, #12]
 410 006e FA88     		ldrh	r2, [r7, #6]	@ movhi
 411 0070 9A86     		strh	r2, [r3, #52]	@ movhi
 804:Drivers/STM32F1xx_HAL_Driver/Src/stm32f1xx_hal_spi.c ****   hspi->TxXferCount = Size;
 412              		.loc 1 804 21
 413 0072 FB68     		ldr	r3, [r7, #12]
 414 0074 FA88     		ldrh	r2, [r7, #6]	@ movhi
 415 0076 DA86     		strh	r2, [r3, #54]	@ movhi
 805:Drivers/STM32F1xx_HAL_Driver/Src/stm32f1xx_hal_spi.c **** 
 806:Drivers/STM32F1xx_HAL_Driver/Src/stm32f1xx_hal_spi.c ****   /*Init field not used in handle to zero */
 807:Drivers/STM32F1xx_HAL_Driver/Src/stm32f1xx_hal_spi.c ****   hspi->pRxBuffPtr  = (uint8_t *)NULL;
 416              		.loc 1 807 21
 417 0078 FB68     		ldr	r3, [r7, #12]
 418 007a 0022     		movs	r2, #0
 419 007c 9A63     		str	r2, [r3, #56]
 808:Drivers/STM32F1xx_HAL_Driver/Src/stm32f1xx_hal_spi.c ****   hspi->RxXferSize  = 0U;
 420              		.loc 1 808 21
 421 007e FB68     		ldr	r3, [r7, #12]
 422 0080 0022     		movs	r2, #0
 423 0082 9A87     		strh	r2, [r3, #60]	@ movhi
 809:Drivers/STM32F1xx_HAL_Driver/Src/stm32f1xx_hal_spi.c ****   hspi->RxXferCount = 0U;
 424              		.loc 1 809 21
 425 0084 FB68     		ldr	r3, [r7, #12]
 426 0086 0022     		movs	r2, #0
 427 0088 DA87     		strh	r2, [r3, #62]	@ movhi
 810:Drivers/STM32F1xx_HAL_Driver/Src/stm32f1xx_hal_spi.c ****   hspi->TxISR       = NULL;
 428              		.loc 1 810 21
 429 008a FB68     		ldr	r3, [r7, #12]
 430 008c 0022     		movs	r2, #0
 431 008e 5A64     		str	r2, [r3, #68]
 811:Drivers/STM32F1xx_HAL_Driver/Src/stm32f1xx_hal_spi.c ****   hspi->RxISR       = NULL;
 432              		.loc 1 811 21
 433 0090 FB68     		ldr	r3, [r7, #12]
 434 0092 0022     		movs	r2, #0
 435 0094 1A64     		str	r2, [r3, #64]
 812:Drivers/STM32F1xx_HAL_Driver/Src/stm32f1xx_hal_spi.c **** 
 813:Drivers/STM32F1xx_HAL_Driver/Src/stm32f1xx_hal_spi.c ****   /* Configure communication direction : 1Line */
 814:Drivers/STM32F1xx_HAL_Driver/Src/stm32f1xx_hal_spi.c ****   if (hspi->Init.Direction == SPI_DIRECTION_1LINE)
 436              		.loc 1 814 17
 437 0096 FB68     		ldr	r3, [r7, #12]
 438 0098 9B68     		ldr	r3, [r3, #8]
 439              		.loc 1 814 6
 440 009a B3F5004F 		cmp	r3, #32768
 441 009e 07D1     		bne	.L17
 815:Drivers/STM32F1xx_HAL_Driver/Src/stm32f1xx_hal_spi.c ****   {
 816:Drivers/STM32F1xx_HAL_Driver/Src/stm32f1xx_hal_spi.c ****     SPI_1LINE_TX(hspi);
 442              		.loc 1 816 5
 443 00a0 FB68     		ldr	r3, [r7, #12]
 444 00a2 1B68     		ldr	r3, [r3]
 445 00a4 1A68     		ldr	r2, [r3]
 446 00a6 FB68     		ldr	r3, [r7, #12]
 447 00a8 1B68     		ldr	r3, [r3]
ARM GAS  C:\Users\Alex\AppData\Local\Temp\ccfYuLQH.s 			page 23


 448 00aa 42F48042 		orr	r2, r2, #16384
 449 00ae 1A60     		str	r2, [r3]
 450              	.L17:
 817:Drivers/STM32F1xx_HAL_Driver/Src/stm32f1xx_hal_spi.c ****   }
 818:Drivers/STM32F1xx_HAL_Driver/Src/stm32f1xx_hal_spi.c **** 
 819:Drivers/STM32F1xx_HAL_Driver/Src/stm32f1xx_hal_spi.c **** #if (USE_SPI_CRC != 0U)
 820:Drivers/STM32F1xx_HAL_Driver/Src/stm32f1xx_hal_spi.c ****   /* Reset CRC Calculation */
 821:Drivers/STM32F1xx_HAL_Driver/Src/stm32f1xx_hal_spi.c ****   if (hspi->Init.CRCCalculation == SPI_CRCCALCULATION_ENABLE)
 822:Drivers/STM32F1xx_HAL_Driver/Src/stm32f1xx_hal_spi.c ****   {
 823:Drivers/STM32F1xx_HAL_Driver/Src/stm32f1xx_hal_spi.c ****     SPI_RESET_CRC(hspi);
 824:Drivers/STM32F1xx_HAL_Driver/Src/stm32f1xx_hal_spi.c ****   }
 825:Drivers/STM32F1xx_HAL_Driver/Src/stm32f1xx_hal_spi.c **** #endif /* USE_SPI_CRC */
 826:Drivers/STM32F1xx_HAL_Driver/Src/stm32f1xx_hal_spi.c **** 
 827:Drivers/STM32F1xx_HAL_Driver/Src/stm32f1xx_hal_spi.c ****   /* Check if the SPI is already enabled */
 828:Drivers/STM32F1xx_HAL_Driver/Src/stm32f1xx_hal_spi.c ****   if ((hspi->Instance->CR1 & SPI_CR1_SPE) != SPI_CR1_SPE)
 451              		.loc 1 828 12
 452 00b0 FB68     		ldr	r3, [r7, #12]
 453 00b2 1B68     		ldr	r3, [r3]
 454              		.loc 1 828 22
 455 00b4 1B68     		ldr	r3, [r3]
 456              		.loc 1 828 28
 457 00b6 03F04003 		and	r3, r3, #64
 458              		.loc 1 828 6
 459 00ba 402B     		cmp	r3, #64
 460 00bc 07D0     		beq	.L18
 829:Drivers/STM32F1xx_HAL_Driver/Src/stm32f1xx_hal_spi.c ****   {
 830:Drivers/STM32F1xx_HAL_Driver/Src/stm32f1xx_hal_spi.c ****     /* Enable SPI peripheral */
 831:Drivers/STM32F1xx_HAL_Driver/Src/stm32f1xx_hal_spi.c ****     __HAL_SPI_ENABLE(hspi);
 461              		.loc 1 831 5
 462 00be FB68     		ldr	r3, [r7, #12]
 463 00c0 1B68     		ldr	r3, [r3]
 464 00c2 1A68     		ldr	r2, [r3]
 465 00c4 FB68     		ldr	r3, [r7, #12]
 466 00c6 1B68     		ldr	r3, [r3]
 467 00c8 42F04002 		orr	r2, r2, #64
 468 00cc 1A60     		str	r2, [r3]
 469              	.L18:
 832:Drivers/STM32F1xx_HAL_Driver/Src/stm32f1xx_hal_spi.c ****   }
 833:Drivers/STM32F1xx_HAL_Driver/Src/stm32f1xx_hal_spi.c **** 
 834:Drivers/STM32F1xx_HAL_Driver/Src/stm32f1xx_hal_spi.c ****   /* Transmit data in 16 Bit mode */
 835:Drivers/STM32F1xx_HAL_Driver/Src/stm32f1xx_hal_spi.c ****   if (hspi->Init.DataSize == SPI_DATASIZE_16BIT)
 470              		.loc 1 835 17
 471 00ce FB68     		ldr	r3, [r7, #12]
 472 00d0 DB68     		ldr	r3, [r3, #12]
 473              		.loc 1 835 6
 474 00d2 B3F5006F 		cmp	r3, #2048
 475 00d6 4BD1     		bne	.L19
 836:Drivers/STM32F1xx_HAL_Driver/Src/stm32f1xx_hal_spi.c ****   {
 837:Drivers/STM32F1xx_HAL_Driver/Src/stm32f1xx_hal_spi.c ****     if ((hspi->Init.Mode == SPI_MODE_SLAVE) || (initial_TxXferCount == 0x01U))
 476              		.loc 1 837 20
 477 00d8 FB68     		ldr	r3, [r7, #12]
 478 00da 5B68     		ldr	r3, [r3, #4]
 479              		.loc 1 837 8
 480 00dc 002B     		cmp	r3, #0
 481 00de 02D0     		beq	.L20
 482              		.loc 1 837 45 discriminator 1
 483 00e0 FB8A     		ldrh	r3, [r7, #22]
ARM GAS  C:\Users\Alex\AppData\Local\Temp\ccfYuLQH.s 			page 24


 484 00e2 012B     		cmp	r3, #1
 485 00e4 3ED1     		bne	.L22
 486              	.L20:
 838:Drivers/STM32F1xx_HAL_Driver/Src/stm32f1xx_hal_spi.c ****     {
 839:Drivers/STM32F1xx_HAL_Driver/Src/stm32f1xx_hal_spi.c ****       hspi->Instance->DR = *((uint16_t *)hspi->pTxBuffPtr);
 487              		.loc 1 839 46
 488 00e6 FB68     		ldr	r3, [r7, #12]
 489 00e8 1B6B     		ldr	r3, [r3, #48]
 490              		.loc 1 839 28
 491 00ea 1A88     		ldrh	r2, [r3]
 492              		.loc 1 839 11
 493 00ec FB68     		ldr	r3, [r7, #12]
 494 00ee 1B68     		ldr	r3, [r3]
 495              		.loc 1 839 26
 496 00f0 DA60     		str	r2, [r3, #12]
 840:Drivers/STM32F1xx_HAL_Driver/Src/stm32f1xx_hal_spi.c ****       hspi->pTxBuffPtr += sizeof(uint16_t);
 497              		.loc 1 840 24
 498 00f2 FB68     		ldr	r3, [r7, #12]
 499 00f4 1B6B     		ldr	r3, [r3, #48]
 500 00f6 9A1C     		adds	r2, r3, #2
 501 00f8 FB68     		ldr	r3, [r7, #12]
 502 00fa 1A63     		str	r2, [r3, #48]
 841:Drivers/STM32F1xx_HAL_Driver/Src/stm32f1xx_hal_spi.c ****       hspi->TxXferCount--;
 503              		.loc 1 841 11
 504 00fc FB68     		ldr	r3, [r7, #12]
 505 00fe DB8E     		ldrh	r3, [r3, #54]	@ movhi
 506 0100 9BB2     		uxth	r3, r3
 507              		.loc 1 841 24
 508 0102 013B     		subs	r3, r3, #1
 509 0104 9AB2     		uxth	r2, r3
 510 0106 FB68     		ldr	r3, [r7, #12]
 511 0108 DA86     		strh	r2, [r3, #54]	@ movhi
 842:Drivers/STM32F1xx_HAL_Driver/Src/stm32f1xx_hal_spi.c ****     }
 843:Drivers/STM32F1xx_HAL_Driver/Src/stm32f1xx_hal_spi.c ****     /* Transmit data in 16 Bit mode */
 844:Drivers/STM32F1xx_HAL_Driver/Src/stm32f1xx_hal_spi.c ****     while (hspi->TxXferCount > 0U)
 512              		.loc 1 844 11
 513 010a 2BE0     		b	.L22
 514              	.L26:
 845:Drivers/STM32F1xx_HAL_Driver/Src/stm32f1xx_hal_spi.c ****     {
 846:Drivers/STM32F1xx_HAL_Driver/Src/stm32f1xx_hal_spi.c ****       /* Wait until TXE flag is set to send data */
 847:Drivers/STM32F1xx_HAL_Driver/Src/stm32f1xx_hal_spi.c ****       if (__HAL_SPI_GET_FLAG(hspi, SPI_FLAG_TXE))
 515              		.loc 1 847 11
 516 010c FB68     		ldr	r3, [r7, #12]
 517 010e 1B68     		ldr	r3, [r3]
 518 0110 9B68     		ldr	r3, [r3, #8]
 519 0112 03F00203 		and	r3, r3, #2
 520              		.loc 1 847 10
 521 0116 022B     		cmp	r3, #2
 522 0118 12D1     		bne	.L23
 848:Drivers/STM32F1xx_HAL_Driver/Src/stm32f1xx_hal_spi.c ****       {
 849:Drivers/STM32F1xx_HAL_Driver/Src/stm32f1xx_hal_spi.c ****         hspi->Instance->DR = *((uint16_t *)hspi->pTxBuffPtr);
 523              		.loc 1 849 48
 524 011a FB68     		ldr	r3, [r7, #12]
 525 011c 1B6B     		ldr	r3, [r3, #48]
 526              		.loc 1 849 30
 527 011e 1A88     		ldrh	r2, [r3]
 528              		.loc 1 849 13
ARM GAS  C:\Users\Alex\AppData\Local\Temp\ccfYuLQH.s 			page 25


 529 0120 FB68     		ldr	r3, [r7, #12]
 530 0122 1B68     		ldr	r3, [r3]
 531              		.loc 1 849 28
 532 0124 DA60     		str	r2, [r3, #12]
 850:Drivers/STM32F1xx_HAL_Driver/Src/stm32f1xx_hal_spi.c ****         hspi->pTxBuffPtr += sizeof(uint16_t);
 533              		.loc 1 850 26
 534 0126 FB68     		ldr	r3, [r7, #12]
 535 0128 1B6B     		ldr	r3, [r3, #48]
 536 012a 9A1C     		adds	r2, r3, #2
 537 012c FB68     		ldr	r3, [r7, #12]
 538 012e 1A63     		str	r2, [r3, #48]
 851:Drivers/STM32F1xx_HAL_Driver/Src/stm32f1xx_hal_spi.c ****         hspi->TxXferCount--;
 539              		.loc 1 851 13
 540 0130 FB68     		ldr	r3, [r7, #12]
 541 0132 DB8E     		ldrh	r3, [r3, #54]	@ movhi
 542 0134 9BB2     		uxth	r3, r3
 543              		.loc 1 851 26
 544 0136 013B     		subs	r3, r3, #1
 545 0138 9AB2     		uxth	r2, r3
 546 013a FB68     		ldr	r3, [r7, #12]
 547 013c DA86     		strh	r2, [r3, #54]	@ movhi
 548 013e 11E0     		b	.L22
 549              	.L23:
 852:Drivers/STM32F1xx_HAL_Driver/Src/stm32f1xx_hal_spi.c ****       }
 853:Drivers/STM32F1xx_HAL_Driver/Src/stm32f1xx_hal_spi.c ****       else
 854:Drivers/STM32F1xx_HAL_Driver/Src/stm32f1xx_hal_spi.c ****       {
 855:Drivers/STM32F1xx_HAL_Driver/Src/stm32f1xx_hal_spi.c ****         /* Timeout management */
 856:Drivers/STM32F1xx_HAL_Driver/Src/stm32f1xx_hal_spi.c ****         if ((((HAL_GetTick() - tickstart) >=  Timeout) && (Timeout != HAL_MAX_DELAY)) || (Timeout =
 550              		.loc 1 856 16
 551 0140 FFF7FEFF 		bl	HAL_GetTick
 552 0144 0246     		mov	r2, r0
 553              		.loc 1 856 30
 554 0146 BB69     		ldr	r3, [r7, #24]
 555 0148 D31A     		subs	r3, r2, r3
 556              		.loc 1 856 12
 557 014a 3A68     		ldr	r2, [r7]
 558 014c 9A42     		cmp	r2, r3
 559 014e 03D8     		bhi	.L24
 560              		.loc 1 856 56 discriminator 1
 561 0150 3B68     		ldr	r3, [r7]
 562 0152 B3F1FF3F 		cmp	r3, #-1
 563 0156 02D1     		bne	.L25
 564              	.L24:
 565              		.loc 1 856 87 discriminator 3
 566 0158 3B68     		ldr	r3, [r7]
 567 015a 002B     		cmp	r3, #0
 568 015c 02D1     		bne	.L22
 569              	.L25:
 857:Drivers/STM32F1xx_HAL_Driver/Src/stm32f1xx_hal_spi.c ****         {
 858:Drivers/STM32F1xx_HAL_Driver/Src/stm32f1xx_hal_spi.c ****           errorcode = HAL_TIMEOUT;
 570              		.loc 1 858 21
 571 015e 0323     		movs	r3, #3
 572 0160 FB77     		strb	r3, [r7, #31]
 859:Drivers/STM32F1xx_HAL_Driver/Src/stm32f1xx_hal_spi.c ****           goto error;
 573              		.loc 1 859 11
 574 0162 74E0     		b	.L14
 575              	.L22:
ARM GAS  C:\Users\Alex\AppData\Local\Temp\ccfYuLQH.s 			page 26


 844:Drivers/STM32F1xx_HAL_Driver/Src/stm32f1xx_hal_spi.c ****     {
 576              		.loc 1 844 16
 577 0164 FB68     		ldr	r3, [r7, #12]
 578 0166 DB8E     		ldrh	r3, [r3, #54]	@ movhi
 579 0168 9BB2     		uxth	r3, r3
 844:Drivers/STM32F1xx_HAL_Driver/Src/stm32f1xx_hal_spi.c ****     {
 580              		.loc 1 844 11
 581 016a 002B     		cmp	r3, #0
 582 016c CED1     		bne	.L26
 583 016e 4CE0     		b	.L27
 584              	.L19:
 860:Drivers/STM32F1xx_HAL_Driver/Src/stm32f1xx_hal_spi.c ****         }
 861:Drivers/STM32F1xx_HAL_Driver/Src/stm32f1xx_hal_spi.c ****       }
 862:Drivers/STM32F1xx_HAL_Driver/Src/stm32f1xx_hal_spi.c ****     }
 863:Drivers/STM32F1xx_HAL_Driver/Src/stm32f1xx_hal_spi.c ****   }
 864:Drivers/STM32F1xx_HAL_Driver/Src/stm32f1xx_hal_spi.c ****   /* Transmit data in 8 Bit mode */
 865:Drivers/STM32F1xx_HAL_Driver/Src/stm32f1xx_hal_spi.c ****   else
 866:Drivers/STM32F1xx_HAL_Driver/Src/stm32f1xx_hal_spi.c ****   {
 867:Drivers/STM32F1xx_HAL_Driver/Src/stm32f1xx_hal_spi.c ****     if ((hspi->Init.Mode == SPI_MODE_SLAVE) || (initial_TxXferCount == 0x01U))
 585              		.loc 1 867 20
 586 0170 FB68     		ldr	r3, [r7, #12]
 587 0172 5B68     		ldr	r3, [r3, #4]
 588              		.loc 1 867 8
 589 0174 002B     		cmp	r3, #0
 590 0176 02D0     		beq	.L28
 591              		.loc 1 867 45 discriminator 1
 592 0178 FB8A     		ldrh	r3, [r7, #22]
 593 017a 012B     		cmp	r3, #1
 594 017c 40D1     		bne	.L30
 595              	.L28:
 868:Drivers/STM32F1xx_HAL_Driver/Src/stm32f1xx_hal_spi.c ****     {
 869:Drivers/STM32F1xx_HAL_Driver/Src/stm32f1xx_hal_spi.c ****       *((__IO uint8_t *)&hspi->Instance->DR) = (*hspi->pTxBuffPtr);
 596              		.loc 1 869 54
 597 017e FB68     		ldr	r3, [r7, #12]
 598 0180 1A6B     		ldr	r2, [r3, #48]
 599              		.loc 1 869 30
 600 0182 FB68     		ldr	r3, [r7, #12]
 601 0184 1B68     		ldr	r3, [r3]
 602              		.loc 1 869 25
 603 0186 0C33     		adds	r3, r3, #12
 604              		.loc 1 869 49
 605 0188 1278     		ldrb	r2, [r2]	@ zero_extendqisi2
 606              		.loc 1 869 46
 607 018a 1A70     		strb	r2, [r3]
 870:Drivers/STM32F1xx_HAL_Driver/Src/stm32f1xx_hal_spi.c ****       hspi->pTxBuffPtr += sizeof(uint8_t);
 608              		.loc 1 870 24
 609 018c FB68     		ldr	r3, [r7, #12]
 610 018e 1B6B     		ldr	r3, [r3, #48]
 611 0190 5A1C     		adds	r2, r3, #1
 612 0192 FB68     		ldr	r3, [r7, #12]
 613 0194 1A63     		str	r2, [r3, #48]
 871:Drivers/STM32F1xx_HAL_Driver/Src/stm32f1xx_hal_spi.c ****       hspi->TxXferCount--;
 614              		.loc 1 871 11
 615 0196 FB68     		ldr	r3, [r7, #12]
 616 0198 DB8E     		ldrh	r3, [r3, #54]	@ movhi
 617 019a 9BB2     		uxth	r3, r3
 618              		.loc 1 871 24
ARM GAS  C:\Users\Alex\AppData\Local\Temp\ccfYuLQH.s 			page 27


 619 019c 013B     		subs	r3, r3, #1
 620 019e 9AB2     		uxth	r2, r3
 621 01a0 FB68     		ldr	r3, [r7, #12]
 622 01a2 DA86     		strh	r2, [r3, #54]	@ movhi
 872:Drivers/STM32F1xx_HAL_Driver/Src/stm32f1xx_hal_spi.c ****     }
 873:Drivers/STM32F1xx_HAL_Driver/Src/stm32f1xx_hal_spi.c ****     while (hspi->TxXferCount > 0U)
 623              		.loc 1 873 11
 624 01a4 2CE0     		b	.L30
 625              	.L34:
 874:Drivers/STM32F1xx_HAL_Driver/Src/stm32f1xx_hal_spi.c ****     {
 875:Drivers/STM32F1xx_HAL_Driver/Src/stm32f1xx_hal_spi.c ****       /* Wait until TXE flag is set to send data */
 876:Drivers/STM32F1xx_HAL_Driver/Src/stm32f1xx_hal_spi.c ****       if (__HAL_SPI_GET_FLAG(hspi, SPI_FLAG_TXE))
 626              		.loc 1 876 11
 627 01a6 FB68     		ldr	r3, [r7, #12]
 628 01a8 1B68     		ldr	r3, [r3]
 629 01aa 9B68     		ldr	r3, [r3, #8]
 630 01ac 03F00203 		and	r3, r3, #2
 631              		.loc 1 876 10
 632 01b0 022B     		cmp	r3, #2
 633 01b2 13D1     		bne	.L31
 877:Drivers/STM32F1xx_HAL_Driver/Src/stm32f1xx_hal_spi.c ****       {
 878:Drivers/STM32F1xx_HAL_Driver/Src/stm32f1xx_hal_spi.c ****         *((__IO uint8_t *)&hspi->Instance->DR) = (*hspi->pTxBuffPtr);
 634              		.loc 1 878 56
 635 01b4 FB68     		ldr	r3, [r7, #12]
 636 01b6 1A6B     		ldr	r2, [r3, #48]
 637              		.loc 1 878 32
 638 01b8 FB68     		ldr	r3, [r7, #12]
 639 01ba 1B68     		ldr	r3, [r3]
 640              		.loc 1 878 27
 641 01bc 0C33     		adds	r3, r3, #12
 642              		.loc 1 878 51
 643 01be 1278     		ldrb	r2, [r2]	@ zero_extendqisi2
 644              		.loc 1 878 48
 645 01c0 1A70     		strb	r2, [r3]
 879:Drivers/STM32F1xx_HAL_Driver/Src/stm32f1xx_hal_spi.c ****         hspi->pTxBuffPtr += sizeof(uint8_t);
 646              		.loc 1 879 26
 647 01c2 FB68     		ldr	r3, [r7, #12]
 648 01c4 1B6B     		ldr	r3, [r3, #48]
 649 01c6 5A1C     		adds	r2, r3, #1
 650 01c8 FB68     		ldr	r3, [r7, #12]
 651 01ca 1A63     		str	r2, [r3, #48]
 880:Drivers/STM32F1xx_HAL_Driver/Src/stm32f1xx_hal_spi.c ****         hspi->TxXferCount--;
 652              		.loc 1 880 13
 653 01cc FB68     		ldr	r3, [r7, #12]
 654 01ce DB8E     		ldrh	r3, [r3, #54]	@ movhi
 655 01d0 9BB2     		uxth	r3, r3
 656              		.loc 1 880 26
 657 01d2 013B     		subs	r3, r3, #1
 658 01d4 9AB2     		uxth	r2, r3
 659 01d6 FB68     		ldr	r3, [r7, #12]
 660 01d8 DA86     		strh	r2, [r3, #54]	@ movhi
 661 01da 11E0     		b	.L30
 662              	.L31:
 881:Drivers/STM32F1xx_HAL_Driver/Src/stm32f1xx_hal_spi.c ****       }
 882:Drivers/STM32F1xx_HAL_Driver/Src/stm32f1xx_hal_spi.c ****       else
 883:Drivers/STM32F1xx_HAL_Driver/Src/stm32f1xx_hal_spi.c ****       {
 884:Drivers/STM32F1xx_HAL_Driver/Src/stm32f1xx_hal_spi.c ****         /* Timeout management */
ARM GAS  C:\Users\Alex\AppData\Local\Temp\ccfYuLQH.s 			page 28


 885:Drivers/STM32F1xx_HAL_Driver/Src/stm32f1xx_hal_spi.c ****         if ((((HAL_GetTick() - tickstart) >=  Timeout) && (Timeout != HAL_MAX_DELAY)) || (Timeout =
 663              		.loc 1 885 16
 664 01dc FFF7FEFF 		bl	HAL_GetTick
 665 01e0 0246     		mov	r2, r0
 666              		.loc 1 885 30
 667 01e2 BB69     		ldr	r3, [r7, #24]
 668 01e4 D31A     		subs	r3, r2, r3
 669              		.loc 1 885 12
 670 01e6 3A68     		ldr	r2, [r7]
 671 01e8 9A42     		cmp	r2, r3
 672 01ea 03D8     		bhi	.L32
 673              		.loc 1 885 56 discriminator 1
 674 01ec 3B68     		ldr	r3, [r7]
 675 01ee B3F1FF3F 		cmp	r3, #-1
 676 01f2 02D1     		bne	.L33
 677              	.L32:
 678              		.loc 1 885 87 discriminator 3
 679 01f4 3B68     		ldr	r3, [r7]
 680 01f6 002B     		cmp	r3, #0
 681 01f8 02D1     		bne	.L30
 682              	.L33:
 886:Drivers/STM32F1xx_HAL_Driver/Src/stm32f1xx_hal_spi.c ****         {
 887:Drivers/STM32F1xx_HAL_Driver/Src/stm32f1xx_hal_spi.c ****           errorcode = HAL_TIMEOUT;
 683              		.loc 1 887 21
 684 01fa 0323     		movs	r3, #3
 685 01fc FB77     		strb	r3, [r7, #31]
 888:Drivers/STM32F1xx_HAL_Driver/Src/stm32f1xx_hal_spi.c ****           goto error;
 686              		.loc 1 888 11
 687 01fe 26E0     		b	.L14
 688              	.L30:
 873:Drivers/STM32F1xx_HAL_Driver/Src/stm32f1xx_hal_spi.c ****     {
 689              		.loc 1 873 16
 690 0200 FB68     		ldr	r3, [r7, #12]
 691 0202 DB8E     		ldrh	r3, [r3, #54]	@ movhi
 692 0204 9BB2     		uxth	r3, r3
 873:Drivers/STM32F1xx_HAL_Driver/Src/stm32f1xx_hal_spi.c ****     {
 693              		.loc 1 873 11
 694 0206 002B     		cmp	r3, #0
 695 0208 CDD1     		bne	.L34
 696              	.L27:
 889:Drivers/STM32F1xx_HAL_Driver/Src/stm32f1xx_hal_spi.c ****         }
 890:Drivers/STM32F1xx_HAL_Driver/Src/stm32f1xx_hal_spi.c ****       }
 891:Drivers/STM32F1xx_HAL_Driver/Src/stm32f1xx_hal_spi.c ****     }
 892:Drivers/STM32F1xx_HAL_Driver/Src/stm32f1xx_hal_spi.c ****   }
 893:Drivers/STM32F1xx_HAL_Driver/Src/stm32f1xx_hal_spi.c **** #if (USE_SPI_CRC != 0U)
 894:Drivers/STM32F1xx_HAL_Driver/Src/stm32f1xx_hal_spi.c ****   /* Enable CRC Transmission */
 895:Drivers/STM32F1xx_HAL_Driver/Src/stm32f1xx_hal_spi.c ****   if (hspi->Init.CRCCalculation == SPI_CRCCALCULATION_ENABLE)
 896:Drivers/STM32F1xx_HAL_Driver/Src/stm32f1xx_hal_spi.c ****   {
 897:Drivers/STM32F1xx_HAL_Driver/Src/stm32f1xx_hal_spi.c ****     SET_BIT(hspi->Instance->CR1, SPI_CR1_CRCNEXT);
 898:Drivers/STM32F1xx_HAL_Driver/Src/stm32f1xx_hal_spi.c ****   }
 899:Drivers/STM32F1xx_HAL_Driver/Src/stm32f1xx_hal_spi.c **** #endif /* USE_SPI_CRC */
 900:Drivers/STM32F1xx_HAL_Driver/Src/stm32f1xx_hal_spi.c **** 
 901:Drivers/STM32F1xx_HAL_Driver/Src/stm32f1xx_hal_spi.c ****   /* Check the end of the transaction */
 902:Drivers/STM32F1xx_HAL_Driver/Src/stm32f1xx_hal_spi.c ****   if (SPI_EndRxTxTransaction(hspi, Timeout, tickstart) != HAL_OK)
 697              		.loc 1 902 7
 698 020a BA69     		ldr	r2, [r7, #24]
 699 020c 3968     		ldr	r1, [r7]
ARM GAS  C:\Users\Alex\AppData\Local\Temp\ccfYuLQH.s 			page 29


 700 020e F868     		ldr	r0, [r7, #12]
 701 0210 FFF7FEFF 		bl	SPI_EndRxTxTransaction
 702 0214 0346     		mov	r3, r0
 703              		.loc 1 902 6
 704 0216 002B     		cmp	r3, #0
 705 0218 02D0     		beq	.L35
 903:Drivers/STM32F1xx_HAL_Driver/Src/stm32f1xx_hal_spi.c ****   {
 904:Drivers/STM32F1xx_HAL_Driver/Src/stm32f1xx_hal_spi.c ****     hspi->ErrorCode = HAL_SPI_ERROR_FLAG;
 706              		.loc 1 904 21
 707 021a FB68     		ldr	r3, [r7, #12]
 708 021c 2022     		movs	r2, #32
 709 021e 5A65     		str	r2, [r3, #84]
 710              	.L35:
 905:Drivers/STM32F1xx_HAL_Driver/Src/stm32f1xx_hal_spi.c ****   }
 906:Drivers/STM32F1xx_HAL_Driver/Src/stm32f1xx_hal_spi.c **** 
 907:Drivers/STM32F1xx_HAL_Driver/Src/stm32f1xx_hal_spi.c ****   /* Clear overrun flag in 2 Lines communication mode because received is not read */
 908:Drivers/STM32F1xx_HAL_Driver/Src/stm32f1xx_hal_spi.c ****   if (hspi->Init.Direction == SPI_DIRECTION_2LINES)
 711              		.loc 1 908 17
 712 0220 FB68     		ldr	r3, [r7, #12]
 713 0222 9B68     		ldr	r3, [r3, #8]
 714              		.loc 1 908 6
 715 0224 002B     		cmp	r3, #0
 716 0226 0AD1     		bne	.L36
 717              	.LBB2:
 909:Drivers/STM32F1xx_HAL_Driver/Src/stm32f1xx_hal_spi.c ****   {
 910:Drivers/STM32F1xx_HAL_Driver/Src/stm32f1xx_hal_spi.c ****     __HAL_SPI_CLEAR_OVRFLAG(hspi);
 718              		.loc 1 910 5
 719 0228 0023     		movs	r3, #0
 720 022a 3B61     		str	r3, [r7, #16]
 721 022c FB68     		ldr	r3, [r7, #12]
 722 022e 1B68     		ldr	r3, [r3]
 723 0230 DB68     		ldr	r3, [r3, #12]
 724 0232 3B61     		str	r3, [r7, #16]
 725 0234 FB68     		ldr	r3, [r7, #12]
 726 0236 1B68     		ldr	r3, [r3]
 727 0238 9B68     		ldr	r3, [r3, #8]
 728 023a 3B61     		str	r3, [r7, #16]
 729 023c 3B69     		ldr	r3, [r7, #16]
 730              	.L36:
 731              	.LBE2:
 911:Drivers/STM32F1xx_HAL_Driver/Src/stm32f1xx_hal_spi.c ****   }
 912:Drivers/STM32F1xx_HAL_Driver/Src/stm32f1xx_hal_spi.c **** 
 913:Drivers/STM32F1xx_HAL_Driver/Src/stm32f1xx_hal_spi.c ****   if (hspi->ErrorCode != HAL_SPI_ERROR_NONE)
 732              		.loc 1 913 11
 733 023e FB68     		ldr	r3, [r7, #12]
 734 0240 5B6D     		ldr	r3, [r3, #84]
 735              		.loc 1 913 6
 736 0242 002B     		cmp	r3, #0
 737 0244 02D0     		beq	.L37
 914:Drivers/STM32F1xx_HAL_Driver/Src/stm32f1xx_hal_spi.c ****   {
 915:Drivers/STM32F1xx_HAL_Driver/Src/stm32f1xx_hal_spi.c ****     errorcode = HAL_ERROR;
 738              		.loc 1 915 15
 739 0246 0123     		movs	r3, #1
 740 0248 FB77     		strb	r3, [r7, #31]
 741 024a 00E0     		b	.L14
 742              	.L37:
 916:Drivers/STM32F1xx_HAL_Driver/Src/stm32f1xx_hal_spi.c ****   }
ARM GAS  C:\Users\Alex\AppData\Local\Temp\ccfYuLQH.s 			page 30


 917:Drivers/STM32F1xx_HAL_Driver/Src/stm32f1xx_hal_spi.c **** 
 918:Drivers/STM32F1xx_HAL_Driver/Src/stm32f1xx_hal_spi.c **** error:
 743              		.loc 1 918 1
 744 024c 00BF     		nop
 745              	.L14:
 919:Drivers/STM32F1xx_HAL_Driver/Src/stm32f1xx_hal_spi.c ****   hspi->State = HAL_SPI_STATE_READY;
 746              		.loc 1 919 15
 747 024e FB68     		ldr	r3, [r7, #12]
 748 0250 0122     		movs	r2, #1
 749 0252 83F85120 		strb	r2, [r3, #81]
 920:Drivers/STM32F1xx_HAL_Driver/Src/stm32f1xx_hal_spi.c ****   /* Process Unlocked */
 921:Drivers/STM32F1xx_HAL_Driver/Src/stm32f1xx_hal_spi.c ****   __HAL_UNLOCK(hspi);
 750              		.loc 1 921 3
 751 0256 FB68     		ldr	r3, [r7, #12]
 752 0258 0022     		movs	r2, #0
 753 025a 83F85020 		strb	r2, [r3, #80]
 922:Drivers/STM32F1xx_HAL_Driver/Src/stm32f1xx_hal_spi.c ****   return errorcode;
 754              		.loc 1 922 10
 755 025e FB7F     		ldrb	r3, [r7, #31]	@ zero_extendqisi2
 756              	.L12:
 923:Drivers/STM32F1xx_HAL_Driver/Src/stm32f1xx_hal_spi.c **** }
 757              		.loc 1 923 1
 758 0260 1846     		mov	r0, r3
 759 0262 2037     		adds	r7, r7, #32
 760              	.LCFI25:
 761              		.cfi_def_cfa_offset 8
 762 0264 BD46     		mov	sp, r7
 763              	.LCFI26:
 764              		.cfi_def_cfa_register 13
 765              		@ sp needed
 766 0266 80BD     		pop	{r7, pc}
 767              		.cfi_endproc
 768              	.LFE69:
 770              		.section	.text.HAL_SPI_Receive,"ax",%progbits
 771              		.align	1
 772              		.global	HAL_SPI_Receive
 773              		.syntax unified
 774              		.thumb
 775              		.thumb_func
 776              		.fpu softvfp
 778              	HAL_SPI_Receive:
 779              	.LFB70:
 924:Drivers/STM32F1xx_HAL_Driver/Src/stm32f1xx_hal_spi.c **** 
 925:Drivers/STM32F1xx_HAL_Driver/Src/stm32f1xx_hal_spi.c **** /**
 926:Drivers/STM32F1xx_HAL_Driver/Src/stm32f1xx_hal_spi.c ****   * @brief  Receive an amount of data in blocking mode.
 927:Drivers/STM32F1xx_HAL_Driver/Src/stm32f1xx_hal_spi.c ****   * @param  hspi pointer to a SPI_HandleTypeDef structure that contains
 928:Drivers/STM32F1xx_HAL_Driver/Src/stm32f1xx_hal_spi.c ****   *               the configuration information for SPI module.
 929:Drivers/STM32F1xx_HAL_Driver/Src/stm32f1xx_hal_spi.c ****   * @param  pData pointer to data buffer
 930:Drivers/STM32F1xx_HAL_Driver/Src/stm32f1xx_hal_spi.c ****   * @param  Size amount of data to be received
 931:Drivers/STM32F1xx_HAL_Driver/Src/stm32f1xx_hal_spi.c ****   * @param  Timeout Timeout duration
 932:Drivers/STM32F1xx_HAL_Driver/Src/stm32f1xx_hal_spi.c ****   * @retval HAL status
 933:Drivers/STM32F1xx_HAL_Driver/Src/stm32f1xx_hal_spi.c ****   */
 934:Drivers/STM32F1xx_HAL_Driver/Src/stm32f1xx_hal_spi.c **** HAL_StatusTypeDef HAL_SPI_Receive(SPI_HandleTypeDef *hspi, uint8_t *pData, uint16_t Size, uint32_t 
 935:Drivers/STM32F1xx_HAL_Driver/Src/stm32f1xx_hal_spi.c **** {
 780              		.loc 1 935 1
 781              		.cfi_startproc
 782              		@ args = 0, pretend = 0, frame = 24
ARM GAS  C:\Users\Alex\AppData\Local\Temp\ccfYuLQH.s 			page 31


 783              		@ frame_needed = 1, uses_anonymous_args = 0
 784 0000 80B5     		push	{r7, lr}
 785              	.LCFI27:
 786              		.cfi_def_cfa_offset 8
 787              		.cfi_offset 7, -8
 788              		.cfi_offset 14, -4
 789 0002 88B0     		sub	sp, sp, #32
 790              	.LCFI28:
 791              		.cfi_def_cfa_offset 40
 792 0004 02AF     		add	r7, sp, #8
 793              	.LCFI29:
 794              		.cfi_def_cfa 7, 32
 795 0006 F860     		str	r0, [r7, #12]
 796 0008 B960     		str	r1, [r7, #8]
 797 000a 3B60     		str	r3, [r7]
 798 000c 1346     		mov	r3, r2	@ movhi
 799 000e FB80     		strh	r3, [r7, #6]	@ movhi
 936:Drivers/STM32F1xx_HAL_Driver/Src/stm32f1xx_hal_spi.c ****   uint32_t tickstart;
 937:Drivers/STM32F1xx_HAL_Driver/Src/stm32f1xx_hal_spi.c ****   HAL_StatusTypeDef errorcode = HAL_OK;
 800              		.loc 1 937 21
 801 0010 0023     		movs	r3, #0
 802 0012 FB75     		strb	r3, [r7, #23]
 938:Drivers/STM32F1xx_HAL_Driver/Src/stm32f1xx_hal_spi.c **** 
 939:Drivers/STM32F1xx_HAL_Driver/Src/stm32f1xx_hal_spi.c ****   if ((hspi->Init.Mode == SPI_MODE_MASTER) && (hspi->Init.Direction == SPI_DIRECTION_2LINES))
 803              		.loc 1 939 18
 804 0014 FB68     		ldr	r3, [r7, #12]
 805 0016 5B68     		ldr	r3, [r3, #4]
 806              		.loc 1 939 6
 807 0018 B3F5827F 		cmp	r3, #260
 808 001c 12D1     		bne	.L39
 809              		.loc 1 939 58 discriminator 1
 810 001e FB68     		ldr	r3, [r7, #12]
 811 0020 9B68     		ldr	r3, [r3, #8]
 812              		.loc 1 939 44 discriminator 1
 813 0022 002B     		cmp	r3, #0
 814 0024 0ED1     		bne	.L39
 940:Drivers/STM32F1xx_HAL_Driver/Src/stm32f1xx_hal_spi.c ****   {
 941:Drivers/STM32F1xx_HAL_Driver/Src/stm32f1xx_hal_spi.c ****     hspi->State = HAL_SPI_STATE_BUSY_RX;
 815              		.loc 1 941 17
 816 0026 FB68     		ldr	r3, [r7, #12]
 817 0028 0422     		movs	r2, #4
 818 002a 83F85120 		strb	r2, [r3, #81]
 942:Drivers/STM32F1xx_HAL_Driver/Src/stm32f1xx_hal_spi.c ****     /* Call transmit-receive function to send Dummy data on Tx line and generate clock on CLK line 
 943:Drivers/STM32F1xx_HAL_Driver/Src/stm32f1xx_hal_spi.c ****     return HAL_SPI_TransmitReceive(hspi, pData, pData, Size, Timeout);
 819              		.loc 1 943 12
 820 002e FA88     		ldrh	r2, [r7, #6]
 821 0030 3B68     		ldr	r3, [r7]
 822 0032 0093     		str	r3, [sp]
 823 0034 1346     		mov	r3, r2
 824 0036 BA68     		ldr	r2, [r7, #8]
 825 0038 B968     		ldr	r1, [r7, #8]
 826 003a F868     		ldr	r0, [r7, #12]
 827 003c FFF7FEFF 		bl	HAL_SPI_TransmitReceive
 828 0040 0346     		mov	r3, r0
 829 0042 E2E0     		b	.L40
 830              	.L39:
 944:Drivers/STM32F1xx_HAL_Driver/Src/stm32f1xx_hal_spi.c ****   }
ARM GAS  C:\Users\Alex\AppData\Local\Temp\ccfYuLQH.s 			page 32


 945:Drivers/STM32F1xx_HAL_Driver/Src/stm32f1xx_hal_spi.c **** 
 946:Drivers/STM32F1xx_HAL_Driver/Src/stm32f1xx_hal_spi.c ****   /* Process Locked */
 947:Drivers/STM32F1xx_HAL_Driver/Src/stm32f1xx_hal_spi.c ****   __HAL_LOCK(hspi);
 831              		.loc 1 947 3
 832 0044 FB68     		ldr	r3, [r7, #12]
 833 0046 93F85030 		ldrb	r3, [r3, #80]	@ zero_extendqisi2
 834 004a 012B     		cmp	r3, #1
 835 004c 01D1     		bne	.L41
 836              		.loc 1 947 3 is_stmt 0 discriminator 1
 837 004e 0223     		movs	r3, #2
 838 0050 DBE0     		b	.L40
 839              	.L41:
 840              		.loc 1 947 3 discriminator 2
 841 0052 FB68     		ldr	r3, [r7, #12]
 842 0054 0122     		movs	r2, #1
 843 0056 83F85020 		strb	r2, [r3, #80]
 948:Drivers/STM32F1xx_HAL_Driver/Src/stm32f1xx_hal_spi.c **** 
 949:Drivers/STM32F1xx_HAL_Driver/Src/stm32f1xx_hal_spi.c ****   /* Init tickstart for timeout management*/
 950:Drivers/STM32F1xx_HAL_Driver/Src/stm32f1xx_hal_spi.c ****   tickstart = HAL_GetTick();
 844              		.loc 1 950 15 is_stmt 1 discriminator 2
 845 005a FFF7FEFF 		bl	HAL_GetTick
 846 005e 3861     		str	r0, [r7, #16]
 951:Drivers/STM32F1xx_HAL_Driver/Src/stm32f1xx_hal_spi.c **** 
 952:Drivers/STM32F1xx_HAL_Driver/Src/stm32f1xx_hal_spi.c ****   if (hspi->State != HAL_SPI_STATE_READY)
 847              		.loc 1 952 11 discriminator 2
 848 0060 FB68     		ldr	r3, [r7, #12]
 849 0062 93F85130 		ldrb	r3, [r3, #81]
 850 0066 DBB2     		uxtb	r3, r3
 851              		.loc 1 952 6 discriminator 2
 852 0068 012B     		cmp	r3, #1
 853 006a 02D0     		beq	.L42
 953:Drivers/STM32F1xx_HAL_Driver/Src/stm32f1xx_hal_spi.c ****   {
 954:Drivers/STM32F1xx_HAL_Driver/Src/stm32f1xx_hal_spi.c ****     errorcode = HAL_BUSY;
 854              		.loc 1 954 15
 855 006c 0223     		movs	r3, #2
 856 006e FB75     		strb	r3, [r7, #23]
 955:Drivers/STM32F1xx_HAL_Driver/Src/stm32f1xx_hal_spi.c ****     goto error;
 857              		.loc 1 955 5
 858 0070 C2E0     		b	.L43
 859              	.L42:
 956:Drivers/STM32F1xx_HAL_Driver/Src/stm32f1xx_hal_spi.c ****   }
 957:Drivers/STM32F1xx_HAL_Driver/Src/stm32f1xx_hal_spi.c **** 
 958:Drivers/STM32F1xx_HAL_Driver/Src/stm32f1xx_hal_spi.c ****   if ((pData == NULL) || (Size == 0U))
 860              		.loc 1 958 6
 861 0072 BB68     		ldr	r3, [r7, #8]
 862 0074 002B     		cmp	r3, #0
 863 0076 02D0     		beq	.L44
 864              		.loc 1 958 23 discriminator 1
 865 0078 FB88     		ldrh	r3, [r7, #6]
 866 007a 002B     		cmp	r3, #0
 867 007c 02D1     		bne	.L45
 868              	.L44:
 959:Drivers/STM32F1xx_HAL_Driver/Src/stm32f1xx_hal_spi.c ****   {
 960:Drivers/STM32F1xx_HAL_Driver/Src/stm32f1xx_hal_spi.c ****     errorcode = HAL_ERROR;
 869              		.loc 1 960 15
 870 007e 0123     		movs	r3, #1
 871 0080 FB75     		strb	r3, [r7, #23]
ARM GAS  C:\Users\Alex\AppData\Local\Temp\ccfYuLQH.s 			page 33


 961:Drivers/STM32F1xx_HAL_Driver/Src/stm32f1xx_hal_spi.c ****     goto error;
 872              		.loc 1 961 5
 873 0082 B9E0     		b	.L43
 874              	.L45:
 962:Drivers/STM32F1xx_HAL_Driver/Src/stm32f1xx_hal_spi.c ****   }
 963:Drivers/STM32F1xx_HAL_Driver/Src/stm32f1xx_hal_spi.c **** 
 964:Drivers/STM32F1xx_HAL_Driver/Src/stm32f1xx_hal_spi.c ****   /* Set the transaction information */
 965:Drivers/STM32F1xx_HAL_Driver/Src/stm32f1xx_hal_spi.c ****   hspi->State       = HAL_SPI_STATE_BUSY_RX;
 875              		.loc 1 965 21
 876 0084 FB68     		ldr	r3, [r7, #12]
 877 0086 0422     		movs	r2, #4
 878 0088 83F85120 		strb	r2, [r3, #81]
 966:Drivers/STM32F1xx_HAL_Driver/Src/stm32f1xx_hal_spi.c ****   hspi->ErrorCode   = HAL_SPI_ERROR_NONE;
 879              		.loc 1 966 21
 880 008c FB68     		ldr	r3, [r7, #12]
 881 008e 0022     		movs	r2, #0
 882 0090 5A65     		str	r2, [r3, #84]
 967:Drivers/STM32F1xx_HAL_Driver/Src/stm32f1xx_hal_spi.c ****   hspi->pRxBuffPtr  = (uint8_t *)pData;
 883              		.loc 1 967 21
 884 0092 FB68     		ldr	r3, [r7, #12]
 885 0094 BA68     		ldr	r2, [r7, #8]
 886 0096 9A63     		str	r2, [r3, #56]
 968:Drivers/STM32F1xx_HAL_Driver/Src/stm32f1xx_hal_spi.c ****   hspi->RxXferSize  = Size;
 887              		.loc 1 968 21
 888 0098 FB68     		ldr	r3, [r7, #12]
 889 009a FA88     		ldrh	r2, [r7, #6]	@ movhi
 890 009c 9A87     		strh	r2, [r3, #60]	@ movhi
 969:Drivers/STM32F1xx_HAL_Driver/Src/stm32f1xx_hal_spi.c ****   hspi->RxXferCount = Size;
 891              		.loc 1 969 21
 892 009e FB68     		ldr	r3, [r7, #12]
 893 00a0 FA88     		ldrh	r2, [r7, #6]	@ movhi
 894 00a2 DA87     		strh	r2, [r3, #62]	@ movhi
 970:Drivers/STM32F1xx_HAL_Driver/Src/stm32f1xx_hal_spi.c **** 
 971:Drivers/STM32F1xx_HAL_Driver/Src/stm32f1xx_hal_spi.c ****   /*Init field not used in handle to zero */
 972:Drivers/STM32F1xx_HAL_Driver/Src/stm32f1xx_hal_spi.c ****   hspi->pTxBuffPtr  = (uint8_t *)NULL;
 895              		.loc 1 972 21
 896 00a4 FB68     		ldr	r3, [r7, #12]
 897 00a6 0022     		movs	r2, #0
 898 00a8 1A63     		str	r2, [r3, #48]
 973:Drivers/STM32F1xx_HAL_Driver/Src/stm32f1xx_hal_spi.c ****   hspi->TxXferSize  = 0U;
 899              		.loc 1 973 21
 900 00aa FB68     		ldr	r3, [r7, #12]
 901 00ac 0022     		movs	r2, #0
 902 00ae 9A86     		strh	r2, [r3, #52]	@ movhi
 974:Drivers/STM32F1xx_HAL_Driver/Src/stm32f1xx_hal_spi.c ****   hspi->TxXferCount = 0U;
 903              		.loc 1 974 21
 904 00b0 FB68     		ldr	r3, [r7, #12]
 905 00b2 0022     		movs	r2, #0
 906 00b4 DA86     		strh	r2, [r3, #54]	@ movhi
 975:Drivers/STM32F1xx_HAL_Driver/Src/stm32f1xx_hal_spi.c ****   hspi->RxISR       = NULL;
 907              		.loc 1 975 21
 908 00b6 FB68     		ldr	r3, [r7, #12]
 909 00b8 0022     		movs	r2, #0
 910 00ba 1A64     		str	r2, [r3, #64]
 976:Drivers/STM32F1xx_HAL_Driver/Src/stm32f1xx_hal_spi.c ****   hspi->TxISR       = NULL;
 911              		.loc 1 976 21
 912 00bc FB68     		ldr	r3, [r7, #12]
ARM GAS  C:\Users\Alex\AppData\Local\Temp\ccfYuLQH.s 			page 34


 913 00be 0022     		movs	r2, #0
 914 00c0 5A64     		str	r2, [r3, #68]
 977:Drivers/STM32F1xx_HAL_Driver/Src/stm32f1xx_hal_spi.c **** 
 978:Drivers/STM32F1xx_HAL_Driver/Src/stm32f1xx_hal_spi.c **** #if (USE_SPI_CRC != 0U)
 979:Drivers/STM32F1xx_HAL_Driver/Src/stm32f1xx_hal_spi.c ****   /* Reset CRC Calculation */
 980:Drivers/STM32F1xx_HAL_Driver/Src/stm32f1xx_hal_spi.c ****   if (hspi->Init.CRCCalculation == SPI_CRCCALCULATION_ENABLE)
 981:Drivers/STM32F1xx_HAL_Driver/Src/stm32f1xx_hal_spi.c ****   {
 982:Drivers/STM32F1xx_HAL_Driver/Src/stm32f1xx_hal_spi.c ****     SPI_RESET_CRC(hspi);
 983:Drivers/STM32F1xx_HAL_Driver/Src/stm32f1xx_hal_spi.c ****     /* this is done to handle the CRCNEXT before the latest data */
 984:Drivers/STM32F1xx_HAL_Driver/Src/stm32f1xx_hal_spi.c ****     hspi->RxXferCount--;
 985:Drivers/STM32F1xx_HAL_Driver/Src/stm32f1xx_hal_spi.c ****   }
 986:Drivers/STM32F1xx_HAL_Driver/Src/stm32f1xx_hal_spi.c **** #endif /* USE_SPI_CRC */
 987:Drivers/STM32F1xx_HAL_Driver/Src/stm32f1xx_hal_spi.c **** 
 988:Drivers/STM32F1xx_HAL_Driver/Src/stm32f1xx_hal_spi.c ****   /* Configure communication direction: 1Line */
 989:Drivers/STM32F1xx_HAL_Driver/Src/stm32f1xx_hal_spi.c ****   if (hspi->Init.Direction == SPI_DIRECTION_1LINE)
 915              		.loc 1 989 17
 916 00c2 FB68     		ldr	r3, [r7, #12]
 917 00c4 9B68     		ldr	r3, [r3, #8]
 918              		.loc 1 989 6
 919 00c6 B3F5004F 		cmp	r3, #32768
 920 00ca 07D1     		bne	.L46
 990:Drivers/STM32F1xx_HAL_Driver/Src/stm32f1xx_hal_spi.c ****   {
 991:Drivers/STM32F1xx_HAL_Driver/Src/stm32f1xx_hal_spi.c ****     SPI_1LINE_RX(hspi);
 921              		.loc 1 991 5
 922 00cc FB68     		ldr	r3, [r7, #12]
 923 00ce 1B68     		ldr	r3, [r3]
 924 00d0 1A68     		ldr	r2, [r3]
 925 00d2 FB68     		ldr	r3, [r7, #12]
 926 00d4 1B68     		ldr	r3, [r3]
 927 00d6 22F48042 		bic	r2, r2, #16384
 928 00da 1A60     		str	r2, [r3]
 929              	.L46:
 992:Drivers/STM32F1xx_HAL_Driver/Src/stm32f1xx_hal_spi.c ****   }
 993:Drivers/STM32F1xx_HAL_Driver/Src/stm32f1xx_hal_spi.c **** 
 994:Drivers/STM32F1xx_HAL_Driver/Src/stm32f1xx_hal_spi.c ****   /* Check if the SPI is already enabled */
 995:Drivers/STM32F1xx_HAL_Driver/Src/stm32f1xx_hal_spi.c ****   if ((hspi->Instance->CR1 & SPI_CR1_SPE) != SPI_CR1_SPE)
 930              		.loc 1 995 12
 931 00dc FB68     		ldr	r3, [r7, #12]
 932 00de 1B68     		ldr	r3, [r3]
 933              		.loc 1 995 22
 934 00e0 1B68     		ldr	r3, [r3]
 935              		.loc 1 995 28
 936 00e2 03F04003 		and	r3, r3, #64
 937              		.loc 1 995 6
 938 00e6 402B     		cmp	r3, #64
 939 00e8 07D0     		beq	.L47
 996:Drivers/STM32F1xx_HAL_Driver/Src/stm32f1xx_hal_spi.c ****   {
 997:Drivers/STM32F1xx_HAL_Driver/Src/stm32f1xx_hal_spi.c ****     /* Enable SPI peripheral */
 998:Drivers/STM32F1xx_HAL_Driver/Src/stm32f1xx_hal_spi.c ****     __HAL_SPI_ENABLE(hspi);
 940              		.loc 1 998 5
 941 00ea FB68     		ldr	r3, [r7, #12]
 942 00ec 1B68     		ldr	r3, [r3]
 943 00ee 1A68     		ldr	r2, [r3]
 944 00f0 FB68     		ldr	r3, [r7, #12]
 945 00f2 1B68     		ldr	r3, [r3]
 946 00f4 42F04002 		orr	r2, r2, #64
 947 00f8 1A60     		str	r2, [r3]
ARM GAS  C:\Users\Alex\AppData\Local\Temp\ccfYuLQH.s 			page 35


 948              	.L47:
 999:Drivers/STM32F1xx_HAL_Driver/Src/stm32f1xx_hal_spi.c ****   }
1000:Drivers/STM32F1xx_HAL_Driver/Src/stm32f1xx_hal_spi.c **** 
1001:Drivers/STM32F1xx_HAL_Driver/Src/stm32f1xx_hal_spi.c ****   /* Receive data in 8 Bit mode */
1002:Drivers/STM32F1xx_HAL_Driver/Src/stm32f1xx_hal_spi.c ****   if (hspi->Init.DataSize == SPI_DATASIZE_8BIT)
 949              		.loc 1 1002 17
 950 00fa FB68     		ldr	r3, [r7, #12]
 951 00fc DB68     		ldr	r3, [r3, #12]
 952              		.loc 1 1002 6
 953 00fe 002B     		cmp	r3, #0
 954 0100 62D1     		bne	.L55
1003:Drivers/STM32F1xx_HAL_Driver/Src/stm32f1xx_hal_spi.c ****   {
1004:Drivers/STM32F1xx_HAL_Driver/Src/stm32f1xx_hal_spi.c ****     /* Transfer loop */
1005:Drivers/STM32F1xx_HAL_Driver/Src/stm32f1xx_hal_spi.c ****     while (hspi->RxXferCount > 0U)
 955              		.loc 1 1005 11
 956 0102 2EE0     		b	.L49
 957              	.L53:
1006:Drivers/STM32F1xx_HAL_Driver/Src/stm32f1xx_hal_spi.c ****     {
1007:Drivers/STM32F1xx_HAL_Driver/Src/stm32f1xx_hal_spi.c ****       /* Check the RXNE flag */
1008:Drivers/STM32F1xx_HAL_Driver/Src/stm32f1xx_hal_spi.c ****       if (__HAL_SPI_GET_FLAG(hspi, SPI_FLAG_RXNE))
 958              		.loc 1 1008 11
 959 0104 FB68     		ldr	r3, [r7, #12]
 960 0106 1B68     		ldr	r3, [r3]
 961 0108 9B68     		ldr	r3, [r3, #8]
 962 010a 03F00103 		and	r3, r3, #1
 963              		.loc 1 1008 10
 964 010e 012B     		cmp	r3, #1
 965 0110 15D1     		bne	.L50
1009:Drivers/STM32F1xx_HAL_Driver/Src/stm32f1xx_hal_spi.c ****       {
1010:Drivers/STM32F1xx_HAL_Driver/Src/stm32f1xx_hal_spi.c ****         /* read the received data */
1011:Drivers/STM32F1xx_HAL_Driver/Src/stm32f1xx_hal_spi.c ****         (* (uint8_t *)hspi->pRxBuffPtr) = *(__IO uint8_t *)&hspi->Instance->DR;
 966              		.loc 1 1011 65
 967 0112 FB68     		ldr	r3, [r7, #12]
 968 0114 1B68     		ldr	r3, [r3]
 969              		.loc 1 1011 60
 970 0116 03F10C02 		add	r2, r3, #12
 971              		.loc 1 1011 27
 972 011a FB68     		ldr	r3, [r7, #12]
 973 011c 9B6B     		ldr	r3, [r3, #56]
 974              		.loc 1 1011 43
 975 011e 1278     		ldrb	r2, [r2]
 976 0120 D2B2     		uxtb	r2, r2
 977              		.loc 1 1011 41
 978 0122 1A70     		strb	r2, [r3]
1012:Drivers/STM32F1xx_HAL_Driver/Src/stm32f1xx_hal_spi.c ****         hspi->pRxBuffPtr += sizeof(uint8_t);
 979              		.loc 1 1012 26
 980 0124 FB68     		ldr	r3, [r7, #12]
 981 0126 9B6B     		ldr	r3, [r3, #56]
 982 0128 5A1C     		adds	r2, r3, #1
 983 012a FB68     		ldr	r3, [r7, #12]
 984 012c 9A63     		str	r2, [r3, #56]
1013:Drivers/STM32F1xx_HAL_Driver/Src/stm32f1xx_hal_spi.c ****         hspi->RxXferCount--;
 985              		.loc 1 1013 13
 986 012e FB68     		ldr	r3, [r7, #12]
 987 0130 DB8F     		ldrh	r3, [r3, #62]	@ movhi
 988 0132 9BB2     		uxth	r3, r3
 989              		.loc 1 1013 26
ARM GAS  C:\Users\Alex\AppData\Local\Temp\ccfYuLQH.s 			page 36


 990 0134 013B     		subs	r3, r3, #1
 991 0136 9AB2     		uxth	r2, r3
 992 0138 FB68     		ldr	r3, [r7, #12]
 993 013a DA87     		strh	r2, [r3, #62]	@ movhi
 994 013c 11E0     		b	.L49
 995              	.L50:
1014:Drivers/STM32F1xx_HAL_Driver/Src/stm32f1xx_hal_spi.c ****       }
1015:Drivers/STM32F1xx_HAL_Driver/Src/stm32f1xx_hal_spi.c ****       else
1016:Drivers/STM32F1xx_HAL_Driver/Src/stm32f1xx_hal_spi.c ****       {
1017:Drivers/STM32F1xx_HAL_Driver/Src/stm32f1xx_hal_spi.c ****         /* Timeout management */
1018:Drivers/STM32F1xx_HAL_Driver/Src/stm32f1xx_hal_spi.c ****         if ((((HAL_GetTick() - tickstart) >=  Timeout) && (Timeout != HAL_MAX_DELAY)) || (Timeout =
 996              		.loc 1 1018 16
 997 013e FFF7FEFF 		bl	HAL_GetTick
 998 0142 0246     		mov	r2, r0
 999              		.loc 1 1018 30
 1000 0144 3B69     		ldr	r3, [r7, #16]
 1001 0146 D31A     		subs	r3, r2, r3
 1002              		.loc 1 1018 12
 1003 0148 3A68     		ldr	r2, [r7]
 1004 014a 9A42     		cmp	r2, r3
 1005 014c 03D8     		bhi	.L51
 1006              		.loc 1 1018 56 discriminator 1
 1007 014e 3B68     		ldr	r3, [r7]
 1008 0150 B3F1FF3F 		cmp	r3, #-1
 1009 0154 02D1     		bne	.L52
 1010              	.L51:
 1011              		.loc 1 1018 87 discriminator 3
 1012 0156 3B68     		ldr	r3, [r7]
 1013 0158 002B     		cmp	r3, #0
 1014 015a 02D1     		bne	.L49
 1015              	.L52:
1019:Drivers/STM32F1xx_HAL_Driver/Src/stm32f1xx_hal_spi.c ****         {
1020:Drivers/STM32F1xx_HAL_Driver/Src/stm32f1xx_hal_spi.c ****           errorcode = HAL_TIMEOUT;
 1016              		.loc 1 1020 21
 1017 015c 0323     		movs	r3, #3
 1018 015e FB75     		strb	r3, [r7, #23]
1021:Drivers/STM32F1xx_HAL_Driver/Src/stm32f1xx_hal_spi.c ****           goto error;
 1019              		.loc 1 1021 11
 1020 0160 4AE0     		b	.L43
 1021              	.L49:
1005:Drivers/STM32F1xx_HAL_Driver/Src/stm32f1xx_hal_spi.c ****     {
 1022              		.loc 1 1005 16
 1023 0162 FB68     		ldr	r3, [r7, #12]
 1024 0164 DB8F     		ldrh	r3, [r3, #62]	@ movhi
 1025 0166 9BB2     		uxth	r3, r3
1005:Drivers/STM32F1xx_HAL_Driver/Src/stm32f1xx_hal_spi.c ****     {
 1026              		.loc 1 1005 11
 1027 0168 002B     		cmp	r3, #0
 1028 016a CBD1     		bne	.L53
 1029 016c 31E0     		b	.L54
 1030              	.L59:
1022:Drivers/STM32F1xx_HAL_Driver/Src/stm32f1xx_hal_spi.c ****         }
1023:Drivers/STM32F1xx_HAL_Driver/Src/stm32f1xx_hal_spi.c ****       }
1024:Drivers/STM32F1xx_HAL_Driver/Src/stm32f1xx_hal_spi.c ****     }
1025:Drivers/STM32F1xx_HAL_Driver/Src/stm32f1xx_hal_spi.c ****   }
1026:Drivers/STM32F1xx_HAL_Driver/Src/stm32f1xx_hal_spi.c ****   else
1027:Drivers/STM32F1xx_HAL_Driver/Src/stm32f1xx_hal_spi.c ****   {
ARM GAS  C:\Users\Alex\AppData\Local\Temp\ccfYuLQH.s 			page 37


1028:Drivers/STM32F1xx_HAL_Driver/Src/stm32f1xx_hal_spi.c ****     /* Transfer loop */
1029:Drivers/STM32F1xx_HAL_Driver/Src/stm32f1xx_hal_spi.c ****     while (hspi->RxXferCount > 0U)
1030:Drivers/STM32F1xx_HAL_Driver/Src/stm32f1xx_hal_spi.c ****     {
1031:Drivers/STM32F1xx_HAL_Driver/Src/stm32f1xx_hal_spi.c ****       /* Check the RXNE flag */
1032:Drivers/STM32F1xx_HAL_Driver/Src/stm32f1xx_hal_spi.c ****       if (__HAL_SPI_GET_FLAG(hspi, SPI_FLAG_RXNE))
 1031              		.loc 1 1032 11
 1032 016e FB68     		ldr	r3, [r7, #12]
 1033 0170 1B68     		ldr	r3, [r3]
 1034 0172 9B68     		ldr	r3, [r3, #8]
 1035 0174 03F00103 		and	r3, r3, #1
 1036              		.loc 1 1032 10
 1037 0178 012B     		cmp	r3, #1
 1038 017a 13D1     		bne	.L56
1033:Drivers/STM32F1xx_HAL_Driver/Src/stm32f1xx_hal_spi.c ****       {
1034:Drivers/STM32F1xx_HAL_Driver/Src/stm32f1xx_hal_spi.c ****         *((uint16_t *)hspi->pRxBuffPtr) = (uint16_t)hspi->Instance->DR;
 1039              		.loc 1 1034 57
 1040 017c FB68     		ldr	r3, [r7, #12]
 1041 017e 1B68     		ldr	r3, [r3]
 1042              		.loc 1 1034 67
 1043 0180 DA68     		ldr	r2, [r3, #12]
 1044              		.loc 1 1034 27
 1045 0182 FB68     		ldr	r3, [r7, #12]
 1046 0184 9B6B     		ldr	r3, [r3, #56]
 1047              		.loc 1 1034 43
 1048 0186 92B2     		uxth	r2, r2
 1049              		.loc 1 1034 41
 1050 0188 1A80     		strh	r2, [r3]	@ movhi
1035:Drivers/STM32F1xx_HAL_Driver/Src/stm32f1xx_hal_spi.c ****         hspi->pRxBuffPtr += sizeof(uint16_t);
 1051              		.loc 1 1035 26
 1052 018a FB68     		ldr	r3, [r7, #12]
 1053 018c 9B6B     		ldr	r3, [r3, #56]
 1054 018e 9A1C     		adds	r2, r3, #2
 1055 0190 FB68     		ldr	r3, [r7, #12]
 1056 0192 9A63     		str	r2, [r3, #56]
1036:Drivers/STM32F1xx_HAL_Driver/Src/stm32f1xx_hal_spi.c ****         hspi->RxXferCount--;
 1057              		.loc 1 1036 13
 1058 0194 FB68     		ldr	r3, [r7, #12]
 1059 0196 DB8F     		ldrh	r3, [r3, #62]	@ movhi
 1060 0198 9BB2     		uxth	r3, r3
 1061              		.loc 1 1036 26
 1062 019a 013B     		subs	r3, r3, #1
 1063 019c 9AB2     		uxth	r2, r3
 1064 019e FB68     		ldr	r3, [r7, #12]
 1065 01a0 DA87     		strh	r2, [r3, #62]	@ movhi
 1066 01a2 11E0     		b	.L55
 1067              	.L56:
1037:Drivers/STM32F1xx_HAL_Driver/Src/stm32f1xx_hal_spi.c ****       }
1038:Drivers/STM32F1xx_HAL_Driver/Src/stm32f1xx_hal_spi.c ****       else
1039:Drivers/STM32F1xx_HAL_Driver/Src/stm32f1xx_hal_spi.c ****       {
1040:Drivers/STM32F1xx_HAL_Driver/Src/stm32f1xx_hal_spi.c ****         /* Timeout management */
1041:Drivers/STM32F1xx_HAL_Driver/Src/stm32f1xx_hal_spi.c ****         if ((((HAL_GetTick() - tickstart) >=  Timeout) && (Timeout != HAL_MAX_DELAY)) || (Timeout =
 1068              		.loc 1 1041 16
 1069 01a4 FFF7FEFF 		bl	HAL_GetTick
 1070 01a8 0246     		mov	r2, r0
 1071              		.loc 1 1041 30
 1072 01aa 3B69     		ldr	r3, [r7, #16]
 1073 01ac D31A     		subs	r3, r2, r3
ARM GAS  C:\Users\Alex\AppData\Local\Temp\ccfYuLQH.s 			page 38


 1074              		.loc 1 1041 12
 1075 01ae 3A68     		ldr	r2, [r7]
 1076 01b0 9A42     		cmp	r2, r3
 1077 01b2 03D8     		bhi	.L57
 1078              		.loc 1 1041 56 discriminator 1
 1079 01b4 3B68     		ldr	r3, [r7]
 1080 01b6 B3F1FF3F 		cmp	r3, #-1
 1081 01ba 02D1     		bne	.L58
 1082              	.L57:
 1083              		.loc 1 1041 87 discriminator 3
 1084 01bc 3B68     		ldr	r3, [r7]
 1085 01be 002B     		cmp	r3, #0
 1086 01c0 02D1     		bne	.L55
 1087              	.L58:
1042:Drivers/STM32F1xx_HAL_Driver/Src/stm32f1xx_hal_spi.c ****         {
1043:Drivers/STM32F1xx_HAL_Driver/Src/stm32f1xx_hal_spi.c ****           errorcode = HAL_TIMEOUT;
 1088              		.loc 1 1043 21
 1089 01c2 0323     		movs	r3, #3
 1090 01c4 FB75     		strb	r3, [r7, #23]
1044:Drivers/STM32F1xx_HAL_Driver/Src/stm32f1xx_hal_spi.c ****           goto error;
 1091              		.loc 1 1044 11
 1092 01c6 17E0     		b	.L43
 1093              	.L55:
1029:Drivers/STM32F1xx_HAL_Driver/Src/stm32f1xx_hal_spi.c ****     {
 1094              		.loc 1 1029 16
 1095 01c8 FB68     		ldr	r3, [r7, #12]
 1096 01ca DB8F     		ldrh	r3, [r3, #62]	@ movhi
 1097 01cc 9BB2     		uxth	r3, r3
1029:Drivers/STM32F1xx_HAL_Driver/Src/stm32f1xx_hal_spi.c ****     {
 1098              		.loc 1 1029 11
 1099 01ce 002B     		cmp	r3, #0
 1100 01d0 CDD1     		bne	.L59
 1101              	.L54:
1045:Drivers/STM32F1xx_HAL_Driver/Src/stm32f1xx_hal_spi.c ****         }
1046:Drivers/STM32F1xx_HAL_Driver/Src/stm32f1xx_hal_spi.c ****       }
1047:Drivers/STM32F1xx_HAL_Driver/Src/stm32f1xx_hal_spi.c ****     }
1048:Drivers/STM32F1xx_HAL_Driver/Src/stm32f1xx_hal_spi.c ****   }
1049:Drivers/STM32F1xx_HAL_Driver/Src/stm32f1xx_hal_spi.c **** 
1050:Drivers/STM32F1xx_HAL_Driver/Src/stm32f1xx_hal_spi.c **** #if (USE_SPI_CRC != 0U)
1051:Drivers/STM32F1xx_HAL_Driver/Src/stm32f1xx_hal_spi.c ****   /* Handle the CRC Transmission */
1052:Drivers/STM32F1xx_HAL_Driver/Src/stm32f1xx_hal_spi.c ****   if (hspi->Init.CRCCalculation == SPI_CRCCALCULATION_ENABLE)
1053:Drivers/STM32F1xx_HAL_Driver/Src/stm32f1xx_hal_spi.c ****   {
1054:Drivers/STM32F1xx_HAL_Driver/Src/stm32f1xx_hal_spi.c ****     /* freeze the CRC before the latest data */
1055:Drivers/STM32F1xx_HAL_Driver/Src/stm32f1xx_hal_spi.c ****     SET_BIT(hspi->Instance->CR1, SPI_CR1_CRCNEXT);
1056:Drivers/STM32F1xx_HAL_Driver/Src/stm32f1xx_hal_spi.c **** 
1057:Drivers/STM32F1xx_HAL_Driver/Src/stm32f1xx_hal_spi.c ****     /* Check if CRCNEXT is well reseted by hardware */
1058:Drivers/STM32F1xx_HAL_Driver/Src/stm32f1xx_hal_spi.c ****     if (READ_BIT(hspi->Instance->CR1, SPI_CR1_CRCNEXT))
1059:Drivers/STM32F1xx_HAL_Driver/Src/stm32f1xx_hal_spi.c ****     {
1060:Drivers/STM32F1xx_HAL_Driver/Src/stm32f1xx_hal_spi.c ****       /* Workaround to force CRCNEXT bit to zero in case of CRCNEXT is not reset automatically by h
1061:Drivers/STM32F1xx_HAL_Driver/Src/stm32f1xx_hal_spi.c ****       CLEAR_BIT(hspi->Instance->CR1, SPI_CR1_CRCNEXT);
1062:Drivers/STM32F1xx_HAL_Driver/Src/stm32f1xx_hal_spi.c ****     }
1063:Drivers/STM32F1xx_HAL_Driver/Src/stm32f1xx_hal_spi.c ****     /* Read the latest data */
1064:Drivers/STM32F1xx_HAL_Driver/Src/stm32f1xx_hal_spi.c ****     if (SPI_WaitFlagStateUntilTimeout(hspi, SPI_FLAG_RXNE, SET, Timeout, tickstart) != HAL_OK)
1065:Drivers/STM32F1xx_HAL_Driver/Src/stm32f1xx_hal_spi.c ****     {
1066:Drivers/STM32F1xx_HAL_Driver/Src/stm32f1xx_hal_spi.c ****       /* the latest data has not been received */
1067:Drivers/STM32F1xx_HAL_Driver/Src/stm32f1xx_hal_spi.c ****       errorcode = HAL_TIMEOUT;
1068:Drivers/STM32F1xx_HAL_Driver/Src/stm32f1xx_hal_spi.c ****       goto error;
ARM GAS  C:\Users\Alex\AppData\Local\Temp\ccfYuLQH.s 			page 39


1069:Drivers/STM32F1xx_HAL_Driver/Src/stm32f1xx_hal_spi.c ****     }
1070:Drivers/STM32F1xx_HAL_Driver/Src/stm32f1xx_hal_spi.c **** 
1071:Drivers/STM32F1xx_HAL_Driver/Src/stm32f1xx_hal_spi.c ****     /* Receive last data in 16 Bit mode */
1072:Drivers/STM32F1xx_HAL_Driver/Src/stm32f1xx_hal_spi.c ****     if (hspi->Init.DataSize == SPI_DATASIZE_16BIT)
1073:Drivers/STM32F1xx_HAL_Driver/Src/stm32f1xx_hal_spi.c ****     {
1074:Drivers/STM32F1xx_HAL_Driver/Src/stm32f1xx_hal_spi.c ****       *((uint16_t *)hspi->pRxBuffPtr) = (uint16_t)hspi->Instance->DR;
1075:Drivers/STM32F1xx_HAL_Driver/Src/stm32f1xx_hal_spi.c ****     }
1076:Drivers/STM32F1xx_HAL_Driver/Src/stm32f1xx_hal_spi.c ****     /* Receive last data in 8 Bit mode */
1077:Drivers/STM32F1xx_HAL_Driver/Src/stm32f1xx_hal_spi.c ****     else
1078:Drivers/STM32F1xx_HAL_Driver/Src/stm32f1xx_hal_spi.c ****     {
1079:Drivers/STM32F1xx_HAL_Driver/Src/stm32f1xx_hal_spi.c ****       (*(uint8_t *)hspi->pRxBuffPtr) = *(__IO uint8_t *)&hspi->Instance->DR;
1080:Drivers/STM32F1xx_HAL_Driver/Src/stm32f1xx_hal_spi.c ****     }
1081:Drivers/STM32F1xx_HAL_Driver/Src/stm32f1xx_hal_spi.c **** 
1082:Drivers/STM32F1xx_HAL_Driver/Src/stm32f1xx_hal_spi.c ****     /* Wait the CRC data */
1083:Drivers/STM32F1xx_HAL_Driver/Src/stm32f1xx_hal_spi.c ****     if (SPI_WaitFlagStateUntilTimeout(hspi, SPI_FLAG_RXNE, SET, Timeout, tickstart) != HAL_OK)
1084:Drivers/STM32F1xx_HAL_Driver/Src/stm32f1xx_hal_spi.c ****     {
1085:Drivers/STM32F1xx_HAL_Driver/Src/stm32f1xx_hal_spi.c ****       SET_BIT(hspi->ErrorCode, HAL_SPI_ERROR_CRC);
1086:Drivers/STM32F1xx_HAL_Driver/Src/stm32f1xx_hal_spi.c ****       errorcode = HAL_TIMEOUT;
1087:Drivers/STM32F1xx_HAL_Driver/Src/stm32f1xx_hal_spi.c ****       goto error;
1088:Drivers/STM32F1xx_HAL_Driver/Src/stm32f1xx_hal_spi.c ****     }
1089:Drivers/STM32F1xx_HAL_Driver/Src/stm32f1xx_hal_spi.c **** 
1090:Drivers/STM32F1xx_HAL_Driver/Src/stm32f1xx_hal_spi.c ****     /* Read CRC to Flush DR and RXNE flag */
1091:Drivers/STM32F1xx_HAL_Driver/Src/stm32f1xx_hal_spi.c ****     READ_REG(hspi->Instance->DR);
1092:Drivers/STM32F1xx_HAL_Driver/Src/stm32f1xx_hal_spi.c ****   }
1093:Drivers/STM32F1xx_HAL_Driver/Src/stm32f1xx_hal_spi.c **** #endif /* USE_SPI_CRC */
1094:Drivers/STM32F1xx_HAL_Driver/Src/stm32f1xx_hal_spi.c **** 
1095:Drivers/STM32F1xx_HAL_Driver/Src/stm32f1xx_hal_spi.c ****   /* Check the end of the transaction */
1096:Drivers/STM32F1xx_HAL_Driver/Src/stm32f1xx_hal_spi.c ****   if (SPI_EndRxTransaction(hspi, Timeout, tickstart) != HAL_OK)
 1102              		.loc 1 1096 7
 1103 01d2 3A69     		ldr	r2, [r7, #16]
 1104 01d4 3968     		ldr	r1, [r7]
 1105 01d6 F868     		ldr	r0, [r7, #12]
 1106 01d8 FFF7FEFF 		bl	SPI_EndRxTransaction
 1107 01dc 0346     		mov	r3, r0
 1108              		.loc 1 1096 6
 1109 01de 002B     		cmp	r3, #0
 1110 01e0 02D0     		beq	.L60
1097:Drivers/STM32F1xx_HAL_Driver/Src/stm32f1xx_hal_spi.c ****   {
1098:Drivers/STM32F1xx_HAL_Driver/Src/stm32f1xx_hal_spi.c ****     hspi->ErrorCode = HAL_SPI_ERROR_FLAG;
 1111              		.loc 1 1098 21
 1112 01e2 FB68     		ldr	r3, [r7, #12]
 1113 01e4 2022     		movs	r2, #32
 1114 01e6 5A65     		str	r2, [r3, #84]
 1115              	.L60:
1099:Drivers/STM32F1xx_HAL_Driver/Src/stm32f1xx_hal_spi.c ****   }
1100:Drivers/STM32F1xx_HAL_Driver/Src/stm32f1xx_hal_spi.c **** 
1101:Drivers/STM32F1xx_HAL_Driver/Src/stm32f1xx_hal_spi.c **** #if (USE_SPI_CRC != 0U)
1102:Drivers/STM32F1xx_HAL_Driver/Src/stm32f1xx_hal_spi.c ****   /* Check if CRC error occurred */
1103:Drivers/STM32F1xx_HAL_Driver/Src/stm32f1xx_hal_spi.c ****   if (__HAL_SPI_GET_FLAG(hspi, SPI_FLAG_CRCERR) != RESET)
1104:Drivers/STM32F1xx_HAL_Driver/Src/stm32f1xx_hal_spi.c ****   {
1105:Drivers/STM32F1xx_HAL_Driver/Src/stm32f1xx_hal_spi.c ****     /* Check if CRC error is valid or not (workaround to be applied or not) */
1106:Drivers/STM32F1xx_HAL_Driver/Src/stm32f1xx_hal_spi.c ****     if (SPI_ISCRCErrorValid(hspi) == SPI_VALID_CRC_ERROR)
1107:Drivers/STM32F1xx_HAL_Driver/Src/stm32f1xx_hal_spi.c ****     {
1108:Drivers/STM32F1xx_HAL_Driver/Src/stm32f1xx_hal_spi.c ****       SET_BIT(hspi->ErrorCode, HAL_SPI_ERROR_CRC);
1109:Drivers/STM32F1xx_HAL_Driver/Src/stm32f1xx_hal_spi.c **** 
1110:Drivers/STM32F1xx_HAL_Driver/Src/stm32f1xx_hal_spi.c ****       /* Reset CRC Calculation */
1111:Drivers/STM32F1xx_HAL_Driver/Src/stm32f1xx_hal_spi.c ****       SPI_RESET_CRC(hspi);
ARM GAS  C:\Users\Alex\AppData\Local\Temp\ccfYuLQH.s 			page 40


1112:Drivers/STM32F1xx_HAL_Driver/Src/stm32f1xx_hal_spi.c ****     }
1113:Drivers/STM32F1xx_HAL_Driver/Src/stm32f1xx_hal_spi.c ****     else
1114:Drivers/STM32F1xx_HAL_Driver/Src/stm32f1xx_hal_spi.c ****     {
1115:Drivers/STM32F1xx_HAL_Driver/Src/stm32f1xx_hal_spi.c ****       __HAL_SPI_CLEAR_CRCERRFLAG(hspi);
1116:Drivers/STM32F1xx_HAL_Driver/Src/stm32f1xx_hal_spi.c ****     }
1117:Drivers/STM32F1xx_HAL_Driver/Src/stm32f1xx_hal_spi.c ****   }
1118:Drivers/STM32F1xx_HAL_Driver/Src/stm32f1xx_hal_spi.c **** #endif /* USE_SPI_CRC */
1119:Drivers/STM32F1xx_HAL_Driver/Src/stm32f1xx_hal_spi.c **** 
1120:Drivers/STM32F1xx_HAL_Driver/Src/stm32f1xx_hal_spi.c ****   if (hspi->ErrorCode != HAL_SPI_ERROR_NONE)
 1116              		.loc 1 1120 11
 1117 01e8 FB68     		ldr	r3, [r7, #12]
 1118 01ea 5B6D     		ldr	r3, [r3, #84]
 1119              		.loc 1 1120 6
 1120 01ec 002B     		cmp	r3, #0
 1121 01ee 02D0     		beq	.L61
1121:Drivers/STM32F1xx_HAL_Driver/Src/stm32f1xx_hal_spi.c ****   {
1122:Drivers/STM32F1xx_HAL_Driver/Src/stm32f1xx_hal_spi.c ****     errorcode = HAL_ERROR;
 1122              		.loc 1 1122 15
 1123 01f0 0123     		movs	r3, #1
 1124 01f2 FB75     		strb	r3, [r7, #23]
 1125 01f4 00E0     		b	.L43
 1126              	.L61:
1123:Drivers/STM32F1xx_HAL_Driver/Src/stm32f1xx_hal_spi.c ****   }
1124:Drivers/STM32F1xx_HAL_Driver/Src/stm32f1xx_hal_spi.c **** 
1125:Drivers/STM32F1xx_HAL_Driver/Src/stm32f1xx_hal_spi.c **** error :
 1127              		.loc 1 1125 1
 1128 01f6 00BF     		nop
 1129              	.L43:
1126:Drivers/STM32F1xx_HAL_Driver/Src/stm32f1xx_hal_spi.c ****   hspi->State = HAL_SPI_STATE_READY;
 1130              		.loc 1 1126 15
 1131 01f8 FB68     		ldr	r3, [r7, #12]
 1132 01fa 0122     		movs	r2, #1
 1133 01fc 83F85120 		strb	r2, [r3, #81]
1127:Drivers/STM32F1xx_HAL_Driver/Src/stm32f1xx_hal_spi.c ****   __HAL_UNLOCK(hspi);
 1134              		.loc 1 1127 3
 1135 0200 FB68     		ldr	r3, [r7, #12]
 1136 0202 0022     		movs	r2, #0
 1137 0204 83F85020 		strb	r2, [r3, #80]
1128:Drivers/STM32F1xx_HAL_Driver/Src/stm32f1xx_hal_spi.c ****   return errorcode;
 1138              		.loc 1 1128 10
 1139 0208 FB7D     		ldrb	r3, [r7, #23]	@ zero_extendqisi2
 1140              	.L40:
1129:Drivers/STM32F1xx_HAL_Driver/Src/stm32f1xx_hal_spi.c **** }
 1141              		.loc 1 1129 1
 1142 020a 1846     		mov	r0, r3
 1143 020c 1837     		adds	r7, r7, #24
 1144              	.LCFI30:
 1145              		.cfi_def_cfa_offset 8
 1146 020e BD46     		mov	sp, r7
 1147              	.LCFI31:
 1148              		.cfi_def_cfa_register 13
 1149              		@ sp needed
 1150 0210 80BD     		pop	{r7, pc}
 1151              		.cfi_endproc
 1152              	.LFE70:
 1154              		.section	.text.HAL_SPI_TransmitReceive,"ax",%progbits
 1155              		.align	1
ARM GAS  C:\Users\Alex\AppData\Local\Temp\ccfYuLQH.s 			page 41


 1156              		.global	HAL_SPI_TransmitReceive
 1157              		.syntax unified
 1158              		.thumb
 1159              		.thumb_func
 1160              		.fpu softvfp
 1162              	HAL_SPI_TransmitReceive:
 1163              	.LFB71:
1130:Drivers/STM32F1xx_HAL_Driver/Src/stm32f1xx_hal_spi.c **** 
1131:Drivers/STM32F1xx_HAL_Driver/Src/stm32f1xx_hal_spi.c **** /**
1132:Drivers/STM32F1xx_HAL_Driver/Src/stm32f1xx_hal_spi.c ****   * @brief  Transmit and Receive an amount of data in blocking mode.
1133:Drivers/STM32F1xx_HAL_Driver/Src/stm32f1xx_hal_spi.c ****   * @param  hspi pointer to a SPI_HandleTypeDef structure that contains
1134:Drivers/STM32F1xx_HAL_Driver/Src/stm32f1xx_hal_spi.c ****   *               the configuration information for SPI module.
1135:Drivers/STM32F1xx_HAL_Driver/Src/stm32f1xx_hal_spi.c ****   * @param  pTxData pointer to transmission data buffer
1136:Drivers/STM32F1xx_HAL_Driver/Src/stm32f1xx_hal_spi.c ****   * @param  pRxData pointer to reception data buffer
1137:Drivers/STM32F1xx_HAL_Driver/Src/stm32f1xx_hal_spi.c ****   * @param  Size amount of data to be sent and received
1138:Drivers/STM32F1xx_HAL_Driver/Src/stm32f1xx_hal_spi.c ****   * @param  Timeout Timeout duration
1139:Drivers/STM32F1xx_HAL_Driver/Src/stm32f1xx_hal_spi.c ****   * @retval HAL status
1140:Drivers/STM32F1xx_HAL_Driver/Src/stm32f1xx_hal_spi.c ****   */
1141:Drivers/STM32F1xx_HAL_Driver/Src/stm32f1xx_hal_spi.c **** HAL_StatusTypeDef HAL_SPI_TransmitReceive(SPI_HandleTypeDef *hspi, uint8_t *pTxData, uint8_t *pRxDa
1142:Drivers/STM32F1xx_HAL_Driver/Src/stm32f1xx_hal_spi.c ****                                           uint32_t Timeout)
1143:Drivers/STM32F1xx_HAL_Driver/Src/stm32f1xx_hal_spi.c **** {
 1164              		.loc 1 1143 1
 1165              		.cfi_startproc
 1166              		@ args = 4, pretend = 0, frame = 48
 1167              		@ frame_needed = 1, uses_anonymous_args = 0
 1168 0000 80B5     		push	{r7, lr}
 1169              	.LCFI32:
 1170              		.cfi_def_cfa_offset 8
 1171              		.cfi_offset 7, -8
 1172              		.cfi_offset 14, -4
 1173 0002 8CB0     		sub	sp, sp, #48
 1174              	.LCFI33:
 1175              		.cfi_def_cfa_offset 56
 1176 0004 00AF     		add	r7, sp, #0
 1177              	.LCFI34:
 1178              		.cfi_def_cfa_register 7
 1179 0006 F860     		str	r0, [r7, #12]
 1180 0008 B960     		str	r1, [r7, #8]
 1181 000a 7A60     		str	r2, [r7, #4]
 1182 000c 7B80     		strh	r3, [r7, #2]	@ movhi
1144:Drivers/STM32F1xx_HAL_Driver/Src/stm32f1xx_hal_spi.c ****   uint16_t             initial_TxXferCount;
1145:Drivers/STM32F1xx_HAL_Driver/Src/stm32f1xx_hal_spi.c ****   uint32_t             tmp_mode;
1146:Drivers/STM32F1xx_HAL_Driver/Src/stm32f1xx_hal_spi.c ****   HAL_SPI_StateTypeDef tmp_state;
1147:Drivers/STM32F1xx_HAL_Driver/Src/stm32f1xx_hal_spi.c ****   uint32_t             tickstart;
1148:Drivers/STM32F1xx_HAL_Driver/Src/stm32f1xx_hal_spi.c **** 
1149:Drivers/STM32F1xx_HAL_Driver/Src/stm32f1xx_hal_spi.c ****   /* Variable used to alternate Rx and Tx during transfer */
1150:Drivers/STM32F1xx_HAL_Driver/Src/stm32f1xx_hal_spi.c ****   uint32_t             txallowed = 1U;
 1183              		.loc 1 1150 24
 1184 000e 0123     		movs	r3, #1
 1185 0010 FB62     		str	r3, [r7, #44]
1151:Drivers/STM32F1xx_HAL_Driver/Src/stm32f1xx_hal_spi.c ****   HAL_StatusTypeDef    errorcode = HAL_OK;
 1186              		.loc 1 1151 24
 1187 0012 0023     		movs	r3, #0
 1188 0014 87F82B30 		strb	r3, [r7, #43]
1152:Drivers/STM32F1xx_HAL_Driver/Src/stm32f1xx_hal_spi.c **** 
1153:Drivers/STM32F1xx_HAL_Driver/Src/stm32f1xx_hal_spi.c ****   /* Check Direction parameter */
1154:Drivers/STM32F1xx_HAL_Driver/Src/stm32f1xx_hal_spi.c ****   assert_param(IS_SPI_DIRECTION_2LINES(hspi->Init.Direction));
ARM GAS  C:\Users\Alex\AppData\Local\Temp\ccfYuLQH.s 			page 42


1155:Drivers/STM32F1xx_HAL_Driver/Src/stm32f1xx_hal_spi.c **** 
1156:Drivers/STM32F1xx_HAL_Driver/Src/stm32f1xx_hal_spi.c ****   /* Process Locked */
1157:Drivers/STM32F1xx_HAL_Driver/Src/stm32f1xx_hal_spi.c ****   __HAL_LOCK(hspi);
 1189              		.loc 1 1157 3
 1190 0018 FB68     		ldr	r3, [r7, #12]
 1191 001a 93F85030 		ldrb	r3, [r3, #80]	@ zero_extendqisi2
 1192 001e 012B     		cmp	r3, #1
 1193 0020 01D1     		bne	.L63
 1194              		.loc 1 1157 3 is_stmt 0 discriminator 1
 1195 0022 0223     		movs	r3, #2
 1196 0024 8AE1     		b	.L64
 1197              	.L63:
 1198              		.loc 1 1157 3 discriminator 2
 1199 0026 FB68     		ldr	r3, [r7, #12]
 1200 0028 0122     		movs	r2, #1
 1201 002a 83F85020 		strb	r2, [r3, #80]
1158:Drivers/STM32F1xx_HAL_Driver/Src/stm32f1xx_hal_spi.c **** 
1159:Drivers/STM32F1xx_HAL_Driver/Src/stm32f1xx_hal_spi.c ****   /* Init tickstart for timeout management*/
1160:Drivers/STM32F1xx_HAL_Driver/Src/stm32f1xx_hal_spi.c ****   tickstart = HAL_GetTick();
 1202              		.loc 1 1160 15 is_stmt 1 discriminator 2
 1203 002e FFF7FEFF 		bl	HAL_GetTick
 1204 0032 7862     		str	r0, [r7, #36]
1161:Drivers/STM32F1xx_HAL_Driver/Src/stm32f1xx_hal_spi.c **** 
1162:Drivers/STM32F1xx_HAL_Driver/Src/stm32f1xx_hal_spi.c ****   /* Init temporary variables */
1163:Drivers/STM32F1xx_HAL_Driver/Src/stm32f1xx_hal_spi.c ****   tmp_state           = hspi->State;
 1205              		.loc 1 1163 23 discriminator 2
 1206 0034 FB68     		ldr	r3, [r7, #12]
 1207 0036 93F85130 		ldrb	r3, [r3, #81]
 1208 003a 87F82330 		strb	r3, [r7, #35]
1164:Drivers/STM32F1xx_HAL_Driver/Src/stm32f1xx_hal_spi.c ****   tmp_mode            = hspi->Init.Mode;
 1209              		.loc 1 1164 23 discriminator 2
 1210 003e FB68     		ldr	r3, [r7, #12]
 1211 0040 5B68     		ldr	r3, [r3, #4]
 1212 0042 FB61     		str	r3, [r7, #28]
1165:Drivers/STM32F1xx_HAL_Driver/Src/stm32f1xx_hal_spi.c ****   initial_TxXferCount = Size;
 1213              		.loc 1 1165 23 discriminator 2
 1214 0044 7B88     		ldrh	r3, [r7, #2]	@ movhi
 1215 0046 7B83     		strh	r3, [r7, #26]	@ movhi
1166:Drivers/STM32F1xx_HAL_Driver/Src/stm32f1xx_hal_spi.c **** 
1167:Drivers/STM32F1xx_HAL_Driver/Src/stm32f1xx_hal_spi.c ****   if (!((tmp_state == HAL_SPI_STATE_READY) || \
 1216              		.loc 1 1167 6 discriminator 2
 1217 0048 97F82330 		ldrb	r3, [r7, #35]	@ zero_extendqisi2
 1218 004c 012B     		cmp	r3, #1
 1219 004e 0FD0     		beq	.L65
 1220              		.loc 1 1167 7 discriminator 1
 1221 0050 FB69     		ldr	r3, [r7, #28]
 1222 0052 B3F5827F 		cmp	r3, #260
 1223 0056 07D1     		bne	.L66
1168:Drivers/STM32F1xx_HAL_Driver/Src/stm32f1xx_hal_spi.c ****         ((tmp_mode == SPI_MODE_MASTER) && (hspi->Init.Direction == SPI_DIRECTION_2LINES) && (tmp_st
 1224              		.loc 1 1168 54
 1225 0058 FB68     		ldr	r3, [r7, #12]
 1226 005a 9B68     		ldr	r3, [r3, #8]
 1227              		.loc 1 1168 40
 1228 005c 002B     		cmp	r3, #0
 1229 005e 03D1     		bne	.L66
 1230              		.loc 1 1168 90 discriminator 1
 1231 0060 97F82330 		ldrb	r3, [r7, #35]	@ zero_extendqisi2
ARM GAS  C:\Users\Alex\AppData\Local\Temp\ccfYuLQH.s 			page 43


 1232 0064 042B     		cmp	r3, #4
 1233 0066 03D0     		beq	.L65
 1234              	.L66:
1169:Drivers/STM32F1xx_HAL_Driver/Src/stm32f1xx_hal_spi.c ****   {
1170:Drivers/STM32F1xx_HAL_Driver/Src/stm32f1xx_hal_spi.c ****     errorcode = HAL_BUSY;
 1235              		.loc 1 1170 15
 1236 0068 0223     		movs	r3, #2
 1237 006a 87F82B30 		strb	r3, [r7, #43]
1171:Drivers/STM32F1xx_HAL_Driver/Src/stm32f1xx_hal_spi.c ****     goto error;
 1238              		.loc 1 1171 5
 1239 006e 5BE1     		b	.L67
 1240              	.L65:
1172:Drivers/STM32F1xx_HAL_Driver/Src/stm32f1xx_hal_spi.c ****   }
1173:Drivers/STM32F1xx_HAL_Driver/Src/stm32f1xx_hal_spi.c **** 
1174:Drivers/STM32F1xx_HAL_Driver/Src/stm32f1xx_hal_spi.c ****   if ((pTxData == NULL) || (pRxData == NULL) || (Size == 0U))
 1241              		.loc 1 1174 6
 1242 0070 BB68     		ldr	r3, [r7, #8]
 1243 0072 002B     		cmp	r3, #0
 1244 0074 05D0     		beq	.L68
 1245              		.loc 1 1174 25 discriminator 1
 1246 0076 7B68     		ldr	r3, [r7, #4]
 1247 0078 002B     		cmp	r3, #0
 1248 007a 02D0     		beq	.L68
 1249              		.loc 1 1174 46 discriminator 2
 1250 007c 7B88     		ldrh	r3, [r7, #2]
 1251 007e 002B     		cmp	r3, #0
 1252 0080 03D1     		bne	.L69
 1253              	.L68:
1175:Drivers/STM32F1xx_HAL_Driver/Src/stm32f1xx_hal_spi.c ****   {
1176:Drivers/STM32F1xx_HAL_Driver/Src/stm32f1xx_hal_spi.c ****     errorcode = HAL_ERROR;
 1254              		.loc 1 1176 15
 1255 0082 0123     		movs	r3, #1
 1256 0084 87F82B30 		strb	r3, [r7, #43]
1177:Drivers/STM32F1xx_HAL_Driver/Src/stm32f1xx_hal_spi.c ****     goto error;
 1257              		.loc 1 1177 5
 1258 0088 4EE1     		b	.L67
 1259              	.L69:
1178:Drivers/STM32F1xx_HAL_Driver/Src/stm32f1xx_hal_spi.c ****   }
1179:Drivers/STM32F1xx_HAL_Driver/Src/stm32f1xx_hal_spi.c **** 
1180:Drivers/STM32F1xx_HAL_Driver/Src/stm32f1xx_hal_spi.c ****   /* Don't overwrite in case of HAL_SPI_STATE_BUSY_RX */
1181:Drivers/STM32F1xx_HAL_Driver/Src/stm32f1xx_hal_spi.c ****   if (hspi->State != HAL_SPI_STATE_BUSY_RX)
 1260              		.loc 1 1181 11
 1261 008a FB68     		ldr	r3, [r7, #12]
 1262 008c 93F85130 		ldrb	r3, [r3, #81]
 1263 0090 DBB2     		uxtb	r3, r3
 1264              		.loc 1 1181 6
 1265 0092 042B     		cmp	r3, #4
 1266 0094 03D0     		beq	.L70
1182:Drivers/STM32F1xx_HAL_Driver/Src/stm32f1xx_hal_spi.c ****   {
1183:Drivers/STM32F1xx_HAL_Driver/Src/stm32f1xx_hal_spi.c ****     hspi->State = HAL_SPI_STATE_BUSY_TX_RX;
 1267              		.loc 1 1183 17
 1268 0096 FB68     		ldr	r3, [r7, #12]
 1269 0098 0522     		movs	r2, #5
 1270 009a 83F85120 		strb	r2, [r3, #81]
 1271              	.L70:
1184:Drivers/STM32F1xx_HAL_Driver/Src/stm32f1xx_hal_spi.c ****   }
1185:Drivers/STM32F1xx_HAL_Driver/Src/stm32f1xx_hal_spi.c **** 
ARM GAS  C:\Users\Alex\AppData\Local\Temp\ccfYuLQH.s 			page 44


1186:Drivers/STM32F1xx_HAL_Driver/Src/stm32f1xx_hal_spi.c ****   /* Set the transaction information */
1187:Drivers/STM32F1xx_HAL_Driver/Src/stm32f1xx_hal_spi.c ****   hspi->ErrorCode   = HAL_SPI_ERROR_NONE;
 1272              		.loc 1 1187 21
 1273 009e FB68     		ldr	r3, [r7, #12]
 1274 00a0 0022     		movs	r2, #0
 1275 00a2 5A65     		str	r2, [r3, #84]
1188:Drivers/STM32F1xx_HAL_Driver/Src/stm32f1xx_hal_spi.c ****   hspi->pRxBuffPtr  = (uint8_t *)pRxData;
 1276              		.loc 1 1188 21
 1277 00a4 FB68     		ldr	r3, [r7, #12]
 1278 00a6 7A68     		ldr	r2, [r7, #4]
 1279 00a8 9A63     		str	r2, [r3, #56]
1189:Drivers/STM32F1xx_HAL_Driver/Src/stm32f1xx_hal_spi.c ****   hspi->RxXferCount = Size;
 1280              		.loc 1 1189 21
 1281 00aa FB68     		ldr	r3, [r7, #12]
 1282 00ac 7A88     		ldrh	r2, [r7, #2]	@ movhi
 1283 00ae DA87     		strh	r2, [r3, #62]	@ movhi
1190:Drivers/STM32F1xx_HAL_Driver/Src/stm32f1xx_hal_spi.c ****   hspi->RxXferSize  = Size;
 1284              		.loc 1 1190 21
 1285 00b0 FB68     		ldr	r3, [r7, #12]
 1286 00b2 7A88     		ldrh	r2, [r7, #2]	@ movhi
 1287 00b4 9A87     		strh	r2, [r3, #60]	@ movhi
1191:Drivers/STM32F1xx_HAL_Driver/Src/stm32f1xx_hal_spi.c ****   hspi->pTxBuffPtr  = (uint8_t *)pTxData;
 1288              		.loc 1 1191 21
 1289 00b6 FB68     		ldr	r3, [r7, #12]
 1290 00b8 BA68     		ldr	r2, [r7, #8]
 1291 00ba 1A63     		str	r2, [r3, #48]
1192:Drivers/STM32F1xx_HAL_Driver/Src/stm32f1xx_hal_spi.c ****   hspi->TxXferCount = Size;
 1292              		.loc 1 1192 21
 1293 00bc FB68     		ldr	r3, [r7, #12]
 1294 00be 7A88     		ldrh	r2, [r7, #2]	@ movhi
 1295 00c0 DA86     		strh	r2, [r3, #54]	@ movhi
1193:Drivers/STM32F1xx_HAL_Driver/Src/stm32f1xx_hal_spi.c ****   hspi->TxXferSize  = Size;
 1296              		.loc 1 1193 21
 1297 00c2 FB68     		ldr	r3, [r7, #12]
 1298 00c4 7A88     		ldrh	r2, [r7, #2]	@ movhi
 1299 00c6 9A86     		strh	r2, [r3, #52]	@ movhi
1194:Drivers/STM32F1xx_HAL_Driver/Src/stm32f1xx_hal_spi.c **** 
1195:Drivers/STM32F1xx_HAL_Driver/Src/stm32f1xx_hal_spi.c ****   /*Init field not used in handle to zero */
1196:Drivers/STM32F1xx_HAL_Driver/Src/stm32f1xx_hal_spi.c ****   hspi->RxISR       = NULL;
 1300              		.loc 1 1196 21
 1301 00c8 FB68     		ldr	r3, [r7, #12]
 1302 00ca 0022     		movs	r2, #0
 1303 00cc 1A64     		str	r2, [r3, #64]
1197:Drivers/STM32F1xx_HAL_Driver/Src/stm32f1xx_hal_spi.c ****   hspi->TxISR       = NULL;
 1304              		.loc 1 1197 21
 1305 00ce FB68     		ldr	r3, [r7, #12]
 1306 00d0 0022     		movs	r2, #0
 1307 00d2 5A64     		str	r2, [r3, #68]
1198:Drivers/STM32F1xx_HAL_Driver/Src/stm32f1xx_hal_spi.c **** 
1199:Drivers/STM32F1xx_HAL_Driver/Src/stm32f1xx_hal_spi.c **** #if (USE_SPI_CRC != 0U)
1200:Drivers/STM32F1xx_HAL_Driver/Src/stm32f1xx_hal_spi.c ****   /* Reset CRC Calculation */
1201:Drivers/STM32F1xx_HAL_Driver/Src/stm32f1xx_hal_spi.c ****   if (hspi->Init.CRCCalculation == SPI_CRCCALCULATION_ENABLE)
1202:Drivers/STM32F1xx_HAL_Driver/Src/stm32f1xx_hal_spi.c ****   {
1203:Drivers/STM32F1xx_HAL_Driver/Src/stm32f1xx_hal_spi.c ****     SPI_RESET_CRC(hspi);
1204:Drivers/STM32F1xx_HAL_Driver/Src/stm32f1xx_hal_spi.c ****   }
1205:Drivers/STM32F1xx_HAL_Driver/Src/stm32f1xx_hal_spi.c **** #endif /* USE_SPI_CRC */
1206:Drivers/STM32F1xx_HAL_Driver/Src/stm32f1xx_hal_spi.c **** 
ARM GAS  C:\Users\Alex\AppData\Local\Temp\ccfYuLQH.s 			page 45


1207:Drivers/STM32F1xx_HAL_Driver/Src/stm32f1xx_hal_spi.c ****   /* Check if the SPI is already enabled */
1208:Drivers/STM32F1xx_HAL_Driver/Src/stm32f1xx_hal_spi.c ****   if ((hspi->Instance->CR1 & SPI_CR1_SPE) != SPI_CR1_SPE)
 1308              		.loc 1 1208 12
 1309 00d4 FB68     		ldr	r3, [r7, #12]
 1310 00d6 1B68     		ldr	r3, [r3]
 1311              		.loc 1 1208 22
 1312 00d8 1B68     		ldr	r3, [r3]
 1313              		.loc 1 1208 28
 1314 00da 03F04003 		and	r3, r3, #64
 1315              		.loc 1 1208 6
 1316 00de 402B     		cmp	r3, #64
 1317 00e0 07D0     		beq	.L71
1209:Drivers/STM32F1xx_HAL_Driver/Src/stm32f1xx_hal_spi.c ****   {
1210:Drivers/STM32F1xx_HAL_Driver/Src/stm32f1xx_hal_spi.c ****     /* Enable SPI peripheral */
1211:Drivers/STM32F1xx_HAL_Driver/Src/stm32f1xx_hal_spi.c ****     __HAL_SPI_ENABLE(hspi);
 1318              		.loc 1 1211 5
 1319 00e2 FB68     		ldr	r3, [r7, #12]
 1320 00e4 1B68     		ldr	r3, [r3]
 1321 00e6 1A68     		ldr	r2, [r3]
 1322 00e8 FB68     		ldr	r3, [r7, #12]
 1323 00ea 1B68     		ldr	r3, [r3]
 1324 00ec 42F04002 		orr	r2, r2, #64
 1325 00f0 1A60     		str	r2, [r3]
 1326              	.L71:
1212:Drivers/STM32F1xx_HAL_Driver/Src/stm32f1xx_hal_spi.c ****   }
1213:Drivers/STM32F1xx_HAL_Driver/Src/stm32f1xx_hal_spi.c **** 
1214:Drivers/STM32F1xx_HAL_Driver/Src/stm32f1xx_hal_spi.c ****   /* Transmit and Receive data in 16 Bit mode */
1215:Drivers/STM32F1xx_HAL_Driver/Src/stm32f1xx_hal_spi.c ****   if (hspi->Init.DataSize == SPI_DATASIZE_16BIT)
 1327              		.loc 1 1215 17
 1328 00f2 FB68     		ldr	r3, [r7, #12]
 1329 00f4 DB68     		ldr	r3, [r3, #12]
 1330              		.loc 1 1215 6
 1331 00f6 B3F5006F 		cmp	r3, #2048
 1332 00fa 78D1     		bne	.L72
1216:Drivers/STM32F1xx_HAL_Driver/Src/stm32f1xx_hal_spi.c ****   {
1217:Drivers/STM32F1xx_HAL_Driver/Src/stm32f1xx_hal_spi.c ****     if ((hspi->Init.Mode == SPI_MODE_SLAVE) || (initial_TxXferCount == 0x01U))
 1333              		.loc 1 1217 20
 1334 00fc FB68     		ldr	r3, [r7, #12]
 1335 00fe 5B68     		ldr	r3, [r3, #4]
 1336              		.loc 1 1217 8
 1337 0100 002B     		cmp	r3, #0
 1338 0102 02D0     		beq	.L73
 1339              		.loc 1 1217 45 discriminator 1
 1340 0104 7B8B     		ldrh	r3, [r7, #26]
 1341 0106 012B     		cmp	r3, #1
 1342 0108 66D1     		bne	.L75
 1343              	.L73:
1218:Drivers/STM32F1xx_HAL_Driver/Src/stm32f1xx_hal_spi.c ****     {
1219:Drivers/STM32F1xx_HAL_Driver/Src/stm32f1xx_hal_spi.c ****       hspi->Instance->DR = *((uint16_t *)hspi->pTxBuffPtr);
 1344              		.loc 1 1219 46
 1345 010a FB68     		ldr	r3, [r7, #12]
 1346 010c 1B6B     		ldr	r3, [r3, #48]
 1347              		.loc 1 1219 28
 1348 010e 1A88     		ldrh	r2, [r3]
 1349              		.loc 1 1219 11
 1350 0110 FB68     		ldr	r3, [r7, #12]
 1351 0112 1B68     		ldr	r3, [r3]
ARM GAS  C:\Users\Alex\AppData\Local\Temp\ccfYuLQH.s 			page 46


 1352              		.loc 1 1219 26
 1353 0114 DA60     		str	r2, [r3, #12]
1220:Drivers/STM32F1xx_HAL_Driver/Src/stm32f1xx_hal_spi.c ****       hspi->pTxBuffPtr += sizeof(uint16_t);
 1354              		.loc 1 1220 24
 1355 0116 FB68     		ldr	r3, [r7, #12]
 1356 0118 1B6B     		ldr	r3, [r3, #48]
 1357 011a 9A1C     		adds	r2, r3, #2
 1358 011c FB68     		ldr	r3, [r7, #12]
 1359 011e 1A63     		str	r2, [r3, #48]
1221:Drivers/STM32F1xx_HAL_Driver/Src/stm32f1xx_hal_spi.c ****       hspi->TxXferCount--;
 1360              		.loc 1 1221 11
 1361 0120 FB68     		ldr	r3, [r7, #12]
 1362 0122 DB8E     		ldrh	r3, [r3, #54]	@ movhi
 1363 0124 9BB2     		uxth	r3, r3
 1364              		.loc 1 1221 24
 1365 0126 013B     		subs	r3, r3, #1
 1366 0128 9AB2     		uxth	r2, r3
 1367 012a FB68     		ldr	r3, [r7, #12]
 1368 012c DA86     		strh	r2, [r3, #54]	@ movhi
1222:Drivers/STM32F1xx_HAL_Driver/Src/stm32f1xx_hal_spi.c ****     }
1223:Drivers/STM32F1xx_HAL_Driver/Src/stm32f1xx_hal_spi.c ****     while ((hspi->TxXferCount > 0U) || (hspi->RxXferCount > 0U))
 1369              		.loc 1 1223 11
 1370 012e 53E0     		b	.L75
 1371              	.L78:
1224:Drivers/STM32F1xx_HAL_Driver/Src/stm32f1xx_hal_spi.c ****     {
1225:Drivers/STM32F1xx_HAL_Driver/Src/stm32f1xx_hal_spi.c ****       /* Check TXE flag */
1226:Drivers/STM32F1xx_HAL_Driver/Src/stm32f1xx_hal_spi.c ****       if ((__HAL_SPI_GET_FLAG(hspi, SPI_FLAG_TXE)) && (hspi->TxXferCount > 0U) && (txallowed == 1U)
 1372              		.loc 1 1226 12
 1373 0130 FB68     		ldr	r3, [r7, #12]
 1374 0132 1B68     		ldr	r3, [r3]
 1375 0134 9B68     		ldr	r3, [r3, #8]
 1376 0136 03F00203 		and	r3, r3, #2
 1377              		.loc 1 1226 10
 1378 013a 022B     		cmp	r3, #2
 1379 013c 1BD1     		bne	.L76
 1380              		.loc 1 1226 60 discriminator 1
 1381 013e FB68     		ldr	r3, [r7, #12]
 1382 0140 DB8E     		ldrh	r3, [r3, #54]	@ movhi
 1383 0142 9BB2     		uxth	r3, r3
 1384              		.loc 1 1226 52 discriminator 1
 1385 0144 002B     		cmp	r3, #0
 1386 0146 16D0     		beq	.L76
 1387              		.loc 1 1226 80 discriminator 2
 1388 0148 FB6A     		ldr	r3, [r7, #44]
 1389 014a 012B     		cmp	r3, #1
 1390 014c 13D1     		bne	.L76
1227:Drivers/STM32F1xx_HAL_Driver/Src/stm32f1xx_hal_spi.c ****       {
1228:Drivers/STM32F1xx_HAL_Driver/Src/stm32f1xx_hal_spi.c ****         hspi->Instance->DR = *((uint16_t *)hspi->pTxBuffPtr);
 1391              		.loc 1 1228 48
 1392 014e FB68     		ldr	r3, [r7, #12]
 1393 0150 1B6B     		ldr	r3, [r3, #48]
 1394              		.loc 1 1228 30
 1395 0152 1A88     		ldrh	r2, [r3]
 1396              		.loc 1 1228 13
 1397 0154 FB68     		ldr	r3, [r7, #12]
 1398 0156 1B68     		ldr	r3, [r3]
 1399              		.loc 1 1228 28
ARM GAS  C:\Users\Alex\AppData\Local\Temp\ccfYuLQH.s 			page 47


 1400 0158 DA60     		str	r2, [r3, #12]
1229:Drivers/STM32F1xx_HAL_Driver/Src/stm32f1xx_hal_spi.c ****         hspi->pTxBuffPtr += sizeof(uint16_t);
 1401              		.loc 1 1229 26
 1402 015a FB68     		ldr	r3, [r7, #12]
 1403 015c 1B6B     		ldr	r3, [r3, #48]
 1404 015e 9A1C     		adds	r2, r3, #2
 1405 0160 FB68     		ldr	r3, [r7, #12]
 1406 0162 1A63     		str	r2, [r3, #48]
1230:Drivers/STM32F1xx_HAL_Driver/Src/stm32f1xx_hal_spi.c ****         hspi->TxXferCount--;
 1407              		.loc 1 1230 13
 1408 0164 FB68     		ldr	r3, [r7, #12]
 1409 0166 DB8E     		ldrh	r3, [r3, #54]	@ movhi
 1410 0168 9BB2     		uxth	r3, r3
 1411              		.loc 1 1230 26
 1412 016a 013B     		subs	r3, r3, #1
 1413 016c 9AB2     		uxth	r2, r3
 1414 016e FB68     		ldr	r3, [r7, #12]
 1415 0170 DA86     		strh	r2, [r3, #54]	@ movhi
1231:Drivers/STM32F1xx_HAL_Driver/Src/stm32f1xx_hal_spi.c ****         /* Next Data is a reception (Rx). Tx not allowed */
1232:Drivers/STM32F1xx_HAL_Driver/Src/stm32f1xx_hal_spi.c ****         txallowed = 0U;
 1416              		.loc 1 1232 19
 1417 0172 0023     		movs	r3, #0
 1418 0174 FB62     		str	r3, [r7, #44]
 1419              	.L76:
1233:Drivers/STM32F1xx_HAL_Driver/Src/stm32f1xx_hal_spi.c **** 
1234:Drivers/STM32F1xx_HAL_Driver/Src/stm32f1xx_hal_spi.c **** #if (USE_SPI_CRC != 0U)
1235:Drivers/STM32F1xx_HAL_Driver/Src/stm32f1xx_hal_spi.c ****         /* Enable CRC Transmission */
1236:Drivers/STM32F1xx_HAL_Driver/Src/stm32f1xx_hal_spi.c ****         if ((hspi->TxXferCount == 0U) && (hspi->Init.CRCCalculation == SPI_CRCCALCULATION_ENABLE))
1237:Drivers/STM32F1xx_HAL_Driver/Src/stm32f1xx_hal_spi.c ****         {
1238:Drivers/STM32F1xx_HAL_Driver/Src/stm32f1xx_hal_spi.c ****           SET_BIT(hspi->Instance->CR1, SPI_CR1_CRCNEXT);
1239:Drivers/STM32F1xx_HAL_Driver/Src/stm32f1xx_hal_spi.c ****         }
1240:Drivers/STM32F1xx_HAL_Driver/Src/stm32f1xx_hal_spi.c **** #endif /* USE_SPI_CRC */
1241:Drivers/STM32F1xx_HAL_Driver/Src/stm32f1xx_hal_spi.c ****       }
1242:Drivers/STM32F1xx_HAL_Driver/Src/stm32f1xx_hal_spi.c **** 
1243:Drivers/STM32F1xx_HAL_Driver/Src/stm32f1xx_hal_spi.c ****       /* Check RXNE flag */
1244:Drivers/STM32F1xx_HAL_Driver/Src/stm32f1xx_hal_spi.c ****       if ((__HAL_SPI_GET_FLAG(hspi, SPI_FLAG_RXNE)) && (hspi->RxXferCount > 0U))
 1420              		.loc 1 1244 12
 1421 0176 FB68     		ldr	r3, [r7, #12]
 1422 0178 1B68     		ldr	r3, [r3]
 1423 017a 9B68     		ldr	r3, [r3, #8]
 1424 017c 03F00103 		and	r3, r3, #1
 1425              		.loc 1 1244 10
 1426 0180 012B     		cmp	r3, #1
 1427 0182 19D1     		bne	.L77
 1428              		.loc 1 1244 61 discriminator 1
 1429 0184 FB68     		ldr	r3, [r7, #12]
 1430 0186 DB8F     		ldrh	r3, [r3, #62]	@ movhi
 1431 0188 9BB2     		uxth	r3, r3
 1432              		.loc 1 1244 53 discriminator 1
 1433 018a 002B     		cmp	r3, #0
 1434 018c 14D0     		beq	.L77
1245:Drivers/STM32F1xx_HAL_Driver/Src/stm32f1xx_hal_spi.c ****       {
1246:Drivers/STM32F1xx_HAL_Driver/Src/stm32f1xx_hal_spi.c ****         *((uint16_t *)hspi->pRxBuffPtr) = (uint16_t)hspi->Instance->DR;
 1435              		.loc 1 1246 57
 1436 018e FB68     		ldr	r3, [r7, #12]
 1437 0190 1B68     		ldr	r3, [r3]
 1438              		.loc 1 1246 67
ARM GAS  C:\Users\Alex\AppData\Local\Temp\ccfYuLQH.s 			page 48


 1439 0192 DA68     		ldr	r2, [r3, #12]
 1440              		.loc 1 1246 27
 1441 0194 FB68     		ldr	r3, [r7, #12]
 1442 0196 9B6B     		ldr	r3, [r3, #56]
 1443              		.loc 1 1246 43
 1444 0198 92B2     		uxth	r2, r2
 1445              		.loc 1 1246 41
 1446 019a 1A80     		strh	r2, [r3]	@ movhi
1247:Drivers/STM32F1xx_HAL_Driver/Src/stm32f1xx_hal_spi.c ****         hspi->pRxBuffPtr += sizeof(uint16_t);
 1447              		.loc 1 1247 26
 1448 019c FB68     		ldr	r3, [r7, #12]
 1449 019e 9B6B     		ldr	r3, [r3, #56]
 1450 01a0 9A1C     		adds	r2, r3, #2
 1451 01a2 FB68     		ldr	r3, [r7, #12]
 1452 01a4 9A63     		str	r2, [r3, #56]
1248:Drivers/STM32F1xx_HAL_Driver/Src/stm32f1xx_hal_spi.c ****         hspi->RxXferCount--;
 1453              		.loc 1 1248 13
 1454 01a6 FB68     		ldr	r3, [r7, #12]
 1455 01a8 DB8F     		ldrh	r3, [r3, #62]	@ movhi
 1456 01aa 9BB2     		uxth	r3, r3
 1457              		.loc 1 1248 26
 1458 01ac 013B     		subs	r3, r3, #1
 1459 01ae 9AB2     		uxth	r2, r3
 1460 01b0 FB68     		ldr	r3, [r7, #12]
 1461 01b2 DA87     		strh	r2, [r3, #62]	@ movhi
1249:Drivers/STM32F1xx_HAL_Driver/Src/stm32f1xx_hal_spi.c ****         /* Next Data is a Transmission (Tx). Tx is allowed */
1250:Drivers/STM32F1xx_HAL_Driver/Src/stm32f1xx_hal_spi.c ****         txallowed = 1U;
 1462              		.loc 1 1250 19
 1463 01b4 0123     		movs	r3, #1
 1464 01b6 FB62     		str	r3, [r7, #44]
 1465              	.L77:
1251:Drivers/STM32F1xx_HAL_Driver/Src/stm32f1xx_hal_spi.c ****       }
1252:Drivers/STM32F1xx_HAL_Driver/Src/stm32f1xx_hal_spi.c ****       if (((HAL_GetTick() - tickstart) >=  Timeout) && (Timeout != HAL_MAX_DELAY))
 1466              		.loc 1 1252 13
 1467 01b8 FFF7FEFF 		bl	HAL_GetTick
 1468 01bc 0246     		mov	r2, r0
 1469              		.loc 1 1252 27
 1470 01be 7B6A     		ldr	r3, [r7, #36]
 1471 01c0 D31A     		subs	r3, r2, r3
 1472              		.loc 1 1252 10
 1473 01c2 BA6B     		ldr	r2, [r7, #56]
 1474 01c4 9A42     		cmp	r2, r3
 1475 01c6 07D8     		bhi	.L75
 1476              		.loc 1 1252 53 discriminator 1
 1477 01c8 BB6B     		ldr	r3, [r7, #56]
 1478 01ca B3F1FF3F 		cmp	r3, #-1
 1479 01ce 03D0     		beq	.L75
1253:Drivers/STM32F1xx_HAL_Driver/Src/stm32f1xx_hal_spi.c ****       {
1254:Drivers/STM32F1xx_HAL_Driver/Src/stm32f1xx_hal_spi.c ****         errorcode = HAL_TIMEOUT;
 1480              		.loc 1 1254 19
 1481 01d0 0323     		movs	r3, #3
 1482 01d2 87F82B30 		strb	r3, [r7, #43]
1255:Drivers/STM32F1xx_HAL_Driver/Src/stm32f1xx_hal_spi.c ****         goto error;
 1483              		.loc 1 1255 9
 1484 01d6 A7E0     		b	.L67
 1485              	.L75:
1223:Drivers/STM32F1xx_HAL_Driver/Src/stm32f1xx_hal_spi.c ****     {
ARM GAS  C:\Users\Alex\AppData\Local\Temp\ccfYuLQH.s 			page 49


 1486              		.loc 1 1223 17
 1487 01d8 FB68     		ldr	r3, [r7, #12]
 1488 01da DB8E     		ldrh	r3, [r3, #54]	@ movhi
 1489 01dc 9BB2     		uxth	r3, r3
1223:Drivers/STM32F1xx_HAL_Driver/Src/stm32f1xx_hal_spi.c ****     {
 1490              		.loc 1 1223 11
 1491 01de 002B     		cmp	r3, #0
 1492 01e0 A6D1     		bne	.L78
1223:Drivers/STM32F1xx_HAL_Driver/Src/stm32f1xx_hal_spi.c ****     {
 1493              		.loc 1 1223 45 discriminator 1
 1494 01e2 FB68     		ldr	r3, [r7, #12]
 1495 01e4 DB8F     		ldrh	r3, [r3, #62]	@ movhi
 1496 01e6 9BB2     		uxth	r3, r3
1223:Drivers/STM32F1xx_HAL_Driver/Src/stm32f1xx_hal_spi.c ****     {
 1497              		.loc 1 1223 37 discriminator 1
 1498 01e8 002B     		cmp	r3, #0
 1499 01ea A1D1     		bne	.L78
 1500 01ec 7CE0     		b	.L79
 1501              	.L72:
1256:Drivers/STM32F1xx_HAL_Driver/Src/stm32f1xx_hal_spi.c ****       }
1257:Drivers/STM32F1xx_HAL_Driver/Src/stm32f1xx_hal_spi.c ****     }
1258:Drivers/STM32F1xx_HAL_Driver/Src/stm32f1xx_hal_spi.c ****   }
1259:Drivers/STM32F1xx_HAL_Driver/Src/stm32f1xx_hal_spi.c ****   /* Transmit and Receive data in 8 Bit mode */
1260:Drivers/STM32F1xx_HAL_Driver/Src/stm32f1xx_hal_spi.c ****   else
1261:Drivers/STM32F1xx_HAL_Driver/Src/stm32f1xx_hal_spi.c ****   {
1262:Drivers/STM32F1xx_HAL_Driver/Src/stm32f1xx_hal_spi.c ****     if ((hspi->Init.Mode == SPI_MODE_SLAVE) || (initial_TxXferCount == 0x01U))
 1502              		.loc 1 1262 20
 1503 01ee FB68     		ldr	r3, [r7, #12]
 1504 01f0 5B68     		ldr	r3, [r3, #4]
 1505              		.loc 1 1262 8
 1506 01f2 002B     		cmp	r3, #0
 1507 01f4 02D0     		beq	.L80
 1508              		.loc 1 1262 45 discriminator 1
 1509 01f6 7B8B     		ldrh	r3, [r7, #26]
 1510 01f8 012B     		cmp	r3, #1
 1511 01fa 6BD1     		bne	.L82
 1512              	.L80:
1263:Drivers/STM32F1xx_HAL_Driver/Src/stm32f1xx_hal_spi.c ****     {
1264:Drivers/STM32F1xx_HAL_Driver/Src/stm32f1xx_hal_spi.c ****       *((__IO uint8_t *)&hspi->Instance->DR) = (*hspi->pTxBuffPtr);
 1513              		.loc 1 1264 54
 1514 01fc FB68     		ldr	r3, [r7, #12]
 1515 01fe 1A6B     		ldr	r2, [r3, #48]
 1516              		.loc 1 1264 30
 1517 0200 FB68     		ldr	r3, [r7, #12]
 1518 0202 1B68     		ldr	r3, [r3]
 1519              		.loc 1 1264 25
 1520 0204 0C33     		adds	r3, r3, #12
 1521              		.loc 1 1264 49
 1522 0206 1278     		ldrb	r2, [r2]	@ zero_extendqisi2
 1523              		.loc 1 1264 46
 1524 0208 1A70     		strb	r2, [r3]
1265:Drivers/STM32F1xx_HAL_Driver/Src/stm32f1xx_hal_spi.c ****       hspi->pTxBuffPtr += sizeof(uint8_t);
 1525              		.loc 1 1265 24
 1526 020a FB68     		ldr	r3, [r7, #12]
 1527 020c 1B6B     		ldr	r3, [r3, #48]
 1528 020e 5A1C     		adds	r2, r3, #1
 1529 0210 FB68     		ldr	r3, [r7, #12]
ARM GAS  C:\Users\Alex\AppData\Local\Temp\ccfYuLQH.s 			page 50


 1530 0212 1A63     		str	r2, [r3, #48]
1266:Drivers/STM32F1xx_HAL_Driver/Src/stm32f1xx_hal_spi.c ****       hspi->TxXferCount--;
 1531              		.loc 1 1266 11
 1532 0214 FB68     		ldr	r3, [r7, #12]
 1533 0216 DB8E     		ldrh	r3, [r3, #54]	@ movhi
 1534 0218 9BB2     		uxth	r3, r3
 1535              		.loc 1 1266 24
 1536 021a 013B     		subs	r3, r3, #1
 1537 021c 9AB2     		uxth	r2, r3
 1538 021e FB68     		ldr	r3, [r7, #12]
 1539 0220 DA86     		strh	r2, [r3, #54]	@ movhi
1267:Drivers/STM32F1xx_HAL_Driver/Src/stm32f1xx_hal_spi.c ****     }
1268:Drivers/STM32F1xx_HAL_Driver/Src/stm32f1xx_hal_spi.c ****     while ((hspi->TxXferCount > 0U) || (hspi->RxXferCount > 0U))
 1540              		.loc 1 1268 11
 1541 0222 57E0     		b	.L82
 1542              	.L87:
1269:Drivers/STM32F1xx_HAL_Driver/Src/stm32f1xx_hal_spi.c ****     {
1270:Drivers/STM32F1xx_HAL_Driver/Src/stm32f1xx_hal_spi.c ****       /* Check TXE flag */
1271:Drivers/STM32F1xx_HAL_Driver/Src/stm32f1xx_hal_spi.c ****       if ((__HAL_SPI_GET_FLAG(hspi, SPI_FLAG_TXE)) && (hspi->TxXferCount > 0U) && (txallowed == 1U)
 1543              		.loc 1 1271 12
 1544 0224 FB68     		ldr	r3, [r7, #12]
 1545 0226 1B68     		ldr	r3, [r3]
 1546 0228 9B68     		ldr	r3, [r3, #8]
 1547 022a 03F00203 		and	r3, r3, #2
 1548              		.loc 1 1271 10
 1549 022e 022B     		cmp	r3, #2
 1550 0230 1CD1     		bne	.L83
 1551              		.loc 1 1271 60 discriminator 1
 1552 0232 FB68     		ldr	r3, [r7, #12]
 1553 0234 DB8E     		ldrh	r3, [r3, #54]	@ movhi
 1554 0236 9BB2     		uxth	r3, r3
 1555              		.loc 1 1271 52 discriminator 1
 1556 0238 002B     		cmp	r3, #0
 1557 023a 17D0     		beq	.L83
 1558              		.loc 1 1271 80 discriminator 2
 1559 023c FB6A     		ldr	r3, [r7, #44]
 1560 023e 012B     		cmp	r3, #1
 1561 0240 14D1     		bne	.L83
1272:Drivers/STM32F1xx_HAL_Driver/Src/stm32f1xx_hal_spi.c ****       {
1273:Drivers/STM32F1xx_HAL_Driver/Src/stm32f1xx_hal_spi.c ****         *(__IO uint8_t *)&hspi->Instance->DR = (*hspi->pTxBuffPtr);
 1562              		.loc 1 1273 54
 1563 0242 FB68     		ldr	r3, [r7, #12]
 1564 0244 1A6B     		ldr	r2, [r3, #48]
 1565              		.loc 1 1273 31
 1566 0246 FB68     		ldr	r3, [r7, #12]
 1567 0248 1B68     		ldr	r3, [r3]
 1568              		.loc 1 1273 26
 1569 024a 0C33     		adds	r3, r3, #12
 1570              		.loc 1 1273 49
 1571 024c 1278     		ldrb	r2, [r2]	@ zero_extendqisi2
 1572              		.loc 1 1273 46
 1573 024e 1A70     		strb	r2, [r3]
1274:Drivers/STM32F1xx_HAL_Driver/Src/stm32f1xx_hal_spi.c ****         hspi->pTxBuffPtr++;
 1574              		.loc 1 1274 13
 1575 0250 FB68     		ldr	r3, [r7, #12]
 1576 0252 1B6B     		ldr	r3, [r3, #48]
 1577              		.loc 1 1274 25
ARM GAS  C:\Users\Alex\AppData\Local\Temp\ccfYuLQH.s 			page 51


 1578 0254 5A1C     		adds	r2, r3, #1
 1579 0256 FB68     		ldr	r3, [r7, #12]
 1580 0258 1A63     		str	r2, [r3, #48]
1275:Drivers/STM32F1xx_HAL_Driver/Src/stm32f1xx_hal_spi.c ****         hspi->TxXferCount--;
 1581              		.loc 1 1275 13
 1582 025a FB68     		ldr	r3, [r7, #12]
 1583 025c DB8E     		ldrh	r3, [r3, #54]	@ movhi
 1584 025e 9BB2     		uxth	r3, r3
 1585              		.loc 1 1275 26
 1586 0260 013B     		subs	r3, r3, #1
 1587 0262 9AB2     		uxth	r2, r3
 1588 0264 FB68     		ldr	r3, [r7, #12]
 1589 0266 DA86     		strh	r2, [r3, #54]	@ movhi
1276:Drivers/STM32F1xx_HAL_Driver/Src/stm32f1xx_hal_spi.c ****         /* Next Data is a reception (Rx). Tx not allowed */
1277:Drivers/STM32F1xx_HAL_Driver/Src/stm32f1xx_hal_spi.c ****         txallowed = 0U;
 1590              		.loc 1 1277 19
 1591 0268 0023     		movs	r3, #0
 1592 026a FB62     		str	r3, [r7, #44]
 1593              	.L83:
1278:Drivers/STM32F1xx_HAL_Driver/Src/stm32f1xx_hal_spi.c **** 
1279:Drivers/STM32F1xx_HAL_Driver/Src/stm32f1xx_hal_spi.c **** #if (USE_SPI_CRC != 0U)
1280:Drivers/STM32F1xx_HAL_Driver/Src/stm32f1xx_hal_spi.c ****         /* Enable CRC Transmission */
1281:Drivers/STM32F1xx_HAL_Driver/Src/stm32f1xx_hal_spi.c ****         if ((hspi->TxXferCount == 0U) && (hspi->Init.CRCCalculation == SPI_CRCCALCULATION_ENABLE))
1282:Drivers/STM32F1xx_HAL_Driver/Src/stm32f1xx_hal_spi.c ****         {
1283:Drivers/STM32F1xx_HAL_Driver/Src/stm32f1xx_hal_spi.c ****           SET_BIT(hspi->Instance->CR1, SPI_CR1_CRCNEXT);
1284:Drivers/STM32F1xx_HAL_Driver/Src/stm32f1xx_hal_spi.c ****         }
1285:Drivers/STM32F1xx_HAL_Driver/Src/stm32f1xx_hal_spi.c **** #endif /* USE_SPI_CRC */
1286:Drivers/STM32F1xx_HAL_Driver/Src/stm32f1xx_hal_spi.c ****       }
1287:Drivers/STM32F1xx_HAL_Driver/Src/stm32f1xx_hal_spi.c **** 
1288:Drivers/STM32F1xx_HAL_Driver/Src/stm32f1xx_hal_spi.c ****       /* Wait until RXNE flag is reset */
1289:Drivers/STM32F1xx_HAL_Driver/Src/stm32f1xx_hal_spi.c ****       if ((__HAL_SPI_GET_FLAG(hspi, SPI_FLAG_RXNE)) && (hspi->RxXferCount > 0U))
 1594              		.loc 1 1289 12
 1595 026c FB68     		ldr	r3, [r7, #12]
 1596 026e 1B68     		ldr	r3, [r3]
 1597 0270 9B68     		ldr	r3, [r3, #8]
 1598 0272 03F00103 		and	r3, r3, #1
 1599              		.loc 1 1289 10
 1600 0276 012B     		cmp	r3, #1
 1601 0278 19D1     		bne	.L84
 1602              		.loc 1 1289 61 discriminator 1
 1603 027a FB68     		ldr	r3, [r7, #12]
 1604 027c DB8F     		ldrh	r3, [r3, #62]	@ movhi
 1605 027e 9BB2     		uxth	r3, r3
 1606              		.loc 1 1289 53 discriminator 1
 1607 0280 002B     		cmp	r3, #0
 1608 0282 14D0     		beq	.L84
1290:Drivers/STM32F1xx_HAL_Driver/Src/stm32f1xx_hal_spi.c ****       {
1291:Drivers/STM32F1xx_HAL_Driver/Src/stm32f1xx_hal_spi.c ****         (*(uint8_t *)hspi->pRxBuffPtr) = hspi->Instance->DR;
 1609              		.loc 1 1291 46
 1610 0284 FB68     		ldr	r3, [r7, #12]
 1611 0286 1B68     		ldr	r3, [r3]
 1612              		.loc 1 1291 56
 1613 0288 DA68     		ldr	r2, [r3, #12]
 1614              		.loc 1 1291 26
 1615 028a FB68     		ldr	r3, [r7, #12]
 1616 028c 9B6B     		ldr	r3, [r3, #56]
 1617              		.loc 1 1291 40
ARM GAS  C:\Users\Alex\AppData\Local\Temp\ccfYuLQH.s 			page 52


 1618 028e D2B2     		uxtb	r2, r2
 1619 0290 1A70     		strb	r2, [r3]
1292:Drivers/STM32F1xx_HAL_Driver/Src/stm32f1xx_hal_spi.c ****         hspi->pRxBuffPtr++;
 1620              		.loc 1 1292 13
 1621 0292 FB68     		ldr	r3, [r7, #12]
 1622 0294 9B6B     		ldr	r3, [r3, #56]
 1623              		.loc 1 1292 25
 1624 0296 5A1C     		adds	r2, r3, #1
 1625 0298 FB68     		ldr	r3, [r7, #12]
 1626 029a 9A63     		str	r2, [r3, #56]
1293:Drivers/STM32F1xx_HAL_Driver/Src/stm32f1xx_hal_spi.c ****         hspi->RxXferCount--;
 1627              		.loc 1 1293 13
 1628 029c FB68     		ldr	r3, [r7, #12]
 1629 029e DB8F     		ldrh	r3, [r3, #62]	@ movhi
 1630 02a0 9BB2     		uxth	r3, r3
 1631              		.loc 1 1293 26
 1632 02a2 013B     		subs	r3, r3, #1
 1633 02a4 9AB2     		uxth	r2, r3
 1634 02a6 FB68     		ldr	r3, [r7, #12]
 1635 02a8 DA87     		strh	r2, [r3, #62]	@ movhi
1294:Drivers/STM32F1xx_HAL_Driver/Src/stm32f1xx_hal_spi.c ****         /* Next Data is a Transmission (Tx). Tx is allowed */
1295:Drivers/STM32F1xx_HAL_Driver/Src/stm32f1xx_hal_spi.c ****         txallowed = 1U;
 1636              		.loc 1 1295 19
 1637 02aa 0123     		movs	r3, #1
 1638 02ac FB62     		str	r3, [r7, #44]
 1639              	.L84:
1296:Drivers/STM32F1xx_HAL_Driver/Src/stm32f1xx_hal_spi.c ****       }
1297:Drivers/STM32F1xx_HAL_Driver/Src/stm32f1xx_hal_spi.c ****       if ((((HAL_GetTick() - tickstart) >=  Timeout) && ((Timeout != HAL_MAX_DELAY))) || (Timeout =
 1640              		.loc 1 1297 14
 1641 02ae FFF7FEFF 		bl	HAL_GetTick
 1642 02b2 0246     		mov	r2, r0
 1643              		.loc 1 1297 28
 1644 02b4 7B6A     		ldr	r3, [r7, #36]
 1645 02b6 D31A     		subs	r3, r2, r3
 1646              		.loc 1 1297 10
 1647 02b8 BA6B     		ldr	r2, [r7, #56]
 1648 02ba 9A42     		cmp	r2, r3
 1649 02bc 03D8     		bhi	.L85
 1650              		.loc 1 1297 54 discriminator 1
 1651 02be BB6B     		ldr	r3, [r7, #56]
 1652 02c0 B3F1FF3F 		cmp	r3, #-1
 1653 02c4 02D1     		bne	.L86
 1654              	.L85:
 1655              		.loc 1 1297 87 discriminator 3
 1656 02c6 BB6B     		ldr	r3, [r7, #56]
 1657 02c8 002B     		cmp	r3, #0
 1658 02ca 03D1     		bne	.L82
 1659              	.L86:
1298:Drivers/STM32F1xx_HAL_Driver/Src/stm32f1xx_hal_spi.c ****       {
1299:Drivers/STM32F1xx_HAL_Driver/Src/stm32f1xx_hal_spi.c ****         errorcode = HAL_TIMEOUT;
 1660              		.loc 1 1299 19
 1661 02cc 0323     		movs	r3, #3
 1662 02ce 87F82B30 		strb	r3, [r7, #43]
1300:Drivers/STM32F1xx_HAL_Driver/Src/stm32f1xx_hal_spi.c ****         goto error;
 1663              		.loc 1 1300 9
 1664 02d2 29E0     		b	.L67
 1665              	.L82:
ARM GAS  C:\Users\Alex\AppData\Local\Temp\ccfYuLQH.s 			page 53


1268:Drivers/STM32F1xx_HAL_Driver/Src/stm32f1xx_hal_spi.c ****     {
 1666              		.loc 1 1268 17
 1667 02d4 FB68     		ldr	r3, [r7, #12]
 1668 02d6 DB8E     		ldrh	r3, [r3, #54]	@ movhi
 1669 02d8 9BB2     		uxth	r3, r3
1268:Drivers/STM32F1xx_HAL_Driver/Src/stm32f1xx_hal_spi.c ****     {
 1670              		.loc 1 1268 11
 1671 02da 002B     		cmp	r3, #0
 1672 02dc A2D1     		bne	.L87
1268:Drivers/STM32F1xx_HAL_Driver/Src/stm32f1xx_hal_spi.c ****     {
 1673              		.loc 1 1268 45 discriminator 1
 1674 02de FB68     		ldr	r3, [r7, #12]
 1675 02e0 DB8F     		ldrh	r3, [r3, #62]	@ movhi
 1676 02e2 9BB2     		uxth	r3, r3
1268:Drivers/STM32F1xx_HAL_Driver/Src/stm32f1xx_hal_spi.c ****     {
 1677              		.loc 1 1268 37 discriminator 1
 1678 02e4 002B     		cmp	r3, #0
 1679 02e6 9DD1     		bne	.L87
 1680              	.L79:
1301:Drivers/STM32F1xx_HAL_Driver/Src/stm32f1xx_hal_spi.c ****       }
1302:Drivers/STM32F1xx_HAL_Driver/Src/stm32f1xx_hal_spi.c ****     }
1303:Drivers/STM32F1xx_HAL_Driver/Src/stm32f1xx_hal_spi.c ****   }
1304:Drivers/STM32F1xx_HAL_Driver/Src/stm32f1xx_hal_spi.c **** 
1305:Drivers/STM32F1xx_HAL_Driver/Src/stm32f1xx_hal_spi.c **** #if (USE_SPI_CRC != 0U)
1306:Drivers/STM32F1xx_HAL_Driver/Src/stm32f1xx_hal_spi.c ****   /* Read CRC from DR to close CRC calculation process */
1307:Drivers/STM32F1xx_HAL_Driver/Src/stm32f1xx_hal_spi.c ****   if (hspi->Init.CRCCalculation == SPI_CRCCALCULATION_ENABLE)
1308:Drivers/STM32F1xx_HAL_Driver/Src/stm32f1xx_hal_spi.c ****   {
1309:Drivers/STM32F1xx_HAL_Driver/Src/stm32f1xx_hal_spi.c ****     /* Wait until TXE flag */
1310:Drivers/STM32F1xx_HAL_Driver/Src/stm32f1xx_hal_spi.c ****     if (SPI_WaitFlagStateUntilTimeout(hspi, SPI_FLAG_RXNE, SET, Timeout, tickstart) != HAL_OK)
1311:Drivers/STM32F1xx_HAL_Driver/Src/stm32f1xx_hal_spi.c ****     {
1312:Drivers/STM32F1xx_HAL_Driver/Src/stm32f1xx_hal_spi.c ****       /* Error on the CRC reception */
1313:Drivers/STM32F1xx_HAL_Driver/Src/stm32f1xx_hal_spi.c ****       SET_BIT(hspi->ErrorCode, HAL_SPI_ERROR_CRC);
1314:Drivers/STM32F1xx_HAL_Driver/Src/stm32f1xx_hal_spi.c ****       errorcode = HAL_TIMEOUT;
1315:Drivers/STM32F1xx_HAL_Driver/Src/stm32f1xx_hal_spi.c ****       goto error;
1316:Drivers/STM32F1xx_HAL_Driver/Src/stm32f1xx_hal_spi.c ****     }
1317:Drivers/STM32F1xx_HAL_Driver/Src/stm32f1xx_hal_spi.c ****     /* Read CRC */
1318:Drivers/STM32F1xx_HAL_Driver/Src/stm32f1xx_hal_spi.c ****     READ_REG(hspi->Instance->DR);
1319:Drivers/STM32F1xx_HAL_Driver/Src/stm32f1xx_hal_spi.c ****   }
1320:Drivers/STM32F1xx_HAL_Driver/Src/stm32f1xx_hal_spi.c **** 
1321:Drivers/STM32F1xx_HAL_Driver/Src/stm32f1xx_hal_spi.c ****   /* Check if CRC error occurred */
1322:Drivers/STM32F1xx_HAL_Driver/Src/stm32f1xx_hal_spi.c ****   if (__HAL_SPI_GET_FLAG(hspi, SPI_FLAG_CRCERR) != RESET)
1323:Drivers/STM32F1xx_HAL_Driver/Src/stm32f1xx_hal_spi.c ****   {
1324:Drivers/STM32F1xx_HAL_Driver/Src/stm32f1xx_hal_spi.c ****     /* Check if CRC error is valid or not (workaround to be applied or not) */
1325:Drivers/STM32F1xx_HAL_Driver/Src/stm32f1xx_hal_spi.c ****     if (SPI_ISCRCErrorValid(hspi) == SPI_VALID_CRC_ERROR)
1326:Drivers/STM32F1xx_HAL_Driver/Src/stm32f1xx_hal_spi.c ****     {
1327:Drivers/STM32F1xx_HAL_Driver/Src/stm32f1xx_hal_spi.c ****       SET_BIT(hspi->ErrorCode, HAL_SPI_ERROR_CRC);
1328:Drivers/STM32F1xx_HAL_Driver/Src/stm32f1xx_hal_spi.c **** 
1329:Drivers/STM32F1xx_HAL_Driver/Src/stm32f1xx_hal_spi.c ****       /* Reset CRC Calculation */
1330:Drivers/STM32F1xx_HAL_Driver/Src/stm32f1xx_hal_spi.c ****       SPI_RESET_CRC(hspi);
1331:Drivers/STM32F1xx_HAL_Driver/Src/stm32f1xx_hal_spi.c **** 
1332:Drivers/STM32F1xx_HAL_Driver/Src/stm32f1xx_hal_spi.c ****       errorcode = HAL_ERROR;
1333:Drivers/STM32F1xx_HAL_Driver/Src/stm32f1xx_hal_spi.c ****     }
1334:Drivers/STM32F1xx_HAL_Driver/Src/stm32f1xx_hal_spi.c ****     else
1335:Drivers/STM32F1xx_HAL_Driver/Src/stm32f1xx_hal_spi.c ****     {
1336:Drivers/STM32F1xx_HAL_Driver/Src/stm32f1xx_hal_spi.c ****       __HAL_SPI_CLEAR_CRCERRFLAG(hspi);
1337:Drivers/STM32F1xx_HAL_Driver/Src/stm32f1xx_hal_spi.c ****     }
1338:Drivers/STM32F1xx_HAL_Driver/Src/stm32f1xx_hal_spi.c ****   }
ARM GAS  C:\Users\Alex\AppData\Local\Temp\ccfYuLQH.s 			page 54


1339:Drivers/STM32F1xx_HAL_Driver/Src/stm32f1xx_hal_spi.c **** #endif /* USE_SPI_CRC */
1340:Drivers/STM32F1xx_HAL_Driver/Src/stm32f1xx_hal_spi.c **** 
1341:Drivers/STM32F1xx_HAL_Driver/Src/stm32f1xx_hal_spi.c ****   /* Check the end of the transaction */
1342:Drivers/STM32F1xx_HAL_Driver/Src/stm32f1xx_hal_spi.c ****   if (SPI_EndRxTxTransaction(hspi, Timeout, tickstart) != HAL_OK)
 1681              		.loc 1 1342 7
 1682 02e8 7A6A     		ldr	r2, [r7, #36]
 1683 02ea B96B     		ldr	r1, [r7, #56]
 1684 02ec F868     		ldr	r0, [r7, #12]
 1685 02ee FFF7FEFF 		bl	SPI_EndRxTxTransaction
 1686 02f2 0346     		mov	r3, r0
 1687              		.loc 1 1342 6
 1688 02f4 002B     		cmp	r3, #0
 1689 02f6 06D0     		beq	.L88
1343:Drivers/STM32F1xx_HAL_Driver/Src/stm32f1xx_hal_spi.c ****   {
1344:Drivers/STM32F1xx_HAL_Driver/Src/stm32f1xx_hal_spi.c ****     errorcode = HAL_ERROR;
 1690              		.loc 1 1344 15
 1691 02f8 0123     		movs	r3, #1
 1692 02fa 87F82B30 		strb	r3, [r7, #43]
1345:Drivers/STM32F1xx_HAL_Driver/Src/stm32f1xx_hal_spi.c ****     hspi->ErrorCode = HAL_SPI_ERROR_FLAG;
 1693              		.loc 1 1345 21
 1694 02fe FB68     		ldr	r3, [r7, #12]
 1695 0300 2022     		movs	r2, #32
 1696 0302 5A65     		str	r2, [r3, #84]
1346:Drivers/STM32F1xx_HAL_Driver/Src/stm32f1xx_hal_spi.c ****     goto error;
 1697              		.loc 1 1346 5
 1698 0304 10E0     		b	.L67
 1699              	.L88:
1347:Drivers/STM32F1xx_HAL_Driver/Src/stm32f1xx_hal_spi.c ****   }
1348:Drivers/STM32F1xx_HAL_Driver/Src/stm32f1xx_hal_spi.c **** 
1349:Drivers/STM32F1xx_HAL_Driver/Src/stm32f1xx_hal_spi.c ****   /* Clear overrun flag in 2 Lines communication mode because received is not read */
1350:Drivers/STM32F1xx_HAL_Driver/Src/stm32f1xx_hal_spi.c ****   if (hspi->Init.Direction == SPI_DIRECTION_2LINES)
 1700              		.loc 1 1350 17
 1701 0306 FB68     		ldr	r3, [r7, #12]
 1702 0308 9B68     		ldr	r3, [r3, #8]
 1703              		.loc 1 1350 6
 1704 030a 002B     		cmp	r3, #0
 1705 030c 0BD1     		bne	.L89
 1706              	.LBB3:
1351:Drivers/STM32F1xx_HAL_Driver/Src/stm32f1xx_hal_spi.c ****   {
1352:Drivers/STM32F1xx_HAL_Driver/Src/stm32f1xx_hal_spi.c ****     __HAL_SPI_CLEAR_OVRFLAG(hspi);
 1707              		.loc 1 1352 5
 1708 030e 0023     		movs	r3, #0
 1709 0310 7B61     		str	r3, [r7, #20]
 1710 0312 FB68     		ldr	r3, [r7, #12]
 1711 0314 1B68     		ldr	r3, [r3]
 1712 0316 DB68     		ldr	r3, [r3, #12]
 1713 0318 7B61     		str	r3, [r7, #20]
 1714 031a FB68     		ldr	r3, [r7, #12]
 1715 031c 1B68     		ldr	r3, [r3]
 1716 031e 9B68     		ldr	r3, [r3, #8]
 1717 0320 7B61     		str	r3, [r7, #20]
 1718 0322 7B69     		ldr	r3, [r7, #20]
 1719 0324 00E0     		b	.L67
 1720              	.L89:
 1721              	.LBE3:
1353:Drivers/STM32F1xx_HAL_Driver/Src/stm32f1xx_hal_spi.c ****   }
1354:Drivers/STM32F1xx_HAL_Driver/Src/stm32f1xx_hal_spi.c **** 
ARM GAS  C:\Users\Alex\AppData\Local\Temp\ccfYuLQH.s 			page 55


1355:Drivers/STM32F1xx_HAL_Driver/Src/stm32f1xx_hal_spi.c **** error :
 1722              		.loc 1 1355 1
 1723 0326 00BF     		nop
 1724              	.L67:
1356:Drivers/STM32F1xx_HAL_Driver/Src/stm32f1xx_hal_spi.c ****   hspi->State = HAL_SPI_STATE_READY;
 1725              		.loc 1 1356 15
 1726 0328 FB68     		ldr	r3, [r7, #12]
 1727 032a 0122     		movs	r2, #1
 1728 032c 83F85120 		strb	r2, [r3, #81]
1357:Drivers/STM32F1xx_HAL_Driver/Src/stm32f1xx_hal_spi.c ****   __HAL_UNLOCK(hspi);
 1729              		.loc 1 1357 3
 1730 0330 FB68     		ldr	r3, [r7, #12]
 1731 0332 0022     		movs	r2, #0
 1732 0334 83F85020 		strb	r2, [r3, #80]
1358:Drivers/STM32F1xx_HAL_Driver/Src/stm32f1xx_hal_spi.c ****   return errorcode;
 1733              		.loc 1 1358 10
 1734 0338 97F82B30 		ldrb	r3, [r7, #43]	@ zero_extendqisi2
 1735              	.L64:
1359:Drivers/STM32F1xx_HAL_Driver/Src/stm32f1xx_hal_spi.c **** }
 1736              		.loc 1 1359 1
 1737 033c 1846     		mov	r0, r3
 1738 033e 3037     		adds	r7, r7, #48
 1739              	.LCFI35:
 1740              		.cfi_def_cfa_offset 8
 1741 0340 BD46     		mov	sp, r7
 1742              	.LCFI36:
 1743              		.cfi_def_cfa_register 13
 1744              		@ sp needed
 1745 0342 80BD     		pop	{r7, pc}
 1746              		.cfi_endproc
 1747              	.LFE71:
 1749              		.section	.text.HAL_SPI_Transmit_IT,"ax",%progbits
 1750              		.align	1
 1751              		.global	HAL_SPI_Transmit_IT
 1752              		.syntax unified
 1753              		.thumb
 1754              		.thumb_func
 1755              		.fpu softvfp
 1757              	HAL_SPI_Transmit_IT:
 1758              	.LFB72:
1360:Drivers/STM32F1xx_HAL_Driver/Src/stm32f1xx_hal_spi.c **** 
1361:Drivers/STM32F1xx_HAL_Driver/Src/stm32f1xx_hal_spi.c **** /**
1362:Drivers/STM32F1xx_HAL_Driver/Src/stm32f1xx_hal_spi.c ****   * @brief  Transmit an amount of data in non-blocking mode with Interrupt.
1363:Drivers/STM32F1xx_HAL_Driver/Src/stm32f1xx_hal_spi.c ****   * @param  hspi pointer to a SPI_HandleTypeDef structure that contains
1364:Drivers/STM32F1xx_HAL_Driver/Src/stm32f1xx_hal_spi.c ****   *               the configuration information for SPI module.
1365:Drivers/STM32F1xx_HAL_Driver/Src/stm32f1xx_hal_spi.c ****   * @param  pData pointer to data buffer
1366:Drivers/STM32F1xx_HAL_Driver/Src/stm32f1xx_hal_spi.c ****   * @param  Size amount of data to be sent
1367:Drivers/STM32F1xx_HAL_Driver/Src/stm32f1xx_hal_spi.c ****   * @retval HAL status
1368:Drivers/STM32F1xx_HAL_Driver/Src/stm32f1xx_hal_spi.c ****   */
1369:Drivers/STM32F1xx_HAL_Driver/Src/stm32f1xx_hal_spi.c **** HAL_StatusTypeDef HAL_SPI_Transmit_IT(SPI_HandleTypeDef *hspi, uint8_t *pData, uint16_t Size)
1370:Drivers/STM32F1xx_HAL_Driver/Src/stm32f1xx_hal_spi.c **** {
 1759              		.loc 1 1370 1
 1760              		.cfi_startproc
 1761              		@ args = 0, pretend = 0, frame = 24
 1762              		@ frame_needed = 1, uses_anonymous_args = 0
 1763              		@ link register save eliminated.
 1764 0000 80B4     		push	{r7}
ARM GAS  C:\Users\Alex\AppData\Local\Temp\ccfYuLQH.s 			page 56


 1765              	.LCFI37:
 1766              		.cfi_def_cfa_offset 4
 1767              		.cfi_offset 7, -4
 1768 0002 87B0     		sub	sp, sp, #28
 1769              	.LCFI38:
 1770              		.cfi_def_cfa_offset 32
 1771 0004 00AF     		add	r7, sp, #0
 1772              	.LCFI39:
 1773              		.cfi_def_cfa_register 7
 1774 0006 F860     		str	r0, [r7, #12]
 1775 0008 B960     		str	r1, [r7, #8]
 1776 000a 1346     		mov	r3, r2
 1777 000c FB80     		strh	r3, [r7, #6]	@ movhi
1371:Drivers/STM32F1xx_HAL_Driver/Src/stm32f1xx_hal_spi.c ****   HAL_StatusTypeDef errorcode = HAL_OK;
 1778              		.loc 1 1371 21
 1779 000e 0023     		movs	r3, #0
 1780 0010 FB75     		strb	r3, [r7, #23]
1372:Drivers/STM32F1xx_HAL_Driver/Src/stm32f1xx_hal_spi.c **** 
1373:Drivers/STM32F1xx_HAL_Driver/Src/stm32f1xx_hal_spi.c ****   /* Check Direction parameter */
1374:Drivers/STM32F1xx_HAL_Driver/Src/stm32f1xx_hal_spi.c ****   assert_param(IS_SPI_DIRECTION_2LINES_OR_1LINE(hspi->Init.Direction));
1375:Drivers/STM32F1xx_HAL_Driver/Src/stm32f1xx_hal_spi.c **** 
1376:Drivers/STM32F1xx_HAL_Driver/Src/stm32f1xx_hal_spi.c ****   /* Process Locked */
1377:Drivers/STM32F1xx_HAL_Driver/Src/stm32f1xx_hal_spi.c ****   __HAL_LOCK(hspi);
 1781              		.loc 1 1377 3
 1782 0012 FB68     		ldr	r3, [r7, #12]
 1783 0014 93F85030 		ldrb	r3, [r3, #80]	@ zero_extendqisi2
 1784 0018 012B     		cmp	r3, #1
 1785 001a 01D1     		bne	.L91
 1786              		.loc 1 1377 3 is_stmt 0 discriminator 1
 1787 001c 0223     		movs	r3, #2
 1788 001e 67E0     		b	.L92
 1789              	.L91:
 1790              		.loc 1 1377 3 discriminator 2
 1791 0020 FB68     		ldr	r3, [r7, #12]
 1792 0022 0122     		movs	r2, #1
 1793 0024 83F85020 		strb	r2, [r3, #80]
1378:Drivers/STM32F1xx_HAL_Driver/Src/stm32f1xx_hal_spi.c **** 
1379:Drivers/STM32F1xx_HAL_Driver/Src/stm32f1xx_hal_spi.c ****   if ((pData == NULL) || (Size == 0U))
 1794              		.loc 1 1379 6 is_stmt 1 discriminator 2
 1795 0028 BB68     		ldr	r3, [r7, #8]
 1796 002a 002B     		cmp	r3, #0
 1797 002c 02D0     		beq	.L93
 1798              		.loc 1 1379 23 discriminator 1
 1799 002e FB88     		ldrh	r3, [r7, #6]
 1800 0030 002B     		cmp	r3, #0
 1801 0032 02D1     		bne	.L94
 1802              	.L93:
1380:Drivers/STM32F1xx_HAL_Driver/Src/stm32f1xx_hal_spi.c ****   {
1381:Drivers/STM32F1xx_HAL_Driver/Src/stm32f1xx_hal_spi.c ****     errorcode = HAL_ERROR;
 1803              		.loc 1 1381 15
 1804 0034 0123     		movs	r3, #1
 1805 0036 FB75     		strb	r3, [r7, #23]
1382:Drivers/STM32F1xx_HAL_Driver/Src/stm32f1xx_hal_spi.c ****     goto error;
 1806              		.loc 1 1382 5
 1807 0038 55E0     		b	.L95
 1808              	.L94:
1383:Drivers/STM32F1xx_HAL_Driver/Src/stm32f1xx_hal_spi.c ****   }
ARM GAS  C:\Users\Alex\AppData\Local\Temp\ccfYuLQH.s 			page 57


1384:Drivers/STM32F1xx_HAL_Driver/Src/stm32f1xx_hal_spi.c **** 
1385:Drivers/STM32F1xx_HAL_Driver/Src/stm32f1xx_hal_spi.c ****   if (hspi->State != HAL_SPI_STATE_READY)
 1809              		.loc 1 1385 11
 1810 003a FB68     		ldr	r3, [r7, #12]
 1811 003c 93F85130 		ldrb	r3, [r3, #81]
 1812 0040 DBB2     		uxtb	r3, r3
 1813              		.loc 1 1385 6
 1814 0042 012B     		cmp	r3, #1
 1815 0044 02D0     		beq	.L96
1386:Drivers/STM32F1xx_HAL_Driver/Src/stm32f1xx_hal_spi.c ****   {
1387:Drivers/STM32F1xx_HAL_Driver/Src/stm32f1xx_hal_spi.c ****     errorcode = HAL_BUSY;
 1816              		.loc 1 1387 15
 1817 0046 0223     		movs	r3, #2
 1818 0048 FB75     		strb	r3, [r7, #23]
1388:Drivers/STM32F1xx_HAL_Driver/Src/stm32f1xx_hal_spi.c ****     goto error;
 1819              		.loc 1 1388 5
 1820 004a 4CE0     		b	.L95
 1821              	.L96:
1389:Drivers/STM32F1xx_HAL_Driver/Src/stm32f1xx_hal_spi.c ****   }
1390:Drivers/STM32F1xx_HAL_Driver/Src/stm32f1xx_hal_spi.c **** 
1391:Drivers/STM32F1xx_HAL_Driver/Src/stm32f1xx_hal_spi.c ****   /* Set the transaction information */
1392:Drivers/STM32F1xx_HAL_Driver/Src/stm32f1xx_hal_spi.c ****   hspi->State       = HAL_SPI_STATE_BUSY_TX;
 1822              		.loc 1 1392 21
 1823 004c FB68     		ldr	r3, [r7, #12]
 1824 004e 0322     		movs	r2, #3
 1825 0050 83F85120 		strb	r2, [r3, #81]
1393:Drivers/STM32F1xx_HAL_Driver/Src/stm32f1xx_hal_spi.c ****   hspi->ErrorCode   = HAL_SPI_ERROR_NONE;
 1826              		.loc 1 1393 21
 1827 0054 FB68     		ldr	r3, [r7, #12]
 1828 0056 0022     		movs	r2, #0
 1829 0058 5A65     		str	r2, [r3, #84]
1394:Drivers/STM32F1xx_HAL_Driver/Src/stm32f1xx_hal_spi.c ****   hspi->pTxBuffPtr  = (uint8_t *)pData;
 1830              		.loc 1 1394 21
 1831 005a FB68     		ldr	r3, [r7, #12]
 1832 005c BA68     		ldr	r2, [r7, #8]
 1833 005e 1A63     		str	r2, [r3, #48]
1395:Drivers/STM32F1xx_HAL_Driver/Src/stm32f1xx_hal_spi.c ****   hspi->TxXferSize  = Size;
 1834              		.loc 1 1395 21
 1835 0060 FB68     		ldr	r3, [r7, #12]
 1836 0062 FA88     		ldrh	r2, [r7, #6]	@ movhi
 1837 0064 9A86     		strh	r2, [r3, #52]	@ movhi
1396:Drivers/STM32F1xx_HAL_Driver/Src/stm32f1xx_hal_spi.c ****   hspi->TxXferCount = Size;
 1838              		.loc 1 1396 21
 1839 0066 FB68     		ldr	r3, [r7, #12]
 1840 0068 FA88     		ldrh	r2, [r7, #6]	@ movhi
 1841 006a DA86     		strh	r2, [r3, #54]	@ movhi
1397:Drivers/STM32F1xx_HAL_Driver/Src/stm32f1xx_hal_spi.c **** 
1398:Drivers/STM32F1xx_HAL_Driver/Src/stm32f1xx_hal_spi.c ****   /* Init field not used in handle to zero */
1399:Drivers/STM32F1xx_HAL_Driver/Src/stm32f1xx_hal_spi.c ****   hspi->pRxBuffPtr  = (uint8_t *)NULL;
 1842              		.loc 1 1399 21
 1843 006c FB68     		ldr	r3, [r7, #12]
 1844 006e 0022     		movs	r2, #0
 1845 0070 9A63     		str	r2, [r3, #56]
1400:Drivers/STM32F1xx_HAL_Driver/Src/stm32f1xx_hal_spi.c ****   hspi->RxXferSize  = 0U;
 1846              		.loc 1 1400 21
 1847 0072 FB68     		ldr	r3, [r7, #12]
 1848 0074 0022     		movs	r2, #0
ARM GAS  C:\Users\Alex\AppData\Local\Temp\ccfYuLQH.s 			page 58


 1849 0076 9A87     		strh	r2, [r3, #60]	@ movhi
1401:Drivers/STM32F1xx_HAL_Driver/Src/stm32f1xx_hal_spi.c ****   hspi->RxXferCount = 0U;
 1850              		.loc 1 1401 21
 1851 0078 FB68     		ldr	r3, [r7, #12]
 1852 007a 0022     		movs	r2, #0
 1853 007c DA87     		strh	r2, [r3, #62]	@ movhi
1402:Drivers/STM32F1xx_HAL_Driver/Src/stm32f1xx_hal_spi.c ****   hspi->RxISR       = NULL;
 1854              		.loc 1 1402 21
 1855 007e FB68     		ldr	r3, [r7, #12]
 1856 0080 0022     		movs	r2, #0
 1857 0082 1A64     		str	r2, [r3, #64]
1403:Drivers/STM32F1xx_HAL_Driver/Src/stm32f1xx_hal_spi.c **** 
1404:Drivers/STM32F1xx_HAL_Driver/Src/stm32f1xx_hal_spi.c ****   /* Set the function for IT treatment */
1405:Drivers/STM32F1xx_HAL_Driver/Src/stm32f1xx_hal_spi.c ****   if (hspi->Init.DataSize > SPI_DATASIZE_8BIT)
 1858              		.loc 1 1405 17
 1859 0084 FB68     		ldr	r3, [r7, #12]
 1860 0086 DB68     		ldr	r3, [r3, #12]
 1861              		.loc 1 1405 6
 1862 0088 002B     		cmp	r3, #0
 1863 008a 03D0     		beq	.L97
1406:Drivers/STM32F1xx_HAL_Driver/Src/stm32f1xx_hal_spi.c ****   {
1407:Drivers/STM32F1xx_HAL_Driver/Src/stm32f1xx_hal_spi.c ****     hspi->TxISR = SPI_TxISR_16BIT;
 1864              		.loc 1 1407 17
 1865 008c FB68     		ldr	r3, [r7, #12]
 1866 008e 1B4A     		ldr	r2, .L101
 1867 0090 5A64     		str	r2, [r3, #68]
 1868 0092 02E0     		b	.L98
 1869              	.L97:
1408:Drivers/STM32F1xx_HAL_Driver/Src/stm32f1xx_hal_spi.c ****   }
1409:Drivers/STM32F1xx_HAL_Driver/Src/stm32f1xx_hal_spi.c ****   else
1410:Drivers/STM32F1xx_HAL_Driver/Src/stm32f1xx_hal_spi.c ****   {
1411:Drivers/STM32F1xx_HAL_Driver/Src/stm32f1xx_hal_spi.c ****     hspi->TxISR = SPI_TxISR_8BIT;
 1870              		.loc 1 1411 17
 1871 0094 FB68     		ldr	r3, [r7, #12]
 1872 0096 1A4A     		ldr	r2, .L101+4
 1873 0098 5A64     		str	r2, [r3, #68]
 1874              	.L98:
1412:Drivers/STM32F1xx_HAL_Driver/Src/stm32f1xx_hal_spi.c ****   }
1413:Drivers/STM32F1xx_HAL_Driver/Src/stm32f1xx_hal_spi.c **** 
1414:Drivers/STM32F1xx_HAL_Driver/Src/stm32f1xx_hal_spi.c ****   /* Configure communication direction : 1Line */
1415:Drivers/STM32F1xx_HAL_Driver/Src/stm32f1xx_hal_spi.c ****   if (hspi->Init.Direction == SPI_DIRECTION_1LINE)
 1875              		.loc 1 1415 17
 1876 009a FB68     		ldr	r3, [r7, #12]
 1877 009c 9B68     		ldr	r3, [r3, #8]
 1878              		.loc 1 1415 6
 1879 009e B3F5004F 		cmp	r3, #32768
 1880 00a2 07D1     		bne	.L99
1416:Drivers/STM32F1xx_HAL_Driver/Src/stm32f1xx_hal_spi.c ****   {
1417:Drivers/STM32F1xx_HAL_Driver/Src/stm32f1xx_hal_spi.c ****     SPI_1LINE_TX(hspi);
 1881              		.loc 1 1417 5
 1882 00a4 FB68     		ldr	r3, [r7, #12]
 1883 00a6 1B68     		ldr	r3, [r3]
 1884 00a8 1A68     		ldr	r2, [r3]
 1885 00aa FB68     		ldr	r3, [r7, #12]
 1886 00ac 1B68     		ldr	r3, [r3]
 1887 00ae 42F48042 		orr	r2, r2, #16384
 1888 00b2 1A60     		str	r2, [r3]
ARM GAS  C:\Users\Alex\AppData\Local\Temp\ccfYuLQH.s 			page 59


 1889              	.L99:
1418:Drivers/STM32F1xx_HAL_Driver/Src/stm32f1xx_hal_spi.c ****   }
1419:Drivers/STM32F1xx_HAL_Driver/Src/stm32f1xx_hal_spi.c **** 
1420:Drivers/STM32F1xx_HAL_Driver/Src/stm32f1xx_hal_spi.c **** #if (USE_SPI_CRC != 0U)
1421:Drivers/STM32F1xx_HAL_Driver/Src/stm32f1xx_hal_spi.c ****   /* Reset CRC Calculation */
1422:Drivers/STM32F1xx_HAL_Driver/Src/stm32f1xx_hal_spi.c ****   if (hspi->Init.CRCCalculation == SPI_CRCCALCULATION_ENABLE)
1423:Drivers/STM32F1xx_HAL_Driver/Src/stm32f1xx_hal_spi.c ****   {
1424:Drivers/STM32F1xx_HAL_Driver/Src/stm32f1xx_hal_spi.c ****     SPI_RESET_CRC(hspi);
1425:Drivers/STM32F1xx_HAL_Driver/Src/stm32f1xx_hal_spi.c ****   }
1426:Drivers/STM32F1xx_HAL_Driver/Src/stm32f1xx_hal_spi.c **** #endif /* USE_SPI_CRC */
1427:Drivers/STM32F1xx_HAL_Driver/Src/stm32f1xx_hal_spi.c **** 
1428:Drivers/STM32F1xx_HAL_Driver/Src/stm32f1xx_hal_spi.c ****   /* Enable TXE and ERR interrupt */
1429:Drivers/STM32F1xx_HAL_Driver/Src/stm32f1xx_hal_spi.c ****   __HAL_SPI_ENABLE_IT(hspi, (SPI_IT_TXE | SPI_IT_ERR));
 1890              		.loc 1 1429 3
 1891 00b4 FB68     		ldr	r3, [r7, #12]
 1892 00b6 1B68     		ldr	r3, [r3]
 1893 00b8 5A68     		ldr	r2, [r3, #4]
 1894 00ba FB68     		ldr	r3, [r7, #12]
 1895 00bc 1B68     		ldr	r3, [r3]
 1896 00be 42F0A002 		orr	r2, r2, #160
 1897 00c2 5A60     		str	r2, [r3, #4]
1430:Drivers/STM32F1xx_HAL_Driver/Src/stm32f1xx_hal_spi.c **** 
1431:Drivers/STM32F1xx_HAL_Driver/Src/stm32f1xx_hal_spi.c **** 
1432:Drivers/STM32F1xx_HAL_Driver/Src/stm32f1xx_hal_spi.c ****   /* Check if the SPI is already enabled */
1433:Drivers/STM32F1xx_HAL_Driver/Src/stm32f1xx_hal_spi.c ****   if ((hspi->Instance->CR1 & SPI_CR1_SPE) != SPI_CR1_SPE)
 1898              		.loc 1 1433 12
 1899 00c4 FB68     		ldr	r3, [r7, #12]
 1900 00c6 1B68     		ldr	r3, [r3]
 1901              		.loc 1 1433 22
 1902 00c8 1B68     		ldr	r3, [r3]
 1903              		.loc 1 1433 28
 1904 00ca 03F04003 		and	r3, r3, #64
 1905              		.loc 1 1433 6
 1906 00ce 402B     		cmp	r3, #64
 1907 00d0 08D0     		beq	.L100
1434:Drivers/STM32F1xx_HAL_Driver/Src/stm32f1xx_hal_spi.c ****   {
1435:Drivers/STM32F1xx_HAL_Driver/Src/stm32f1xx_hal_spi.c ****     /* Enable SPI peripheral */
1436:Drivers/STM32F1xx_HAL_Driver/Src/stm32f1xx_hal_spi.c ****     __HAL_SPI_ENABLE(hspi);
 1908              		.loc 1 1436 5
 1909 00d2 FB68     		ldr	r3, [r7, #12]
 1910 00d4 1B68     		ldr	r3, [r3]
 1911 00d6 1A68     		ldr	r2, [r3]
 1912 00d8 FB68     		ldr	r3, [r7, #12]
 1913 00da 1B68     		ldr	r3, [r3]
 1914 00dc 42F04002 		orr	r2, r2, #64
 1915 00e0 1A60     		str	r2, [r3]
 1916 00e2 00E0     		b	.L95
 1917              	.L100:
1437:Drivers/STM32F1xx_HAL_Driver/Src/stm32f1xx_hal_spi.c ****   }
1438:Drivers/STM32F1xx_HAL_Driver/Src/stm32f1xx_hal_spi.c **** 
1439:Drivers/STM32F1xx_HAL_Driver/Src/stm32f1xx_hal_spi.c **** error :
 1918              		.loc 1 1439 1
 1919 00e4 00BF     		nop
 1920              	.L95:
1440:Drivers/STM32F1xx_HAL_Driver/Src/stm32f1xx_hal_spi.c ****   __HAL_UNLOCK(hspi);
 1921              		.loc 1 1440 3
 1922 00e6 FB68     		ldr	r3, [r7, #12]
ARM GAS  C:\Users\Alex\AppData\Local\Temp\ccfYuLQH.s 			page 60


 1923 00e8 0022     		movs	r2, #0
 1924 00ea 83F85020 		strb	r2, [r3, #80]
1441:Drivers/STM32F1xx_HAL_Driver/Src/stm32f1xx_hal_spi.c ****   return errorcode;
 1925              		.loc 1 1441 10
 1926 00ee FB7D     		ldrb	r3, [r7, #23]	@ zero_extendqisi2
 1927              	.L92:
1442:Drivers/STM32F1xx_HAL_Driver/Src/stm32f1xx_hal_spi.c **** }
 1928              		.loc 1 1442 1
 1929 00f0 1846     		mov	r0, r3
 1930 00f2 1C37     		adds	r7, r7, #28
 1931              	.LCFI40:
 1932              		.cfi_def_cfa_offset 4
 1933 00f4 BD46     		mov	sp, r7
 1934              	.LCFI41:
 1935              		.cfi_def_cfa_register 13
 1936              		@ sp needed
 1937 00f6 80BC     		pop	{r7}
 1938              	.LCFI42:
 1939              		.cfi_restore 7
 1940              		.cfi_def_cfa_offset 0
 1941 00f8 7047     		bx	lr
 1942              	.L102:
 1943 00fa 00BF     		.align	2
 1944              	.L101:
 1945 00fc 00000000 		.word	SPI_TxISR_16BIT
 1946 0100 00000000 		.word	SPI_TxISR_8BIT
 1947              		.cfi_endproc
 1948              	.LFE72:
 1950              		.section	.text.HAL_SPI_Receive_IT,"ax",%progbits
 1951              		.align	1
 1952              		.global	HAL_SPI_Receive_IT
 1953              		.syntax unified
 1954              		.thumb
 1955              		.thumb_func
 1956              		.fpu softvfp
 1958              	HAL_SPI_Receive_IT:
 1959              	.LFB73:
1443:Drivers/STM32F1xx_HAL_Driver/Src/stm32f1xx_hal_spi.c **** 
1444:Drivers/STM32F1xx_HAL_Driver/Src/stm32f1xx_hal_spi.c **** /**
1445:Drivers/STM32F1xx_HAL_Driver/Src/stm32f1xx_hal_spi.c ****   * @brief  Receive an amount of data in non-blocking mode with Interrupt.
1446:Drivers/STM32F1xx_HAL_Driver/Src/stm32f1xx_hal_spi.c ****   * @param  hspi pointer to a SPI_HandleTypeDef structure that contains
1447:Drivers/STM32F1xx_HAL_Driver/Src/stm32f1xx_hal_spi.c ****   *               the configuration information for SPI module.
1448:Drivers/STM32F1xx_HAL_Driver/Src/stm32f1xx_hal_spi.c ****   * @param  pData pointer to data buffer
1449:Drivers/STM32F1xx_HAL_Driver/Src/stm32f1xx_hal_spi.c ****   * @param  Size amount of data to be sent
1450:Drivers/STM32F1xx_HAL_Driver/Src/stm32f1xx_hal_spi.c ****   * @retval HAL status
1451:Drivers/STM32F1xx_HAL_Driver/Src/stm32f1xx_hal_spi.c ****   */
1452:Drivers/STM32F1xx_HAL_Driver/Src/stm32f1xx_hal_spi.c **** HAL_StatusTypeDef HAL_SPI_Receive_IT(SPI_HandleTypeDef *hspi, uint8_t *pData, uint16_t Size)
1453:Drivers/STM32F1xx_HAL_Driver/Src/stm32f1xx_hal_spi.c **** {
 1960              		.loc 1 1453 1
 1961              		.cfi_startproc
 1962              		@ args = 0, pretend = 0, frame = 24
 1963              		@ frame_needed = 1, uses_anonymous_args = 0
 1964 0000 80B5     		push	{r7, lr}
 1965              	.LCFI43:
 1966              		.cfi_def_cfa_offset 8
 1967              		.cfi_offset 7, -8
 1968              		.cfi_offset 14, -4
ARM GAS  C:\Users\Alex\AppData\Local\Temp\ccfYuLQH.s 			page 61


 1969 0002 86B0     		sub	sp, sp, #24
 1970              	.LCFI44:
 1971              		.cfi_def_cfa_offset 32
 1972 0004 00AF     		add	r7, sp, #0
 1973              	.LCFI45:
 1974              		.cfi_def_cfa_register 7
 1975 0006 F860     		str	r0, [r7, #12]
 1976 0008 B960     		str	r1, [r7, #8]
 1977 000a 1346     		mov	r3, r2
 1978 000c FB80     		strh	r3, [r7, #6]	@ movhi
1454:Drivers/STM32F1xx_HAL_Driver/Src/stm32f1xx_hal_spi.c ****   HAL_StatusTypeDef errorcode = HAL_OK;
 1979              		.loc 1 1454 21
 1980 000e 0023     		movs	r3, #0
 1981 0010 FB75     		strb	r3, [r7, #23]
1455:Drivers/STM32F1xx_HAL_Driver/Src/stm32f1xx_hal_spi.c **** 
1456:Drivers/STM32F1xx_HAL_Driver/Src/stm32f1xx_hal_spi.c ****   if ((hspi->Init.Direction == SPI_DIRECTION_2LINES) && (hspi->Init.Mode == SPI_MODE_MASTER))
 1982              		.loc 1 1456 18
 1983 0012 FB68     		ldr	r3, [r7, #12]
 1984 0014 9B68     		ldr	r3, [r3, #8]
 1985              		.loc 1 1456 6
 1986 0016 002B     		cmp	r3, #0
 1987 0018 10D1     		bne	.L104
 1988              		.loc 1 1456 68 discriminator 1
 1989 001a FB68     		ldr	r3, [r7, #12]
 1990 001c 5B68     		ldr	r3, [r3, #4]
 1991              		.loc 1 1456 54 discriminator 1
 1992 001e B3F5827F 		cmp	r3, #260
 1993 0022 0BD1     		bne	.L104
1457:Drivers/STM32F1xx_HAL_Driver/Src/stm32f1xx_hal_spi.c ****   {
1458:Drivers/STM32F1xx_HAL_Driver/Src/stm32f1xx_hal_spi.c ****     hspi->State = HAL_SPI_STATE_BUSY_RX;
 1994              		.loc 1 1458 17
 1995 0024 FB68     		ldr	r3, [r7, #12]
 1996 0026 0422     		movs	r2, #4
 1997 0028 83F85120 		strb	r2, [r3, #81]
1459:Drivers/STM32F1xx_HAL_Driver/Src/stm32f1xx_hal_spi.c ****     /* Call transmit-receive function to send Dummy data on Tx line and generate clock on CLK line 
1460:Drivers/STM32F1xx_HAL_Driver/Src/stm32f1xx_hal_spi.c ****     return HAL_SPI_TransmitReceive_IT(hspi, pData, pData, Size);
 1998              		.loc 1 1460 12
 1999 002c FB88     		ldrh	r3, [r7, #6]
 2000 002e BA68     		ldr	r2, [r7, #8]
 2001 0030 B968     		ldr	r1, [r7, #8]
 2002 0032 F868     		ldr	r0, [r7, #12]
 2003 0034 FFF7FEFF 		bl	HAL_SPI_TransmitReceive_IT
 2004 0038 0346     		mov	r3, r0
 2005 003a 6EE0     		b	.L105
 2006              	.L104:
1461:Drivers/STM32F1xx_HAL_Driver/Src/stm32f1xx_hal_spi.c ****   }
1462:Drivers/STM32F1xx_HAL_Driver/Src/stm32f1xx_hal_spi.c **** 
1463:Drivers/STM32F1xx_HAL_Driver/Src/stm32f1xx_hal_spi.c ****   /* Process Locked */
1464:Drivers/STM32F1xx_HAL_Driver/Src/stm32f1xx_hal_spi.c ****   __HAL_LOCK(hspi);
 2007              		.loc 1 1464 3
 2008 003c FB68     		ldr	r3, [r7, #12]
 2009 003e 93F85030 		ldrb	r3, [r3, #80]	@ zero_extendqisi2
 2010 0042 012B     		cmp	r3, #1
 2011 0044 01D1     		bne	.L106
 2012              		.loc 1 1464 3 is_stmt 0 discriminator 1
 2013 0046 0223     		movs	r3, #2
 2014 0048 67E0     		b	.L105
ARM GAS  C:\Users\Alex\AppData\Local\Temp\ccfYuLQH.s 			page 62


 2015              	.L106:
 2016              		.loc 1 1464 3 discriminator 2
 2017 004a FB68     		ldr	r3, [r7, #12]
 2018 004c 0122     		movs	r2, #1
 2019 004e 83F85020 		strb	r2, [r3, #80]
1465:Drivers/STM32F1xx_HAL_Driver/Src/stm32f1xx_hal_spi.c **** 
1466:Drivers/STM32F1xx_HAL_Driver/Src/stm32f1xx_hal_spi.c ****   if (hspi->State != HAL_SPI_STATE_READY)
 2020              		.loc 1 1466 11 is_stmt 1 discriminator 2
 2021 0052 FB68     		ldr	r3, [r7, #12]
 2022 0054 93F85130 		ldrb	r3, [r3, #81]
 2023 0058 DBB2     		uxtb	r3, r3
 2024              		.loc 1 1466 6 discriminator 2
 2025 005a 012B     		cmp	r3, #1
 2026 005c 02D0     		beq	.L107
1467:Drivers/STM32F1xx_HAL_Driver/Src/stm32f1xx_hal_spi.c ****   {
1468:Drivers/STM32F1xx_HAL_Driver/Src/stm32f1xx_hal_spi.c ****     errorcode = HAL_BUSY;
 2027              		.loc 1 1468 15
 2028 005e 0223     		movs	r3, #2
 2029 0060 FB75     		strb	r3, [r7, #23]
1469:Drivers/STM32F1xx_HAL_Driver/Src/stm32f1xx_hal_spi.c ****     goto error;
 2030              		.loc 1 1469 5
 2031 0062 55E0     		b	.L108
 2032              	.L107:
1470:Drivers/STM32F1xx_HAL_Driver/Src/stm32f1xx_hal_spi.c ****   }
1471:Drivers/STM32F1xx_HAL_Driver/Src/stm32f1xx_hal_spi.c **** 
1472:Drivers/STM32F1xx_HAL_Driver/Src/stm32f1xx_hal_spi.c ****   if ((pData == NULL) || (Size == 0U))
 2033              		.loc 1 1472 6
 2034 0064 BB68     		ldr	r3, [r7, #8]
 2035 0066 002B     		cmp	r3, #0
 2036 0068 02D0     		beq	.L109
 2037              		.loc 1 1472 23 discriminator 1
 2038 006a FB88     		ldrh	r3, [r7, #6]
 2039 006c 002B     		cmp	r3, #0
 2040 006e 02D1     		bne	.L110
 2041              	.L109:
1473:Drivers/STM32F1xx_HAL_Driver/Src/stm32f1xx_hal_spi.c ****   {
1474:Drivers/STM32F1xx_HAL_Driver/Src/stm32f1xx_hal_spi.c ****     errorcode = HAL_ERROR;
 2042              		.loc 1 1474 15
 2043 0070 0123     		movs	r3, #1
 2044 0072 FB75     		strb	r3, [r7, #23]
1475:Drivers/STM32F1xx_HAL_Driver/Src/stm32f1xx_hal_spi.c ****     goto error;
 2045              		.loc 1 1475 5
 2046 0074 4CE0     		b	.L108
 2047              	.L110:
1476:Drivers/STM32F1xx_HAL_Driver/Src/stm32f1xx_hal_spi.c ****   }
1477:Drivers/STM32F1xx_HAL_Driver/Src/stm32f1xx_hal_spi.c **** 
1478:Drivers/STM32F1xx_HAL_Driver/Src/stm32f1xx_hal_spi.c ****   /* Set the transaction information */
1479:Drivers/STM32F1xx_HAL_Driver/Src/stm32f1xx_hal_spi.c ****   hspi->State       = HAL_SPI_STATE_BUSY_RX;
 2048              		.loc 1 1479 21
 2049 0076 FB68     		ldr	r3, [r7, #12]
 2050 0078 0422     		movs	r2, #4
 2051 007a 83F85120 		strb	r2, [r3, #81]
1480:Drivers/STM32F1xx_HAL_Driver/Src/stm32f1xx_hal_spi.c ****   hspi->ErrorCode   = HAL_SPI_ERROR_NONE;
 2052              		.loc 1 1480 21
 2053 007e FB68     		ldr	r3, [r7, #12]
 2054 0080 0022     		movs	r2, #0
 2055 0082 5A65     		str	r2, [r3, #84]
ARM GAS  C:\Users\Alex\AppData\Local\Temp\ccfYuLQH.s 			page 63


1481:Drivers/STM32F1xx_HAL_Driver/Src/stm32f1xx_hal_spi.c ****   hspi->pRxBuffPtr  = (uint8_t *)pData;
 2056              		.loc 1 1481 21
 2057 0084 FB68     		ldr	r3, [r7, #12]
 2058 0086 BA68     		ldr	r2, [r7, #8]
 2059 0088 9A63     		str	r2, [r3, #56]
1482:Drivers/STM32F1xx_HAL_Driver/Src/stm32f1xx_hal_spi.c ****   hspi->RxXferSize  = Size;
 2060              		.loc 1 1482 21
 2061 008a FB68     		ldr	r3, [r7, #12]
 2062 008c FA88     		ldrh	r2, [r7, #6]	@ movhi
 2063 008e 9A87     		strh	r2, [r3, #60]	@ movhi
1483:Drivers/STM32F1xx_HAL_Driver/Src/stm32f1xx_hal_spi.c ****   hspi->RxXferCount = Size;
 2064              		.loc 1 1483 21
 2065 0090 FB68     		ldr	r3, [r7, #12]
 2066 0092 FA88     		ldrh	r2, [r7, #6]	@ movhi
 2067 0094 DA87     		strh	r2, [r3, #62]	@ movhi
1484:Drivers/STM32F1xx_HAL_Driver/Src/stm32f1xx_hal_spi.c **** 
1485:Drivers/STM32F1xx_HAL_Driver/Src/stm32f1xx_hal_spi.c ****   /* Init field not used in handle to zero */
1486:Drivers/STM32F1xx_HAL_Driver/Src/stm32f1xx_hal_spi.c ****   hspi->pTxBuffPtr  = (uint8_t *)NULL;
 2068              		.loc 1 1486 21
 2069 0096 FB68     		ldr	r3, [r7, #12]
 2070 0098 0022     		movs	r2, #0
 2071 009a 1A63     		str	r2, [r3, #48]
1487:Drivers/STM32F1xx_HAL_Driver/Src/stm32f1xx_hal_spi.c ****   hspi->TxXferSize  = 0U;
 2072              		.loc 1 1487 21
 2073 009c FB68     		ldr	r3, [r7, #12]
 2074 009e 0022     		movs	r2, #0
 2075 00a0 9A86     		strh	r2, [r3, #52]	@ movhi
1488:Drivers/STM32F1xx_HAL_Driver/Src/stm32f1xx_hal_spi.c ****   hspi->TxXferCount = 0U;
 2076              		.loc 1 1488 21
 2077 00a2 FB68     		ldr	r3, [r7, #12]
 2078 00a4 0022     		movs	r2, #0
 2079 00a6 DA86     		strh	r2, [r3, #54]	@ movhi
1489:Drivers/STM32F1xx_HAL_Driver/Src/stm32f1xx_hal_spi.c ****   hspi->TxISR       = NULL;
 2080              		.loc 1 1489 21
 2081 00a8 FB68     		ldr	r3, [r7, #12]
 2082 00aa 0022     		movs	r2, #0
 2083 00ac 5A64     		str	r2, [r3, #68]
1490:Drivers/STM32F1xx_HAL_Driver/Src/stm32f1xx_hal_spi.c **** 
1491:Drivers/STM32F1xx_HAL_Driver/Src/stm32f1xx_hal_spi.c ****   /* Set the function for IT treatment */
1492:Drivers/STM32F1xx_HAL_Driver/Src/stm32f1xx_hal_spi.c ****   if (hspi->Init.DataSize > SPI_DATASIZE_8BIT)
 2084              		.loc 1 1492 17
 2085 00ae FB68     		ldr	r3, [r7, #12]
 2086 00b0 DB68     		ldr	r3, [r3, #12]
 2087              		.loc 1 1492 6
 2088 00b2 002B     		cmp	r3, #0
 2089 00b4 03D0     		beq	.L111
1493:Drivers/STM32F1xx_HAL_Driver/Src/stm32f1xx_hal_spi.c ****   {
1494:Drivers/STM32F1xx_HAL_Driver/Src/stm32f1xx_hal_spi.c ****     hspi->RxISR = SPI_RxISR_16BIT;
 2090              		.loc 1 1494 17
 2091 00b6 FB68     		ldr	r3, [r7, #12]
 2092 00b8 1A4A     		ldr	r2, .L115
 2093 00ba 1A64     		str	r2, [r3, #64]
 2094 00bc 02E0     		b	.L112
 2095              	.L111:
1495:Drivers/STM32F1xx_HAL_Driver/Src/stm32f1xx_hal_spi.c ****   }
1496:Drivers/STM32F1xx_HAL_Driver/Src/stm32f1xx_hal_spi.c ****   else
1497:Drivers/STM32F1xx_HAL_Driver/Src/stm32f1xx_hal_spi.c ****   {
ARM GAS  C:\Users\Alex\AppData\Local\Temp\ccfYuLQH.s 			page 64


1498:Drivers/STM32F1xx_HAL_Driver/Src/stm32f1xx_hal_spi.c ****     hspi->RxISR = SPI_RxISR_8BIT;
 2096              		.loc 1 1498 17
 2097 00be FB68     		ldr	r3, [r7, #12]
 2098 00c0 194A     		ldr	r2, .L115+4
 2099 00c2 1A64     		str	r2, [r3, #64]
 2100              	.L112:
1499:Drivers/STM32F1xx_HAL_Driver/Src/stm32f1xx_hal_spi.c ****   }
1500:Drivers/STM32F1xx_HAL_Driver/Src/stm32f1xx_hal_spi.c **** 
1501:Drivers/STM32F1xx_HAL_Driver/Src/stm32f1xx_hal_spi.c ****   /* Configure communication direction : 1Line */
1502:Drivers/STM32F1xx_HAL_Driver/Src/stm32f1xx_hal_spi.c ****   if (hspi->Init.Direction == SPI_DIRECTION_1LINE)
 2101              		.loc 1 1502 17
 2102 00c4 FB68     		ldr	r3, [r7, #12]
 2103 00c6 9B68     		ldr	r3, [r3, #8]
 2104              		.loc 1 1502 6
 2105 00c8 B3F5004F 		cmp	r3, #32768
 2106 00cc 07D1     		bne	.L113
1503:Drivers/STM32F1xx_HAL_Driver/Src/stm32f1xx_hal_spi.c ****   {
1504:Drivers/STM32F1xx_HAL_Driver/Src/stm32f1xx_hal_spi.c ****     SPI_1LINE_RX(hspi);
 2107              		.loc 1 1504 5
 2108 00ce FB68     		ldr	r3, [r7, #12]
 2109 00d0 1B68     		ldr	r3, [r3]
 2110 00d2 1A68     		ldr	r2, [r3]
 2111 00d4 FB68     		ldr	r3, [r7, #12]
 2112 00d6 1B68     		ldr	r3, [r3]
 2113 00d8 22F48042 		bic	r2, r2, #16384
 2114 00dc 1A60     		str	r2, [r3]
 2115              	.L113:
1505:Drivers/STM32F1xx_HAL_Driver/Src/stm32f1xx_hal_spi.c ****   }
1506:Drivers/STM32F1xx_HAL_Driver/Src/stm32f1xx_hal_spi.c **** 
1507:Drivers/STM32F1xx_HAL_Driver/Src/stm32f1xx_hal_spi.c **** #if (USE_SPI_CRC != 0U)
1508:Drivers/STM32F1xx_HAL_Driver/Src/stm32f1xx_hal_spi.c ****   /* Reset CRC Calculation */
1509:Drivers/STM32F1xx_HAL_Driver/Src/stm32f1xx_hal_spi.c ****   if (hspi->Init.CRCCalculation == SPI_CRCCALCULATION_ENABLE)
1510:Drivers/STM32F1xx_HAL_Driver/Src/stm32f1xx_hal_spi.c ****   {
1511:Drivers/STM32F1xx_HAL_Driver/Src/stm32f1xx_hal_spi.c ****     SPI_RESET_CRC(hspi);
1512:Drivers/STM32F1xx_HAL_Driver/Src/stm32f1xx_hal_spi.c ****   }
1513:Drivers/STM32F1xx_HAL_Driver/Src/stm32f1xx_hal_spi.c **** #endif /* USE_SPI_CRC */
1514:Drivers/STM32F1xx_HAL_Driver/Src/stm32f1xx_hal_spi.c **** 
1515:Drivers/STM32F1xx_HAL_Driver/Src/stm32f1xx_hal_spi.c ****   /* Enable TXE and ERR interrupt */
1516:Drivers/STM32F1xx_HAL_Driver/Src/stm32f1xx_hal_spi.c ****   __HAL_SPI_ENABLE_IT(hspi, (SPI_IT_RXNE | SPI_IT_ERR));
 2116              		.loc 1 1516 3
 2117 00de FB68     		ldr	r3, [r7, #12]
 2118 00e0 1B68     		ldr	r3, [r3]
 2119 00e2 5A68     		ldr	r2, [r3, #4]
 2120 00e4 FB68     		ldr	r3, [r7, #12]
 2121 00e6 1B68     		ldr	r3, [r3]
 2122 00e8 42F06002 		orr	r2, r2, #96
 2123 00ec 5A60     		str	r2, [r3, #4]
1517:Drivers/STM32F1xx_HAL_Driver/Src/stm32f1xx_hal_spi.c **** 
1518:Drivers/STM32F1xx_HAL_Driver/Src/stm32f1xx_hal_spi.c ****   /* Note : The SPI must be enabled after unlocking current process
1519:Drivers/STM32F1xx_HAL_Driver/Src/stm32f1xx_hal_spi.c ****             to avoid the risk of SPI interrupt handle execution before current
1520:Drivers/STM32F1xx_HAL_Driver/Src/stm32f1xx_hal_spi.c ****             process unlock */
1521:Drivers/STM32F1xx_HAL_Driver/Src/stm32f1xx_hal_spi.c **** 
1522:Drivers/STM32F1xx_HAL_Driver/Src/stm32f1xx_hal_spi.c ****   /* Check if the SPI is already enabled */
1523:Drivers/STM32F1xx_HAL_Driver/Src/stm32f1xx_hal_spi.c ****   if ((hspi->Instance->CR1 & SPI_CR1_SPE) != SPI_CR1_SPE)
 2124              		.loc 1 1523 12
 2125 00ee FB68     		ldr	r3, [r7, #12]
 2126 00f0 1B68     		ldr	r3, [r3]
ARM GAS  C:\Users\Alex\AppData\Local\Temp\ccfYuLQH.s 			page 65


 2127              		.loc 1 1523 22
 2128 00f2 1B68     		ldr	r3, [r3]
 2129              		.loc 1 1523 28
 2130 00f4 03F04003 		and	r3, r3, #64
 2131              		.loc 1 1523 6
 2132 00f8 402B     		cmp	r3, #64
 2133 00fa 08D0     		beq	.L114
1524:Drivers/STM32F1xx_HAL_Driver/Src/stm32f1xx_hal_spi.c ****   {
1525:Drivers/STM32F1xx_HAL_Driver/Src/stm32f1xx_hal_spi.c ****     /* Enable SPI peripheral */
1526:Drivers/STM32F1xx_HAL_Driver/Src/stm32f1xx_hal_spi.c ****     __HAL_SPI_ENABLE(hspi);
 2134              		.loc 1 1526 5
 2135 00fc FB68     		ldr	r3, [r7, #12]
 2136 00fe 1B68     		ldr	r3, [r3]
 2137 0100 1A68     		ldr	r2, [r3]
 2138 0102 FB68     		ldr	r3, [r7, #12]
 2139 0104 1B68     		ldr	r3, [r3]
 2140 0106 42F04002 		orr	r2, r2, #64
 2141 010a 1A60     		str	r2, [r3]
 2142 010c 00E0     		b	.L108
 2143              	.L114:
1527:Drivers/STM32F1xx_HAL_Driver/Src/stm32f1xx_hal_spi.c ****   }
1528:Drivers/STM32F1xx_HAL_Driver/Src/stm32f1xx_hal_spi.c **** 
1529:Drivers/STM32F1xx_HAL_Driver/Src/stm32f1xx_hal_spi.c **** error :
 2144              		.loc 1 1529 1
 2145 010e 00BF     		nop
 2146              	.L108:
1530:Drivers/STM32F1xx_HAL_Driver/Src/stm32f1xx_hal_spi.c ****   /* Process Unlocked */
1531:Drivers/STM32F1xx_HAL_Driver/Src/stm32f1xx_hal_spi.c ****   __HAL_UNLOCK(hspi);
 2147              		.loc 1 1531 3
 2148 0110 FB68     		ldr	r3, [r7, #12]
 2149 0112 0022     		movs	r2, #0
 2150 0114 83F85020 		strb	r2, [r3, #80]
1532:Drivers/STM32F1xx_HAL_Driver/Src/stm32f1xx_hal_spi.c ****   return errorcode;
 2151              		.loc 1 1532 10
 2152 0118 FB7D     		ldrb	r3, [r7, #23]	@ zero_extendqisi2
 2153              	.L105:
1533:Drivers/STM32F1xx_HAL_Driver/Src/stm32f1xx_hal_spi.c **** }
 2154              		.loc 1 1533 1
 2155 011a 1846     		mov	r0, r3
 2156 011c 1837     		adds	r7, r7, #24
 2157              	.LCFI46:
 2158              		.cfi_def_cfa_offset 8
 2159 011e BD46     		mov	sp, r7
 2160              	.LCFI47:
 2161              		.cfi_def_cfa_register 13
 2162              		@ sp needed
 2163 0120 80BD     		pop	{r7, pc}
 2164              	.L116:
 2165 0122 00BF     		.align	2
 2166              	.L115:
 2167 0124 00000000 		.word	SPI_RxISR_16BIT
 2168 0128 00000000 		.word	SPI_RxISR_8BIT
 2169              		.cfi_endproc
 2170              	.LFE73:
 2172              		.section	.text.HAL_SPI_TransmitReceive_IT,"ax",%progbits
 2173              		.align	1
 2174              		.global	HAL_SPI_TransmitReceive_IT
ARM GAS  C:\Users\Alex\AppData\Local\Temp\ccfYuLQH.s 			page 66


 2175              		.syntax unified
 2176              		.thumb
 2177              		.thumb_func
 2178              		.fpu softvfp
 2180              	HAL_SPI_TransmitReceive_IT:
 2181              	.LFB74:
1534:Drivers/STM32F1xx_HAL_Driver/Src/stm32f1xx_hal_spi.c **** 
1535:Drivers/STM32F1xx_HAL_Driver/Src/stm32f1xx_hal_spi.c **** /**
1536:Drivers/STM32F1xx_HAL_Driver/Src/stm32f1xx_hal_spi.c ****   * @brief  Transmit and Receive an amount of data in non-blocking mode with Interrupt.
1537:Drivers/STM32F1xx_HAL_Driver/Src/stm32f1xx_hal_spi.c ****   * @param  hspi pointer to a SPI_HandleTypeDef structure that contains
1538:Drivers/STM32F1xx_HAL_Driver/Src/stm32f1xx_hal_spi.c ****   *               the configuration information for SPI module.
1539:Drivers/STM32F1xx_HAL_Driver/Src/stm32f1xx_hal_spi.c ****   * @param  pTxData pointer to transmission data buffer
1540:Drivers/STM32F1xx_HAL_Driver/Src/stm32f1xx_hal_spi.c ****   * @param  pRxData pointer to reception data buffer
1541:Drivers/STM32F1xx_HAL_Driver/Src/stm32f1xx_hal_spi.c ****   * @param  Size amount of data to be sent and received
1542:Drivers/STM32F1xx_HAL_Driver/Src/stm32f1xx_hal_spi.c ****   * @retval HAL status
1543:Drivers/STM32F1xx_HAL_Driver/Src/stm32f1xx_hal_spi.c ****   */
1544:Drivers/STM32F1xx_HAL_Driver/Src/stm32f1xx_hal_spi.c **** HAL_StatusTypeDef HAL_SPI_TransmitReceive_IT(SPI_HandleTypeDef *hspi, uint8_t *pTxData, uint8_t *pR
1545:Drivers/STM32F1xx_HAL_Driver/Src/stm32f1xx_hal_spi.c **** {
 2182              		.loc 1 1545 1
 2183              		.cfi_startproc
 2184              		@ args = 0, pretend = 0, frame = 24
 2185              		@ frame_needed = 1, uses_anonymous_args = 0
 2186              		@ link register save eliminated.
 2187 0000 80B4     		push	{r7}
 2188              	.LCFI48:
 2189              		.cfi_def_cfa_offset 4
 2190              		.cfi_offset 7, -4
 2191 0002 87B0     		sub	sp, sp, #28
 2192              	.LCFI49:
 2193              		.cfi_def_cfa_offset 32
 2194 0004 00AF     		add	r7, sp, #0
 2195              	.LCFI50:
 2196              		.cfi_def_cfa_register 7
 2197 0006 F860     		str	r0, [r7, #12]
 2198 0008 B960     		str	r1, [r7, #8]
 2199 000a 7A60     		str	r2, [r7, #4]
 2200 000c 7B80     		strh	r3, [r7, #2]	@ movhi
1546:Drivers/STM32F1xx_HAL_Driver/Src/stm32f1xx_hal_spi.c ****   uint32_t             tmp_mode;
1547:Drivers/STM32F1xx_HAL_Driver/Src/stm32f1xx_hal_spi.c ****   HAL_SPI_StateTypeDef tmp_state;
1548:Drivers/STM32F1xx_HAL_Driver/Src/stm32f1xx_hal_spi.c ****   HAL_StatusTypeDef    errorcode = HAL_OK;
 2201              		.loc 1 1548 24
 2202 000e 0023     		movs	r3, #0
 2203 0010 FB75     		strb	r3, [r7, #23]
1549:Drivers/STM32F1xx_HAL_Driver/Src/stm32f1xx_hal_spi.c **** 
1550:Drivers/STM32F1xx_HAL_Driver/Src/stm32f1xx_hal_spi.c ****   /* Check Direction parameter */
1551:Drivers/STM32F1xx_HAL_Driver/Src/stm32f1xx_hal_spi.c ****   assert_param(IS_SPI_DIRECTION_2LINES(hspi->Init.Direction));
1552:Drivers/STM32F1xx_HAL_Driver/Src/stm32f1xx_hal_spi.c **** 
1553:Drivers/STM32F1xx_HAL_Driver/Src/stm32f1xx_hal_spi.c ****   /* Process locked */
1554:Drivers/STM32F1xx_HAL_Driver/Src/stm32f1xx_hal_spi.c ****   __HAL_LOCK(hspi);
 2204              		.loc 1 1554 3
 2205 0012 FB68     		ldr	r3, [r7, #12]
 2206 0014 93F85030 		ldrb	r3, [r3, #80]	@ zero_extendqisi2
 2207 0018 012B     		cmp	r3, #1
 2208 001a 01D1     		bne	.L118
 2209              		.loc 1 1554 3 is_stmt 0 discriminator 1
 2210 001c 0223     		movs	r3, #2
 2211 001e 75E0     		b	.L119
ARM GAS  C:\Users\Alex\AppData\Local\Temp\ccfYuLQH.s 			page 67


 2212              	.L118:
 2213              		.loc 1 1554 3 discriminator 2
 2214 0020 FB68     		ldr	r3, [r7, #12]
 2215 0022 0122     		movs	r2, #1
 2216 0024 83F85020 		strb	r2, [r3, #80]
1555:Drivers/STM32F1xx_HAL_Driver/Src/stm32f1xx_hal_spi.c **** 
1556:Drivers/STM32F1xx_HAL_Driver/Src/stm32f1xx_hal_spi.c ****   /* Init temporary variables */
1557:Drivers/STM32F1xx_HAL_Driver/Src/stm32f1xx_hal_spi.c ****   tmp_state           = hspi->State;
 2217              		.loc 1 1557 23 is_stmt 1 discriminator 2
 2218 0028 FB68     		ldr	r3, [r7, #12]
 2219 002a 93F85130 		ldrb	r3, [r3, #81]
 2220 002e BB75     		strb	r3, [r7, #22]
1558:Drivers/STM32F1xx_HAL_Driver/Src/stm32f1xx_hal_spi.c ****   tmp_mode            = hspi->Init.Mode;
 2221              		.loc 1 1558 23 discriminator 2
 2222 0030 FB68     		ldr	r3, [r7, #12]
 2223 0032 5B68     		ldr	r3, [r3, #4]
 2224 0034 3B61     		str	r3, [r7, #16]
1559:Drivers/STM32F1xx_HAL_Driver/Src/stm32f1xx_hal_spi.c **** 
1560:Drivers/STM32F1xx_HAL_Driver/Src/stm32f1xx_hal_spi.c ****   if (!((tmp_state == HAL_SPI_STATE_READY) || \
 2225              		.loc 1 1560 6 discriminator 2
 2226 0036 BB7D     		ldrb	r3, [r7, #22]	@ zero_extendqisi2
 2227 0038 012B     		cmp	r3, #1
 2228 003a 0DD0     		beq	.L120
 2229              		.loc 1 1560 7 discriminator 1
 2230 003c 3B69     		ldr	r3, [r7, #16]
 2231 003e B3F5827F 		cmp	r3, #260
 2232 0042 06D1     		bne	.L121
1561:Drivers/STM32F1xx_HAL_Driver/Src/stm32f1xx_hal_spi.c ****         ((tmp_mode == SPI_MODE_MASTER) && (hspi->Init.Direction == SPI_DIRECTION_2LINES) && (tmp_st
 2233              		.loc 1 1561 54
 2234 0044 FB68     		ldr	r3, [r7, #12]
 2235 0046 9B68     		ldr	r3, [r3, #8]
 2236              		.loc 1 1561 40
 2237 0048 002B     		cmp	r3, #0
 2238 004a 02D1     		bne	.L121
 2239              		.loc 1 1561 90 discriminator 1
 2240 004c BB7D     		ldrb	r3, [r7, #22]	@ zero_extendqisi2
 2241 004e 042B     		cmp	r3, #4
 2242 0050 02D0     		beq	.L120
 2243              	.L121:
1562:Drivers/STM32F1xx_HAL_Driver/Src/stm32f1xx_hal_spi.c ****   {
1563:Drivers/STM32F1xx_HAL_Driver/Src/stm32f1xx_hal_spi.c ****     errorcode = HAL_BUSY;
 2244              		.loc 1 1563 15
 2245 0052 0223     		movs	r3, #2
 2246 0054 FB75     		strb	r3, [r7, #23]
1564:Drivers/STM32F1xx_HAL_Driver/Src/stm32f1xx_hal_spi.c ****     goto error;
 2247              		.loc 1 1564 5
 2248 0056 54E0     		b	.L122
 2249              	.L120:
1565:Drivers/STM32F1xx_HAL_Driver/Src/stm32f1xx_hal_spi.c ****   }
1566:Drivers/STM32F1xx_HAL_Driver/Src/stm32f1xx_hal_spi.c **** 
1567:Drivers/STM32F1xx_HAL_Driver/Src/stm32f1xx_hal_spi.c ****   if ((pTxData == NULL) || (pRxData == NULL) || (Size == 0U))
 2250              		.loc 1 1567 6
 2251 0058 BB68     		ldr	r3, [r7, #8]
 2252 005a 002B     		cmp	r3, #0
 2253 005c 05D0     		beq	.L123
 2254              		.loc 1 1567 25 discriminator 1
 2255 005e 7B68     		ldr	r3, [r7, #4]
ARM GAS  C:\Users\Alex\AppData\Local\Temp\ccfYuLQH.s 			page 68


 2256 0060 002B     		cmp	r3, #0
 2257 0062 02D0     		beq	.L123
 2258              		.loc 1 1567 46 discriminator 2
 2259 0064 7B88     		ldrh	r3, [r7, #2]
 2260 0066 002B     		cmp	r3, #0
 2261 0068 02D1     		bne	.L124
 2262              	.L123:
1568:Drivers/STM32F1xx_HAL_Driver/Src/stm32f1xx_hal_spi.c ****   {
1569:Drivers/STM32F1xx_HAL_Driver/Src/stm32f1xx_hal_spi.c ****     errorcode = HAL_ERROR;
 2263              		.loc 1 1569 15
 2264 006a 0123     		movs	r3, #1
 2265 006c FB75     		strb	r3, [r7, #23]
1570:Drivers/STM32F1xx_HAL_Driver/Src/stm32f1xx_hal_spi.c ****     goto error;
 2266              		.loc 1 1570 5
 2267 006e 48E0     		b	.L122
 2268              	.L124:
1571:Drivers/STM32F1xx_HAL_Driver/Src/stm32f1xx_hal_spi.c ****   }
1572:Drivers/STM32F1xx_HAL_Driver/Src/stm32f1xx_hal_spi.c **** 
1573:Drivers/STM32F1xx_HAL_Driver/Src/stm32f1xx_hal_spi.c ****   /* Don't overwrite in case of HAL_SPI_STATE_BUSY_RX */
1574:Drivers/STM32F1xx_HAL_Driver/Src/stm32f1xx_hal_spi.c ****   if (hspi->State != HAL_SPI_STATE_BUSY_RX)
 2269              		.loc 1 1574 11
 2270 0070 FB68     		ldr	r3, [r7, #12]
 2271 0072 93F85130 		ldrb	r3, [r3, #81]
 2272 0076 DBB2     		uxtb	r3, r3
 2273              		.loc 1 1574 6
 2274 0078 042B     		cmp	r3, #4
 2275 007a 03D0     		beq	.L125
1575:Drivers/STM32F1xx_HAL_Driver/Src/stm32f1xx_hal_spi.c ****   {
1576:Drivers/STM32F1xx_HAL_Driver/Src/stm32f1xx_hal_spi.c ****     hspi->State = HAL_SPI_STATE_BUSY_TX_RX;
 2276              		.loc 1 1576 17
 2277 007c FB68     		ldr	r3, [r7, #12]
 2278 007e 0522     		movs	r2, #5
 2279 0080 83F85120 		strb	r2, [r3, #81]
 2280              	.L125:
1577:Drivers/STM32F1xx_HAL_Driver/Src/stm32f1xx_hal_spi.c ****   }
1578:Drivers/STM32F1xx_HAL_Driver/Src/stm32f1xx_hal_spi.c **** 
1579:Drivers/STM32F1xx_HAL_Driver/Src/stm32f1xx_hal_spi.c ****   /* Set the transaction information */
1580:Drivers/STM32F1xx_HAL_Driver/Src/stm32f1xx_hal_spi.c ****   hspi->ErrorCode   = HAL_SPI_ERROR_NONE;
 2281              		.loc 1 1580 21
 2282 0084 FB68     		ldr	r3, [r7, #12]
 2283 0086 0022     		movs	r2, #0
 2284 0088 5A65     		str	r2, [r3, #84]
1581:Drivers/STM32F1xx_HAL_Driver/Src/stm32f1xx_hal_spi.c ****   hspi->pTxBuffPtr  = (uint8_t *)pTxData;
 2285              		.loc 1 1581 21
 2286 008a FB68     		ldr	r3, [r7, #12]
 2287 008c BA68     		ldr	r2, [r7, #8]
 2288 008e 1A63     		str	r2, [r3, #48]
1582:Drivers/STM32F1xx_HAL_Driver/Src/stm32f1xx_hal_spi.c ****   hspi->TxXferSize  = Size;
 2289              		.loc 1 1582 21
 2290 0090 FB68     		ldr	r3, [r7, #12]
 2291 0092 7A88     		ldrh	r2, [r7, #2]	@ movhi
 2292 0094 9A86     		strh	r2, [r3, #52]	@ movhi
1583:Drivers/STM32F1xx_HAL_Driver/Src/stm32f1xx_hal_spi.c ****   hspi->TxXferCount = Size;
 2293              		.loc 1 1583 21
 2294 0096 FB68     		ldr	r3, [r7, #12]
 2295 0098 7A88     		ldrh	r2, [r7, #2]	@ movhi
 2296 009a DA86     		strh	r2, [r3, #54]	@ movhi
ARM GAS  C:\Users\Alex\AppData\Local\Temp\ccfYuLQH.s 			page 69


1584:Drivers/STM32F1xx_HAL_Driver/Src/stm32f1xx_hal_spi.c ****   hspi->pRxBuffPtr  = (uint8_t *)pRxData;
 2297              		.loc 1 1584 21
 2298 009c FB68     		ldr	r3, [r7, #12]
 2299 009e 7A68     		ldr	r2, [r7, #4]
 2300 00a0 9A63     		str	r2, [r3, #56]
1585:Drivers/STM32F1xx_HAL_Driver/Src/stm32f1xx_hal_spi.c ****   hspi->RxXferSize  = Size;
 2301              		.loc 1 1585 21
 2302 00a2 FB68     		ldr	r3, [r7, #12]
 2303 00a4 7A88     		ldrh	r2, [r7, #2]	@ movhi
 2304 00a6 9A87     		strh	r2, [r3, #60]	@ movhi
1586:Drivers/STM32F1xx_HAL_Driver/Src/stm32f1xx_hal_spi.c ****   hspi->RxXferCount = Size;
 2305              		.loc 1 1586 21
 2306 00a8 FB68     		ldr	r3, [r7, #12]
 2307 00aa 7A88     		ldrh	r2, [r7, #2]	@ movhi
 2308 00ac DA87     		strh	r2, [r3, #62]	@ movhi
1587:Drivers/STM32F1xx_HAL_Driver/Src/stm32f1xx_hal_spi.c **** 
1588:Drivers/STM32F1xx_HAL_Driver/Src/stm32f1xx_hal_spi.c ****   /* Set the function for IT treatment */
1589:Drivers/STM32F1xx_HAL_Driver/Src/stm32f1xx_hal_spi.c ****   if (hspi->Init.DataSize > SPI_DATASIZE_8BIT)
 2309              		.loc 1 1589 17
 2310 00ae FB68     		ldr	r3, [r7, #12]
 2311 00b0 DB68     		ldr	r3, [r3, #12]
 2312              		.loc 1 1589 6
 2313 00b2 002B     		cmp	r3, #0
 2314 00b4 06D0     		beq	.L126
1590:Drivers/STM32F1xx_HAL_Driver/Src/stm32f1xx_hal_spi.c ****   {
1591:Drivers/STM32F1xx_HAL_Driver/Src/stm32f1xx_hal_spi.c ****     hspi->RxISR     = SPI_2linesRxISR_16BIT;
 2315              		.loc 1 1591 21
 2316 00b6 FB68     		ldr	r3, [r7, #12]
 2317 00b8 174A     		ldr	r2, .L129
 2318 00ba 1A64     		str	r2, [r3, #64]
1592:Drivers/STM32F1xx_HAL_Driver/Src/stm32f1xx_hal_spi.c ****     hspi->TxISR     = SPI_2linesTxISR_16BIT;
 2319              		.loc 1 1592 21
 2320 00bc FB68     		ldr	r3, [r7, #12]
 2321 00be 174A     		ldr	r2, .L129+4
 2322 00c0 5A64     		str	r2, [r3, #68]
 2323 00c2 05E0     		b	.L127
 2324              	.L126:
1593:Drivers/STM32F1xx_HAL_Driver/Src/stm32f1xx_hal_spi.c ****   }
1594:Drivers/STM32F1xx_HAL_Driver/Src/stm32f1xx_hal_spi.c ****   else
1595:Drivers/STM32F1xx_HAL_Driver/Src/stm32f1xx_hal_spi.c ****   {
1596:Drivers/STM32F1xx_HAL_Driver/Src/stm32f1xx_hal_spi.c ****     hspi->RxISR     = SPI_2linesRxISR_8BIT;
 2325              		.loc 1 1596 21
 2326 00c4 FB68     		ldr	r3, [r7, #12]
 2327 00c6 164A     		ldr	r2, .L129+8
 2328 00c8 1A64     		str	r2, [r3, #64]
1597:Drivers/STM32F1xx_HAL_Driver/Src/stm32f1xx_hal_spi.c ****     hspi->TxISR     = SPI_2linesTxISR_8BIT;
 2329              		.loc 1 1597 21
 2330 00ca FB68     		ldr	r3, [r7, #12]
 2331 00cc 154A     		ldr	r2, .L129+12
 2332 00ce 5A64     		str	r2, [r3, #68]
 2333              	.L127:
1598:Drivers/STM32F1xx_HAL_Driver/Src/stm32f1xx_hal_spi.c ****   }
1599:Drivers/STM32F1xx_HAL_Driver/Src/stm32f1xx_hal_spi.c **** 
1600:Drivers/STM32F1xx_HAL_Driver/Src/stm32f1xx_hal_spi.c **** #if (USE_SPI_CRC != 0U)
1601:Drivers/STM32F1xx_HAL_Driver/Src/stm32f1xx_hal_spi.c ****   /* Reset CRC Calculation */
1602:Drivers/STM32F1xx_HAL_Driver/Src/stm32f1xx_hal_spi.c ****   if (hspi->Init.CRCCalculation == SPI_CRCCALCULATION_ENABLE)
1603:Drivers/STM32F1xx_HAL_Driver/Src/stm32f1xx_hal_spi.c ****   {
ARM GAS  C:\Users\Alex\AppData\Local\Temp\ccfYuLQH.s 			page 70


1604:Drivers/STM32F1xx_HAL_Driver/Src/stm32f1xx_hal_spi.c ****     SPI_RESET_CRC(hspi);
1605:Drivers/STM32F1xx_HAL_Driver/Src/stm32f1xx_hal_spi.c ****   }
1606:Drivers/STM32F1xx_HAL_Driver/Src/stm32f1xx_hal_spi.c **** #endif /* USE_SPI_CRC */
1607:Drivers/STM32F1xx_HAL_Driver/Src/stm32f1xx_hal_spi.c **** 
1608:Drivers/STM32F1xx_HAL_Driver/Src/stm32f1xx_hal_spi.c ****   /* Enable TXE, RXNE and ERR interrupt */
1609:Drivers/STM32F1xx_HAL_Driver/Src/stm32f1xx_hal_spi.c ****   __HAL_SPI_ENABLE_IT(hspi, (SPI_IT_TXE | SPI_IT_RXNE | SPI_IT_ERR));
 2334              		.loc 1 1609 3
 2335 00d0 FB68     		ldr	r3, [r7, #12]
 2336 00d2 1B68     		ldr	r3, [r3]
 2337 00d4 5A68     		ldr	r2, [r3, #4]
 2338 00d6 FB68     		ldr	r3, [r7, #12]
 2339 00d8 1B68     		ldr	r3, [r3]
 2340 00da 42F0E002 		orr	r2, r2, #224
 2341 00de 5A60     		str	r2, [r3, #4]
1610:Drivers/STM32F1xx_HAL_Driver/Src/stm32f1xx_hal_spi.c **** 
1611:Drivers/STM32F1xx_HAL_Driver/Src/stm32f1xx_hal_spi.c ****   /* Check if the SPI is already enabled */
1612:Drivers/STM32F1xx_HAL_Driver/Src/stm32f1xx_hal_spi.c ****   if ((hspi->Instance->CR1 & SPI_CR1_SPE) != SPI_CR1_SPE)
 2342              		.loc 1 1612 12
 2343 00e0 FB68     		ldr	r3, [r7, #12]
 2344 00e2 1B68     		ldr	r3, [r3]
 2345              		.loc 1 1612 22
 2346 00e4 1B68     		ldr	r3, [r3]
 2347              		.loc 1 1612 28
 2348 00e6 03F04003 		and	r3, r3, #64
 2349              		.loc 1 1612 6
 2350 00ea 402B     		cmp	r3, #64
 2351 00ec 08D0     		beq	.L128
1613:Drivers/STM32F1xx_HAL_Driver/Src/stm32f1xx_hal_spi.c ****   {
1614:Drivers/STM32F1xx_HAL_Driver/Src/stm32f1xx_hal_spi.c ****     /* Enable SPI peripheral */
1615:Drivers/STM32F1xx_HAL_Driver/Src/stm32f1xx_hal_spi.c ****     __HAL_SPI_ENABLE(hspi);
 2352              		.loc 1 1615 5
 2353 00ee FB68     		ldr	r3, [r7, #12]
 2354 00f0 1B68     		ldr	r3, [r3]
 2355 00f2 1A68     		ldr	r2, [r3]
 2356 00f4 FB68     		ldr	r3, [r7, #12]
 2357 00f6 1B68     		ldr	r3, [r3]
 2358 00f8 42F04002 		orr	r2, r2, #64
 2359 00fc 1A60     		str	r2, [r3]
 2360 00fe 00E0     		b	.L122
 2361              	.L128:
1616:Drivers/STM32F1xx_HAL_Driver/Src/stm32f1xx_hal_spi.c ****   }
1617:Drivers/STM32F1xx_HAL_Driver/Src/stm32f1xx_hal_spi.c **** 
1618:Drivers/STM32F1xx_HAL_Driver/Src/stm32f1xx_hal_spi.c **** error :
 2362              		.loc 1 1618 1
 2363 0100 00BF     		nop
 2364              	.L122:
1619:Drivers/STM32F1xx_HAL_Driver/Src/stm32f1xx_hal_spi.c ****   /* Process Unlocked */
1620:Drivers/STM32F1xx_HAL_Driver/Src/stm32f1xx_hal_spi.c ****   __HAL_UNLOCK(hspi);
 2365              		.loc 1 1620 3
 2366 0102 FB68     		ldr	r3, [r7, #12]
 2367 0104 0022     		movs	r2, #0
 2368 0106 83F85020 		strb	r2, [r3, #80]
1621:Drivers/STM32F1xx_HAL_Driver/Src/stm32f1xx_hal_spi.c ****   return errorcode;
 2369              		.loc 1 1621 10
 2370 010a FB7D     		ldrb	r3, [r7, #23]	@ zero_extendqisi2
 2371              	.L119:
1622:Drivers/STM32F1xx_HAL_Driver/Src/stm32f1xx_hal_spi.c **** }
ARM GAS  C:\Users\Alex\AppData\Local\Temp\ccfYuLQH.s 			page 71


 2372              		.loc 1 1622 1
 2373 010c 1846     		mov	r0, r3
 2374 010e 1C37     		adds	r7, r7, #28
 2375              	.LCFI51:
 2376              		.cfi_def_cfa_offset 4
 2377 0110 BD46     		mov	sp, r7
 2378              	.LCFI52:
 2379              		.cfi_def_cfa_register 13
 2380              		@ sp needed
 2381 0112 80BC     		pop	{r7}
 2382              	.LCFI53:
 2383              		.cfi_restore 7
 2384              		.cfi_def_cfa_offset 0
 2385 0114 7047     		bx	lr
 2386              	.L130:
 2387 0116 00BF     		.align	2
 2388              	.L129:
 2389 0118 00000000 		.word	SPI_2linesRxISR_16BIT
 2390 011c 00000000 		.word	SPI_2linesTxISR_16BIT
 2391 0120 00000000 		.word	SPI_2linesRxISR_8BIT
 2392 0124 00000000 		.word	SPI_2linesTxISR_8BIT
 2393              		.cfi_endproc
 2394              	.LFE74:
 2396              		.section	.text.HAL_SPI_Transmit_DMA,"ax",%progbits
 2397              		.align	1
 2398              		.global	HAL_SPI_Transmit_DMA
 2399              		.syntax unified
 2400              		.thumb
 2401              		.thumb_func
 2402              		.fpu softvfp
 2404              	HAL_SPI_Transmit_DMA:
 2405              	.LFB75:
1623:Drivers/STM32F1xx_HAL_Driver/Src/stm32f1xx_hal_spi.c **** 
1624:Drivers/STM32F1xx_HAL_Driver/Src/stm32f1xx_hal_spi.c **** /**
1625:Drivers/STM32F1xx_HAL_Driver/Src/stm32f1xx_hal_spi.c ****   * @brief  Transmit an amount of data in non-blocking mode with DMA.
1626:Drivers/STM32F1xx_HAL_Driver/Src/stm32f1xx_hal_spi.c ****   * @param  hspi pointer to a SPI_HandleTypeDef structure that contains
1627:Drivers/STM32F1xx_HAL_Driver/Src/stm32f1xx_hal_spi.c ****   *               the configuration information for SPI module.
1628:Drivers/STM32F1xx_HAL_Driver/Src/stm32f1xx_hal_spi.c ****   * @param  pData pointer to data buffer
1629:Drivers/STM32F1xx_HAL_Driver/Src/stm32f1xx_hal_spi.c ****   * @param  Size amount of data to be sent
1630:Drivers/STM32F1xx_HAL_Driver/Src/stm32f1xx_hal_spi.c ****   * @retval HAL status
1631:Drivers/STM32F1xx_HAL_Driver/Src/stm32f1xx_hal_spi.c ****   */
1632:Drivers/STM32F1xx_HAL_Driver/Src/stm32f1xx_hal_spi.c **** HAL_StatusTypeDef HAL_SPI_Transmit_DMA(SPI_HandleTypeDef *hspi, uint8_t *pData, uint16_t Size)
1633:Drivers/STM32F1xx_HAL_Driver/Src/stm32f1xx_hal_spi.c **** {
 2406              		.loc 1 1633 1
 2407              		.cfi_startproc
 2408              		@ args = 0, pretend = 0, frame = 24
 2409              		@ frame_needed = 1, uses_anonymous_args = 0
 2410 0000 80B5     		push	{r7, lr}
 2411              	.LCFI54:
 2412              		.cfi_def_cfa_offset 8
 2413              		.cfi_offset 7, -8
 2414              		.cfi_offset 14, -4
 2415 0002 86B0     		sub	sp, sp, #24
 2416              	.LCFI55:
 2417              		.cfi_def_cfa_offset 32
 2418 0004 00AF     		add	r7, sp, #0
 2419              	.LCFI56:
ARM GAS  C:\Users\Alex\AppData\Local\Temp\ccfYuLQH.s 			page 72


 2420              		.cfi_def_cfa_register 7
 2421 0006 F860     		str	r0, [r7, #12]
 2422 0008 B960     		str	r1, [r7, #8]
 2423 000a 1346     		mov	r3, r2
 2424 000c FB80     		strh	r3, [r7, #6]	@ movhi
1634:Drivers/STM32F1xx_HAL_Driver/Src/stm32f1xx_hal_spi.c ****   HAL_StatusTypeDef errorcode = HAL_OK;
 2425              		.loc 1 1634 21
 2426 000e 0023     		movs	r3, #0
 2427 0010 FB75     		strb	r3, [r7, #23]
1635:Drivers/STM32F1xx_HAL_Driver/Src/stm32f1xx_hal_spi.c **** 
1636:Drivers/STM32F1xx_HAL_Driver/Src/stm32f1xx_hal_spi.c ****   /* Check tx dma handle */
1637:Drivers/STM32F1xx_HAL_Driver/Src/stm32f1xx_hal_spi.c ****   assert_param(IS_SPI_DMA_HANDLE(hspi->hdmatx));
1638:Drivers/STM32F1xx_HAL_Driver/Src/stm32f1xx_hal_spi.c **** 
1639:Drivers/STM32F1xx_HAL_Driver/Src/stm32f1xx_hal_spi.c ****   /* Check Direction parameter */
1640:Drivers/STM32F1xx_HAL_Driver/Src/stm32f1xx_hal_spi.c ****   assert_param(IS_SPI_DIRECTION_2LINES_OR_1LINE(hspi->Init.Direction));
1641:Drivers/STM32F1xx_HAL_Driver/Src/stm32f1xx_hal_spi.c **** 
1642:Drivers/STM32F1xx_HAL_Driver/Src/stm32f1xx_hal_spi.c ****   /* Process Locked */
1643:Drivers/STM32F1xx_HAL_Driver/Src/stm32f1xx_hal_spi.c ****   __HAL_LOCK(hspi);
 2428              		.loc 1 1643 3
 2429 0012 FB68     		ldr	r3, [r7, #12]
 2430 0014 93F85030 		ldrb	r3, [r3, #80]	@ zero_extendqisi2
 2431 0018 012B     		cmp	r3, #1
 2432 001a 01D1     		bne	.L132
 2433              		.loc 1 1643 3 is_stmt 0 discriminator 1
 2434 001c 0223     		movs	r3, #2
 2435 001e 93E0     		b	.L133
 2436              	.L132:
 2437              		.loc 1 1643 3 discriminator 2
 2438 0020 FB68     		ldr	r3, [r7, #12]
 2439 0022 0122     		movs	r2, #1
 2440 0024 83F85020 		strb	r2, [r3, #80]
1644:Drivers/STM32F1xx_HAL_Driver/Src/stm32f1xx_hal_spi.c **** 
1645:Drivers/STM32F1xx_HAL_Driver/Src/stm32f1xx_hal_spi.c ****   if (hspi->State != HAL_SPI_STATE_READY)
 2441              		.loc 1 1645 11 is_stmt 1 discriminator 2
 2442 0028 FB68     		ldr	r3, [r7, #12]
 2443 002a 93F85130 		ldrb	r3, [r3, #81]
 2444 002e DBB2     		uxtb	r3, r3
 2445              		.loc 1 1645 6 discriminator 2
 2446 0030 012B     		cmp	r3, #1
 2447 0032 02D0     		beq	.L134
1646:Drivers/STM32F1xx_HAL_Driver/Src/stm32f1xx_hal_spi.c ****   {
1647:Drivers/STM32F1xx_HAL_Driver/Src/stm32f1xx_hal_spi.c ****     errorcode = HAL_BUSY;
 2448              		.loc 1 1647 15
 2449 0034 0223     		movs	r3, #2
 2450 0036 FB75     		strb	r3, [r7, #23]
1648:Drivers/STM32F1xx_HAL_Driver/Src/stm32f1xx_hal_spi.c ****     goto error;
 2451              		.loc 1 1648 5
 2452 0038 81E0     		b	.L135
 2453              	.L134:
1649:Drivers/STM32F1xx_HAL_Driver/Src/stm32f1xx_hal_spi.c ****   }
1650:Drivers/STM32F1xx_HAL_Driver/Src/stm32f1xx_hal_spi.c **** 
1651:Drivers/STM32F1xx_HAL_Driver/Src/stm32f1xx_hal_spi.c ****   if ((pData == NULL) || (Size == 0U))
 2454              		.loc 1 1651 6
 2455 003a BB68     		ldr	r3, [r7, #8]
 2456 003c 002B     		cmp	r3, #0
 2457 003e 02D0     		beq	.L136
 2458              		.loc 1 1651 23 discriminator 1
ARM GAS  C:\Users\Alex\AppData\Local\Temp\ccfYuLQH.s 			page 73


 2459 0040 FB88     		ldrh	r3, [r7, #6]
 2460 0042 002B     		cmp	r3, #0
 2461 0044 02D1     		bne	.L137
 2462              	.L136:
1652:Drivers/STM32F1xx_HAL_Driver/Src/stm32f1xx_hal_spi.c ****   {
1653:Drivers/STM32F1xx_HAL_Driver/Src/stm32f1xx_hal_spi.c ****     errorcode = HAL_ERROR;
 2463              		.loc 1 1653 15
 2464 0046 0123     		movs	r3, #1
 2465 0048 FB75     		strb	r3, [r7, #23]
1654:Drivers/STM32F1xx_HAL_Driver/Src/stm32f1xx_hal_spi.c ****     goto error;
 2466              		.loc 1 1654 5
 2467 004a 78E0     		b	.L135
 2468              	.L137:
1655:Drivers/STM32F1xx_HAL_Driver/Src/stm32f1xx_hal_spi.c ****   }
1656:Drivers/STM32F1xx_HAL_Driver/Src/stm32f1xx_hal_spi.c **** 
1657:Drivers/STM32F1xx_HAL_Driver/Src/stm32f1xx_hal_spi.c ****   /* Set the transaction information */
1658:Drivers/STM32F1xx_HAL_Driver/Src/stm32f1xx_hal_spi.c ****   hspi->State       = HAL_SPI_STATE_BUSY_TX;
 2469              		.loc 1 1658 21
 2470 004c FB68     		ldr	r3, [r7, #12]
 2471 004e 0322     		movs	r2, #3
 2472 0050 83F85120 		strb	r2, [r3, #81]
1659:Drivers/STM32F1xx_HAL_Driver/Src/stm32f1xx_hal_spi.c ****   hspi->ErrorCode   = HAL_SPI_ERROR_NONE;
 2473              		.loc 1 1659 21
 2474 0054 FB68     		ldr	r3, [r7, #12]
 2475 0056 0022     		movs	r2, #0
 2476 0058 5A65     		str	r2, [r3, #84]
1660:Drivers/STM32F1xx_HAL_Driver/Src/stm32f1xx_hal_spi.c ****   hspi->pTxBuffPtr  = (uint8_t *)pData;
 2477              		.loc 1 1660 21
 2478 005a FB68     		ldr	r3, [r7, #12]
 2479 005c BA68     		ldr	r2, [r7, #8]
 2480 005e 1A63     		str	r2, [r3, #48]
1661:Drivers/STM32F1xx_HAL_Driver/Src/stm32f1xx_hal_spi.c ****   hspi->TxXferSize  = Size;
 2481              		.loc 1 1661 21
 2482 0060 FB68     		ldr	r3, [r7, #12]
 2483 0062 FA88     		ldrh	r2, [r7, #6]	@ movhi
 2484 0064 9A86     		strh	r2, [r3, #52]	@ movhi
1662:Drivers/STM32F1xx_HAL_Driver/Src/stm32f1xx_hal_spi.c ****   hspi->TxXferCount = Size;
 2485              		.loc 1 1662 21
 2486 0066 FB68     		ldr	r3, [r7, #12]
 2487 0068 FA88     		ldrh	r2, [r7, #6]	@ movhi
 2488 006a DA86     		strh	r2, [r3, #54]	@ movhi
1663:Drivers/STM32F1xx_HAL_Driver/Src/stm32f1xx_hal_spi.c **** 
1664:Drivers/STM32F1xx_HAL_Driver/Src/stm32f1xx_hal_spi.c ****   /* Init field not used in handle to zero */
1665:Drivers/STM32F1xx_HAL_Driver/Src/stm32f1xx_hal_spi.c ****   hspi->pRxBuffPtr  = (uint8_t *)NULL;
 2489              		.loc 1 1665 21
 2490 006c FB68     		ldr	r3, [r7, #12]
 2491 006e 0022     		movs	r2, #0
 2492 0070 9A63     		str	r2, [r3, #56]
1666:Drivers/STM32F1xx_HAL_Driver/Src/stm32f1xx_hal_spi.c ****   hspi->TxISR       = NULL;
 2493              		.loc 1 1666 21
 2494 0072 FB68     		ldr	r3, [r7, #12]
 2495 0074 0022     		movs	r2, #0
 2496 0076 5A64     		str	r2, [r3, #68]
1667:Drivers/STM32F1xx_HAL_Driver/Src/stm32f1xx_hal_spi.c ****   hspi->RxISR       = NULL;
 2497              		.loc 1 1667 21
 2498 0078 FB68     		ldr	r3, [r7, #12]
 2499 007a 0022     		movs	r2, #0
ARM GAS  C:\Users\Alex\AppData\Local\Temp\ccfYuLQH.s 			page 74


 2500 007c 1A64     		str	r2, [r3, #64]
1668:Drivers/STM32F1xx_HAL_Driver/Src/stm32f1xx_hal_spi.c ****   hspi->RxXferSize  = 0U;
 2501              		.loc 1 1668 21
 2502 007e FB68     		ldr	r3, [r7, #12]
 2503 0080 0022     		movs	r2, #0
 2504 0082 9A87     		strh	r2, [r3, #60]	@ movhi
1669:Drivers/STM32F1xx_HAL_Driver/Src/stm32f1xx_hal_spi.c ****   hspi->RxXferCount = 0U;
 2505              		.loc 1 1669 21
 2506 0084 FB68     		ldr	r3, [r7, #12]
 2507 0086 0022     		movs	r2, #0
 2508 0088 DA87     		strh	r2, [r3, #62]	@ movhi
1670:Drivers/STM32F1xx_HAL_Driver/Src/stm32f1xx_hal_spi.c **** 
1671:Drivers/STM32F1xx_HAL_Driver/Src/stm32f1xx_hal_spi.c ****   /* Configure communication direction : 1Line */
1672:Drivers/STM32F1xx_HAL_Driver/Src/stm32f1xx_hal_spi.c ****   if (hspi->Init.Direction == SPI_DIRECTION_1LINE)
 2509              		.loc 1 1672 17
 2510 008a FB68     		ldr	r3, [r7, #12]
 2511 008c 9B68     		ldr	r3, [r3, #8]
 2512              		.loc 1 1672 6
 2513 008e B3F5004F 		cmp	r3, #32768
 2514 0092 07D1     		bne	.L138
1673:Drivers/STM32F1xx_HAL_Driver/Src/stm32f1xx_hal_spi.c ****   {
1674:Drivers/STM32F1xx_HAL_Driver/Src/stm32f1xx_hal_spi.c ****     SPI_1LINE_TX(hspi);
 2515              		.loc 1 1674 5
 2516 0094 FB68     		ldr	r3, [r7, #12]
 2517 0096 1B68     		ldr	r3, [r3]
 2518 0098 1A68     		ldr	r2, [r3]
 2519 009a FB68     		ldr	r3, [r7, #12]
 2520 009c 1B68     		ldr	r3, [r3]
 2521 009e 42F48042 		orr	r2, r2, #16384
 2522 00a2 1A60     		str	r2, [r3]
 2523              	.L138:
1675:Drivers/STM32F1xx_HAL_Driver/Src/stm32f1xx_hal_spi.c ****   }
1676:Drivers/STM32F1xx_HAL_Driver/Src/stm32f1xx_hal_spi.c **** 
1677:Drivers/STM32F1xx_HAL_Driver/Src/stm32f1xx_hal_spi.c **** #if (USE_SPI_CRC != 0U)
1678:Drivers/STM32F1xx_HAL_Driver/Src/stm32f1xx_hal_spi.c ****   /* Reset CRC Calculation */
1679:Drivers/STM32F1xx_HAL_Driver/Src/stm32f1xx_hal_spi.c ****   if (hspi->Init.CRCCalculation == SPI_CRCCALCULATION_ENABLE)
1680:Drivers/STM32F1xx_HAL_Driver/Src/stm32f1xx_hal_spi.c ****   {
1681:Drivers/STM32F1xx_HAL_Driver/Src/stm32f1xx_hal_spi.c ****     SPI_RESET_CRC(hspi);
1682:Drivers/STM32F1xx_HAL_Driver/Src/stm32f1xx_hal_spi.c ****   }
1683:Drivers/STM32F1xx_HAL_Driver/Src/stm32f1xx_hal_spi.c **** #endif /* USE_SPI_CRC */
1684:Drivers/STM32F1xx_HAL_Driver/Src/stm32f1xx_hal_spi.c **** 
1685:Drivers/STM32F1xx_HAL_Driver/Src/stm32f1xx_hal_spi.c ****   /* Set the SPI TxDMA Half transfer complete callback */
1686:Drivers/STM32F1xx_HAL_Driver/Src/stm32f1xx_hal_spi.c ****   hspi->hdmatx->XferHalfCpltCallback = SPI_DMAHalfTransmitCplt;
 2524              		.loc 1 1686 7
 2525 00a4 FB68     		ldr	r3, [r7, #12]
 2526 00a6 9B6C     		ldr	r3, [r3, #72]
 2527              		.loc 1 1686 38
 2528 00a8 294A     		ldr	r2, .L141
 2529 00aa DA62     		str	r2, [r3, #44]
1687:Drivers/STM32F1xx_HAL_Driver/Src/stm32f1xx_hal_spi.c **** 
1688:Drivers/STM32F1xx_HAL_Driver/Src/stm32f1xx_hal_spi.c ****   /* Set the SPI TxDMA transfer complete callback */
1689:Drivers/STM32F1xx_HAL_Driver/Src/stm32f1xx_hal_spi.c ****   hspi->hdmatx->XferCpltCallback = SPI_DMATransmitCplt;
 2530              		.loc 1 1689 7
 2531 00ac FB68     		ldr	r3, [r7, #12]
 2532 00ae 9B6C     		ldr	r3, [r3, #72]
 2533              		.loc 1 1689 34
 2534 00b0 284A     		ldr	r2, .L141+4
ARM GAS  C:\Users\Alex\AppData\Local\Temp\ccfYuLQH.s 			page 75


 2535 00b2 9A62     		str	r2, [r3, #40]
1690:Drivers/STM32F1xx_HAL_Driver/Src/stm32f1xx_hal_spi.c **** 
1691:Drivers/STM32F1xx_HAL_Driver/Src/stm32f1xx_hal_spi.c ****   /* Set the DMA error callback */
1692:Drivers/STM32F1xx_HAL_Driver/Src/stm32f1xx_hal_spi.c ****   hspi->hdmatx->XferErrorCallback = SPI_DMAError;
 2536              		.loc 1 1692 7
 2537 00b4 FB68     		ldr	r3, [r7, #12]
 2538 00b6 9B6C     		ldr	r3, [r3, #72]
 2539              		.loc 1 1692 35
 2540 00b8 274A     		ldr	r2, .L141+8
 2541 00ba 1A63     		str	r2, [r3, #48]
1693:Drivers/STM32F1xx_HAL_Driver/Src/stm32f1xx_hal_spi.c **** 
1694:Drivers/STM32F1xx_HAL_Driver/Src/stm32f1xx_hal_spi.c ****   /* Set the DMA AbortCpltCallback */
1695:Drivers/STM32F1xx_HAL_Driver/Src/stm32f1xx_hal_spi.c ****   hspi->hdmatx->XferAbortCallback = NULL;
 2542              		.loc 1 1695 7
 2543 00bc FB68     		ldr	r3, [r7, #12]
 2544 00be 9B6C     		ldr	r3, [r3, #72]
 2545              		.loc 1 1695 35
 2546 00c0 0022     		movs	r2, #0
 2547 00c2 5A63     		str	r2, [r3, #52]
1696:Drivers/STM32F1xx_HAL_Driver/Src/stm32f1xx_hal_spi.c **** 
1697:Drivers/STM32F1xx_HAL_Driver/Src/stm32f1xx_hal_spi.c ****   /* Enable the Tx DMA Stream/Channel */
1698:Drivers/STM32F1xx_HAL_Driver/Src/stm32f1xx_hal_spi.c ****   if (HAL_OK != HAL_DMA_Start_IT(hspi->hdmatx, (uint32_t)hspi->pTxBuffPtr, (uint32_t)&hspi->Instanc
 2548              		.loc 1 1698 17
 2549 00c4 FB68     		ldr	r3, [r7, #12]
 2550 00c6 986C     		ldr	r0, [r3, #72]
 2551              		.loc 1 1698 62
 2552 00c8 FB68     		ldr	r3, [r7, #12]
 2553 00ca 1B6B     		ldr	r3, [r3, #48]
 2554              		.loc 1 1698 17
 2555 00cc 1946     		mov	r1, r3
 2556              		.loc 1 1698 91
 2557 00ce FB68     		ldr	r3, [r7, #12]
 2558 00d0 1B68     		ldr	r3, [r3]
 2559              		.loc 1 1698 86
 2560 00d2 0C33     		adds	r3, r3, #12
 2561              		.loc 1 1698 17
 2562 00d4 1A46     		mov	r2, r3
1699:Drivers/STM32F1xx_HAL_Driver/Src/stm32f1xx_hal_spi.c ****                                  hspi->TxXferCount))
 2563              		.loc 1 1699 38
 2564 00d6 FB68     		ldr	r3, [r7, #12]
 2565 00d8 DB8E     		ldrh	r3, [r3, #54]	@ movhi
 2566 00da 9BB2     		uxth	r3, r3
1698:Drivers/STM32F1xx_HAL_Driver/Src/stm32f1xx_hal_spi.c ****                                  hspi->TxXferCount))
 2567              		.loc 1 1698 17
 2568 00dc FFF7FEFF 		bl	HAL_DMA_Start_IT
 2569 00e0 0346     		mov	r3, r0
1698:Drivers/STM32F1xx_HAL_Driver/Src/stm32f1xx_hal_spi.c ****                                  hspi->TxXferCount))
 2570              		.loc 1 1698 6
 2571 00e2 002B     		cmp	r3, #0
 2572 00e4 0CD0     		beq	.L139
1700:Drivers/STM32F1xx_HAL_Driver/Src/stm32f1xx_hal_spi.c ****   {
1701:Drivers/STM32F1xx_HAL_Driver/Src/stm32f1xx_hal_spi.c ****     /* Update SPI error code */
1702:Drivers/STM32F1xx_HAL_Driver/Src/stm32f1xx_hal_spi.c ****     SET_BIT(hspi->ErrorCode, HAL_SPI_ERROR_DMA);
 2573              		.loc 1 1702 5
 2574 00e6 FB68     		ldr	r3, [r7, #12]
 2575 00e8 5B6D     		ldr	r3, [r3, #84]
 2576 00ea 43F01002 		orr	r2, r3, #16
ARM GAS  C:\Users\Alex\AppData\Local\Temp\ccfYuLQH.s 			page 76


 2577 00ee FB68     		ldr	r3, [r7, #12]
 2578 00f0 5A65     		str	r2, [r3, #84]
1703:Drivers/STM32F1xx_HAL_Driver/Src/stm32f1xx_hal_spi.c ****     errorcode = HAL_ERROR;
 2579              		.loc 1 1703 15
 2580 00f2 0123     		movs	r3, #1
 2581 00f4 FB75     		strb	r3, [r7, #23]
1704:Drivers/STM32F1xx_HAL_Driver/Src/stm32f1xx_hal_spi.c **** 
1705:Drivers/STM32F1xx_HAL_Driver/Src/stm32f1xx_hal_spi.c ****     hspi->State = HAL_SPI_STATE_READY;
 2582              		.loc 1 1705 17
 2583 00f6 FB68     		ldr	r3, [r7, #12]
 2584 00f8 0122     		movs	r2, #1
 2585 00fa 83F85120 		strb	r2, [r3, #81]
1706:Drivers/STM32F1xx_HAL_Driver/Src/stm32f1xx_hal_spi.c ****     goto error;
 2586              		.loc 1 1706 5
 2587 00fe 1EE0     		b	.L135
 2588              	.L139:
1707:Drivers/STM32F1xx_HAL_Driver/Src/stm32f1xx_hal_spi.c ****   }
1708:Drivers/STM32F1xx_HAL_Driver/Src/stm32f1xx_hal_spi.c **** 
1709:Drivers/STM32F1xx_HAL_Driver/Src/stm32f1xx_hal_spi.c ****   /* Check if the SPI is already enabled */
1710:Drivers/STM32F1xx_HAL_Driver/Src/stm32f1xx_hal_spi.c ****   if ((hspi->Instance->CR1 & SPI_CR1_SPE) != SPI_CR1_SPE)
 2589              		.loc 1 1710 12
 2590 0100 FB68     		ldr	r3, [r7, #12]
 2591 0102 1B68     		ldr	r3, [r3]
 2592              		.loc 1 1710 22
 2593 0104 1B68     		ldr	r3, [r3]
 2594              		.loc 1 1710 28
 2595 0106 03F04003 		and	r3, r3, #64
 2596              		.loc 1 1710 6
 2597 010a 402B     		cmp	r3, #64
 2598 010c 07D0     		beq	.L140
1711:Drivers/STM32F1xx_HAL_Driver/Src/stm32f1xx_hal_spi.c ****   {
1712:Drivers/STM32F1xx_HAL_Driver/Src/stm32f1xx_hal_spi.c ****     /* Enable SPI peripheral */
1713:Drivers/STM32F1xx_HAL_Driver/Src/stm32f1xx_hal_spi.c ****     __HAL_SPI_ENABLE(hspi);
 2599              		.loc 1 1713 5
 2600 010e FB68     		ldr	r3, [r7, #12]
 2601 0110 1B68     		ldr	r3, [r3]
 2602 0112 1A68     		ldr	r2, [r3]
 2603 0114 FB68     		ldr	r3, [r7, #12]
 2604 0116 1B68     		ldr	r3, [r3]
 2605 0118 42F04002 		orr	r2, r2, #64
 2606 011c 1A60     		str	r2, [r3]
 2607              	.L140:
1714:Drivers/STM32F1xx_HAL_Driver/Src/stm32f1xx_hal_spi.c ****   }
1715:Drivers/STM32F1xx_HAL_Driver/Src/stm32f1xx_hal_spi.c **** 
1716:Drivers/STM32F1xx_HAL_Driver/Src/stm32f1xx_hal_spi.c ****   /* Enable the SPI Error Interrupt Bit */
1717:Drivers/STM32F1xx_HAL_Driver/Src/stm32f1xx_hal_spi.c ****   __HAL_SPI_ENABLE_IT(hspi, (SPI_IT_ERR));
 2608              		.loc 1 1717 3
 2609 011e FB68     		ldr	r3, [r7, #12]
 2610 0120 1B68     		ldr	r3, [r3]
 2611 0122 5A68     		ldr	r2, [r3, #4]
 2612 0124 FB68     		ldr	r3, [r7, #12]
 2613 0126 1B68     		ldr	r3, [r3]
 2614 0128 42F02002 		orr	r2, r2, #32
 2615 012c 5A60     		str	r2, [r3, #4]
1718:Drivers/STM32F1xx_HAL_Driver/Src/stm32f1xx_hal_spi.c **** 
1719:Drivers/STM32F1xx_HAL_Driver/Src/stm32f1xx_hal_spi.c ****   /* Enable Tx DMA Request */
1720:Drivers/STM32F1xx_HAL_Driver/Src/stm32f1xx_hal_spi.c ****   SET_BIT(hspi->Instance->CR2, SPI_CR2_TXDMAEN);
ARM GAS  C:\Users\Alex\AppData\Local\Temp\ccfYuLQH.s 			page 77


 2616              		.loc 1 1720 3
 2617 012e FB68     		ldr	r3, [r7, #12]
 2618 0130 1B68     		ldr	r3, [r3]
 2619 0132 5A68     		ldr	r2, [r3, #4]
 2620 0134 FB68     		ldr	r3, [r7, #12]
 2621 0136 1B68     		ldr	r3, [r3]
 2622 0138 42F00202 		orr	r2, r2, #2
 2623 013c 5A60     		str	r2, [r3, #4]
 2624              	.L135:
1721:Drivers/STM32F1xx_HAL_Driver/Src/stm32f1xx_hal_spi.c **** 
1722:Drivers/STM32F1xx_HAL_Driver/Src/stm32f1xx_hal_spi.c **** error :
1723:Drivers/STM32F1xx_HAL_Driver/Src/stm32f1xx_hal_spi.c ****   /* Process Unlocked */
1724:Drivers/STM32F1xx_HAL_Driver/Src/stm32f1xx_hal_spi.c ****   __HAL_UNLOCK(hspi);
 2625              		.loc 1 1724 3
 2626 013e FB68     		ldr	r3, [r7, #12]
 2627 0140 0022     		movs	r2, #0
 2628 0142 83F85020 		strb	r2, [r3, #80]
1725:Drivers/STM32F1xx_HAL_Driver/Src/stm32f1xx_hal_spi.c ****   return errorcode;
 2629              		.loc 1 1725 10
 2630 0146 FB7D     		ldrb	r3, [r7, #23]	@ zero_extendqisi2
 2631              	.L133:
1726:Drivers/STM32F1xx_HAL_Driver/Src/stm32f1xx_hal_spi.c **** }
 2632              		.loc 1 1726 1
 2633 0148 1846     		mov	r0, r3
 2634 014a 1837     		adds	r7, r7, #24
 2635              	.LCFI57:
 2636              		.cfi_def_cfa_offset 8
 2637 014c BD46     		mov	sp, r7
 2638              	.LCFI58:
 2639              		.cfi_def_cfa_register 13
 2640              		@ sp needed
 2641 014e 80BD     		pop	{r7, pc}
 2642              	.L142:
 2643              		.align	2
 2644              	.L141:
 2645 0150 00000000 		.word	SPI_DMAHalfTransmitCplt
 2646 0154 00000000 		.word	SPI_DMATransmitCplt
 2647 0158 00000000 		.word	SPI_DMAError
 2648              		.cfi_endproc
 2649              	.LFE75:
 2651              		.section	.text.HAL_SPI_Receive_DMA,"ax",%progbits
 2652              		.align	1
 2653              		.global	HAL_SPI_Receive_DMA
 2654              		.syntax unified
 2655              		.thumb
 2656              		.thumb_func
 2657              		.fpu softvfp
 2659              	HAL_SPI_Receive_DMA:
 2660              	.LFB76:
1727:Drivers/STM32F1xx_HAL_Driver/Src/stm32f1xx_hal_spi.c **** 
1728:Drivers/STM32F1xx_HAL_Driver/Src/stm32f1xx_hal_spi.c **** /**
1729:Drivers/STM32F1xx_HAL_Driver/Src/stm32f1xx_hal_spi.c ****   * @brief  Receive an amount of data in non-blocking mode with DMA.
1730:Drivers/STM32F1xx_HAL_Driver/Src/stm32f1xx_hal_spi.c ****   * @note   In case of MASTER mode and SPI_DIRECTION_2LINES direction, hdmatx shall be defined.
1731:Drivers/STM32F1xx_HAL_Driver/Src/stm32f1xx_hal_spi.c ****   * @param  hspi pointer to a SPI_HandleTypeDef structure that contains
1732:Drivers/STM32F1xx_HAL_Driver/Src/stm32f1xx_hal_spi.c ****   *               the configuration information for SPI module.
1733:Drivers/STM32F1xx_HAL_Driver/Src/stm32f1xx_hal_spi.c ****   * @param  pData pointer to data buffer
1734:Drivers/STM32F1xx_HAL_Driver/Src/stm32f1xx_hal_spi.c ****   * @note   When the CRC feature is enabled the pData Length must be Size + 1.
ARM GAS  C:\Users\Alex\AppData\Local\Temp\ccfYuLQH.s 			page 78


1735:Drivers/STM32F1xx_HAL_Driver/Src/stm32f1xx_hal_spi.c ****   * @param  Size amount of data to be sent
1736:Drivers/STM32F1xx_HAL_Driver/Src/stm32f1xx_hal_spi.c ****   * @retval HAL status
1737:Drivers/STM32F1xx_HAL_Driver/Src/stm32f1xx_hal_spi.c ****   */
1738:Drivers/STM32F1xx_HAL_Driver/Src/stm32f1xx_hal_spi.c **** HAL_StatusTypeDef HAL_SPI_Receive_DMA(SPI_HandleTypeDef *hspi, uint8_t *pData, uint16_t Size)
1739:Drivers/STM32F1xx_HAL_Driver/Src/stm32f1xx_hal_spi.c **** {
 2661              		.loc 1 1739 1
 2662              		.cfi_startproc
 2663              		@ args = 0, pretend = 0, frame = 24
 2664              		@ frame_needed = 1, uses_anonymous_args = 0
 2665 0000 80B5     		push	{r7, lr}
 2666              	.LCFI59:
 2667              		.cfi_def_cfa_offset 8
 2668              		.cfi_offset 7, -8
 2669              		.cfi_offset 14, -4
 2670 0002 86B0     		sub	sp, sp, #24
 2671              	.LCFI60:
 2672              		.cfi_def_cfa_offset 32
 2673 0004 00AF     		add	r7, sp, #0
 2674              	.LCFI61:
 2675              		.cfi_def_cfa_register 7
 2676 0006 F860     		str	r0, [r7, #12]
 2677 0008 B960     		str	r1, [r7, #8]
 2678 000a 1346     		mov	r3, r2
 2679 000c FB80     		strh	r3, [r7, #6]	@ movhi
1740:Drivers/STM32F1xx_HAL_Driver/Src/stm32f1xx_hal_spi.c ****   HAL_StatusTypeDef errorcode = HAL_OK;
 2680              		.loc 1 1740 21
 2681 000e 0023     		movs	r3, #0
 2682 0010 FB75     		strb	r3, [r7, #23]
1741:Drivers/STM32F1xx_HAL_Driver/Src/stm32f1xx_hal_spi.c **** 
1742:Drivers/STM32F1xx_HAL_Driver/Src/stm32f1xx_hal_spi.c ****   /* Check rx dma handle */
1743:Drivers/STM32F1xx_HAL_Driver/Src/stm32f1xx_hal_spi.c ****   assert_param(IS_SPI_DMA_HANDLE(hspi->hdmarx));
1744:Drivers/STM32F1xx_HAL_Driver/Src/stm32f1xx_hal_spi.c **** 
1745:Drivers/STM32F1xx_HAL_Driver/Src/stm32f1xx_hal_spi.c ****   if ((hspi->Init.Direction == SPI_DIRECTION_2LINES) && (hspi->Init.Mode == SPI_MODE_MASTER))
 2683              		.loc 1 1745 18
 2684 0012 FB68     		ldr	r3, [r7, #12]
 2685 0014 9B68     		ldr	r3, [r3, #8]
 2686              		.loc 1 1745 6
 2687 0016 002B     		cmp	r3, #0
 2688 0018 10D1     		bne	.L144
 2689              		.loc 1 1745 68 discriminator 1
 2690 001a FB68     		ldr	r3, [r7, #12]
 2691 001c 5B68     		ldr	r3, [r3, #4]
 2692              		.loc 1 1745 54 discriminator 1
 2693 001e B3F5827F 		cmp	r3, #260
 2694 0022 0BD1     		bne	.L144
1746:Drivers/STM32F1xx_HAL_Driver/Src/stm32f1xx_hal_spi.c ****   {
1747:Drivers/STM32F1xx_HAL_Driver/Src/stm32f1xx_hal_spi.c ****     hspi->State = HAL_SPI_STATE_BUSY_RX;
 2695              		.loc 1 1747 17
 2696 0024 FB68     		ldr	r3, [r7, #12]
 2697 0026 0422     		movs	r2, #4
 2698 0028 83F85120 		strb	r2, [r3, #81]
1748:Drivers/STM32F1xx_HAL_Driver/Src/stm32f1xx_hal_spi.c **** 
1749:Drivers/STM32F1xx_HAL_Driver/Src/stm32f1xx_hal_spi.c ****     /* Check tx dma handle */
1750:Drivers/STM32F1xx_HAL_Driver/Src/stm32f1xx_hal_spi.c ****     assert_param(IS_SPI_DMA_HANDLE(hspi->hdmatx));
1751:Drivers/STM32F1xx_HAL_Driver/Src/stm32f1xx_hal_spi.c **** 
1752:Drivers/STM32F1xx_HAL_Driver/Src/stm32f1xx_hal_spi.c ****     /* Call transmit-receive function to send Dummy data on Tx line and generate clock on CLK line 
1753:Drivers/STM32F1xx_HAL_Driver/Src/stm32f1xx_hal_spi.c ****     return HAL_SPI_TransmitReceive_DMA(hspi, pData, pData, Size);
ARM GAS  C:\Users\Alex\AppData\Local\Temp\ccfYuLQH.s 			page 79


 2699              		.loc 1 1753 12
 2700 002c FB88     		ldrh	r3, [r7, #6]
 2701 002e BA68     		ldr	r2, [r7, #8]
 2702 0030 B968     		ldr	r1, [r7, #8]
 2703 0032 F868     		ldr	r0, [r7, #12]
 2704 0034 FFF7FEFF 		bl	HAL_SPI_TransmitReceive_DMA
 2705 0038 0346     		mov	r3, r0
 2706 003a 97E0     		b	.L145
 2707              	.L144:
1754:Drivers/STM32F1xx_HAL_Driver/Src/stm32f1xx_hal_spi.c ****   }
1755:Drivers/STM32F1xx_HAL_Driver/Src/stm32f1xx_hal_spi.c **** 
1756:Drivers/STM32F1xx_HAL_Driver/Src/stm32f1xx_hal_spi.c ****   /* Process Locked */
1757:Drivers/STM32F1xx_HAL_Driver/Src/stm32f1xx_hal_spi.c ****   __HAL_LOCK(hspi);
 2708              		.loc 1 1757 3
 2709 003c FB68     		ldr	r3, [r7, #12]
 2710 003e 93F85030 		ldrb	r3, [r3, #80]	@ zero_extendqisi2
 2711 0042 012B     		cmp	r3, #1
 2712 0044 01D1     		bne	.L146
 2713              		.loc 1 1757 3 is_stmt 0 discriminator 1
 2714 0046 0223     		movs	r3, #2
 2715 0048 90E0     		b	.L145
 2716              	.L146:
 2717              		.loc 1 1757 3 discriminator 2
 2718 004a FB68     		ldr	r3, [r7, #12]
 2719 004c 0122     		movs	r2, #1
 2720 004e 83F85020 		strb	r2, [r3, #80]
1758:Drivers/STM32F1xx_HAL_Driver/Src/stm32f1xx_hal_spi.c **** 
1759:Drivers/STM32F1xx_HAL_Driver/Src/stm32f1xx_hal_spi.c ****   if (hspi->State != HAL_SPI_STATE_READY)
 2721              		.loc 1 1759 11 is_stmt 1 discriminator 2
 2722 0052 FB68     		ldr	r3, [r7, #12]
 2723 0054 93F85130 		ldrb	r3, [r3, #81]
 2724 0058 DBB2     		uxtb	r3, r3
 2725              		.loc 1 1759 6 discriminator 2
 2726 005a 012B     		cmp	r3, #1
 2727 005c 02D0     		beq	.L147
1760:Drivers/STM32F1xx_HAL_Driver/Src/stm32f1xx_hal_spi.c ****   {
1761:Drivers/STM32F1xx_HAL_Driver/Src/stm32f1xx_hal_spi.c ****     errorcode = HAL_BUSY;
 2728              		.loc 1 1761 15
 2729 005e 0223     		movs	r3, #2
 2730 0060 FB75     		strb	r3, [r7, #23]
1762:Drivers/STM32F1xx_HAL_Driver/Src/stm32f1xx_hal_spi.c ****     goto error;
 2731              		.loc 1 1762 5
 2732 0062 7EE0     		b	.L148
 2733              	.L147:
1763:Drivers/STM32F1xx_HAL_Driver/Src/stm32f1xx_hal_spi.c ****   }
1764:Drivers/STM32F1xx_HAL_Driver/Src/stm32f1xx_hal_spi.c **** 
1765:Drivers/STM32F1xx_HAL_Driver/Src/stm32f1xx_hal_spi.c ****   if ((pData == NULL) || (Size == 0U))
 2734              		.loc 1 1765 6
 2735 0064 BB68     		ldr	r3, [r7, #8]
 2736 0066 002B     		cmp	r3, #0
 2737 0068 02D0     		beq	.L149
 2738              		.loc 1 1765 23 discriminator 1
 2739 006a FB88     		ldrh	r3, [r7, #6]
 2740 006c 002B     		cmp	r3, #0
 2741 006e 02D1     		bne	.L150
 2742              	.L149:
1766:Drivers/STM32F1xx_HAL_Driver/Src/stm32f1xx_hal_spi.c ****   {
ARM GAS  C:\Users\Alex\AppData\Local\Temp\ccfYuLQH.s 			page 80


1767:Drivers/STM32F1xx_HAL_Driver/Src/stm32f1xx_hal_spi.c ****     errorcode = HAL_ERROR;
 2743              		.loc 1 1767 15
 2744 0070 0123     		movs	r3, #1
 2745 0072 FB75     		strb	r3, [r7, #23]
1768:Drivers/STM32F1xx_HAL_Driver/Src/stm32f1xx_hal_spi.c ****     goto error;
 2746              		.loc 1 1768 5
 2747 0074 75E0     		b	.L148
 2748              	.L150:
1769:Drivers/STM32F1xx_HAL_Driver/Src/stm32f1xx_hal_spi.c ****   }
1770:Drivers/STM32F1xx_HAL_Driver/Src/stm32f1xx_hal_spi.c **** 
1771:Drivers/STM32F1xx_HAL_Driver/Src/stm32f1xx_hal_spi.c ****   /* Set the transaction information */
1772:Drivers/STM32F1xx_HAL_Driver/Src/stm32f1xx_hal_spi.c ****   hspi->State       = HAL_SPI_STATE_BUSY_RX;
 2749              		.loc 1 1772 21
 2750 0076 FB68     		ldr	r3, [r7, #12]
 2751 0078 0422     		movs	r2, #4
 2752 007a 83F85120 		strb	r2, [r3, #81]
1773:Drivers/STM32F1xx_HAL_Driver/Src/stm32f1xx_hal_spi.c ****   hspi->ErrorCode   = HAL_SPI_ERROR_NONE;
 2753              		.loc 1 1773 21
 2754 007e FB68     		ldr	r3, [r7, #12]
 2755 0080 0022     		movs	r2, #0
 2756 0082 5A65     		str	r2, [r3, #84]
1774:Drivers/STM32F1xx_HAL_Driver/Src/stm32f1xx_hal_spi.c ****   hspi->pRxBuffPtr  = (uint8_t *)pData;
 2757              		.loc 1 1774 21
 2758 0084 FB68     		ldr	r3, [r7, #12]
 2759 0086 BA68     		ldr	r2, [r7, #8]
 2760 0088 9A63     		str	r2, [r3, #56]
1775:Drivers/STM32F1xx_HAL_Driver/Src/stm32f1xx_hal_spi.c ****   hspi->RxXferSize  = Size;
 2761              		.loc 1 1775 21
 2762 008a FB68     		ldr	r3, [r7, #12]
 2763 008c FA88     		ldrh	r2, [r7, #6]	@ movhi
 2764 008e 9A87     		strh	r2, [r3, #60]	@ movhi
1776:Drivers/STM32F1xx_HAL_Driver/Src/stm32f1xx_hal_spi.c ****   hspi->RxXferCount = Size;
 2765              		.loc 1 1776 21
 2766 0090 FB68     		ldr	r3, [r7, #12]
 2767 0092 FA88     		ldrh	r2, [r7, #6]	@ movhi
 2768 0094 DA87     		strh	r2, [r3, #62]	@ movhi
1777:Drivers/STM32F1xx_HAL_Driver/Src/stm32f1xx_hal_spi.c **** 
1778:Drivers/STM32F1xx_HAL_Driver/Src/stm32f1xx_hal_spi.c ****   /*Init field not used in handle to zero */
1779:Drivers/STM32F1xx_HAL_Driver/Src/stm32f1xx_hal_spi.c ****   hspi->RxISR       = NULL;
 2769              		.loc 1 1779 21
 2770 0096 FB68     		ldr	r3, [r7, #12]
 2771 0098 0022     		movs	r2, #0
 2772 009a 1A64     		str	r2, [r3, #64]
1780:Drivers/STM32F1xx_HAL_Driver/Src/stm32f1xx_hal_spi.c ****   hspi->TxISR       = NULL;
 2773              		.loc 1 1780 21
 2774 009c FB68     		ldr	r3, [r7, #12]
 2775 009e 0022     		movs	r2, #0
 2776 00a0 5A64     		str	r2, [r3, #68]
1781:Drivers/STM32F1xx_HAL_Driver/Src/stm32f1xx_hal_spi.c ****   hspi->TxXferSize  = 0U;
 2777              		.loc 1 1781 21
 2778 00a2 FB68     		ldr	r3, [r7, #12]
 2779 00a4 0022     		movs	r2, #0
 2780 00a6 9A86     		strh	r2, [r3, #52]	@ movhi
1782:Drivers/STM32F1xx_HAL_Driver/Src/stm32f1xx_hal_spi.c ****   hspi->TxXferCount = 0U;
 2781              		.loc 1 1782 21
 2782 00a8 FB68     		ldr	r3, [r7, #12]
 2783 00aa 0022     		movs	r2, #0
ARM GAS  C:\Users\Alex\AppData\Local\Temp\ccfYuLQH.s 			page 81


 2784 00ac DA86     		strh	r2, [r3, #54]	@ movhi
1783:Drivers/STM32F1xx_HAL_Driver/Src/stm32f1xx_hal_spi.c **** 
1784:Drivers/STM32F1xx_HAL_Driver/Src/stm32f1xx_hal_spi.c ****   /* Configure communication direction : 1Line */
1785:Drivers/STM32F1xx_HAL_Driver/Src/stm32f1xx_hal_spi.c ****   if (hspi->Init.Direction == SPI_DIRECTION_1LINE)
 2785              		.loc 1 1785 17
 2786 00ae FB68     		ldr	r3, [r7, #12]
 2787 00b0 9B68     		ldr	r3, [r3, #8]
 2788              		.loc 1 1785 6
 2789 00b2 B3F5004F 		cmp	r3, #32768
 2790 00b6 07D1     		bne	.L151
1786:Drivers/STM32F1xx_HAL_Driver/Src/stm32f1xx_hal_spi.c ****   {
1787:Drivers/STM32F1xx_HAL_Driver/Src/stm32f1xx_hal_spi.c ****     SPI_1LINE_RX(hspi);
 2791              		.loc 1 1787 5
 2792 00b8 FB68     		ldr	r3, [r7, #12]
 2793 00ba 1B68     		ldr	r3, [r3]
 2794 00bc 1A68     		ldr	r2, [r3]
 2795 00be FB68     		ldr	r3, [r7, #12]
 2796 00c0 1B68     		ldr	r3, [r3]
 2797 00c2 22F48042 		bic	r2, r2, #16384
 2798 00c6 1A60     		str	r2, [r3]
 2799              	.L151:
1788:Drivers/STM32F1xx_HAL_Driver/Src/stm32f1xx_hal_spi.c ****   }
1789:Drivers/STM32F1xx_HAL_Driver/Src/stm32f1xx_hal_spi.c **** 
1790:Drivers/STM32F1xx_HAL_Driver/Src/stm32f1xx_hal_spi.c **** #if (USE_SPI_CRC != 0U)
1791:Drivers/STM32F1xx_HAL_Driver/Src/stm32f1xx_hal_spi.c ****   /* Reset CRC Calculation */
1792:Drivers/STM32F1xx_HAL_Driver/Src/stm32f1xx_hal_spi.c ****   if (hspi->Init.CRCCalculation == SPI_CRCCALCULATION_ENABLE)
1793:Drivers/STM32F1xx_HAL_Driver/Src/stm32f1xx_hal_spi.c ****   {
1794:Drivers/STM32F1xx_HAL_Driver/Src/stm32f1xx_hal_spi.c ****     SPI_RESET_CRC(hspi);
1795:Drivers/STM32F1xx_HAL_Driver/Src/stm32f1xx_hal_spi.c ****   }
1796:Drivers/STM32F1xx_HAL_Driver/Src/stm32f1xx_hal_spi.c **** #endif /* USE_SPI_CRC */
1797:Drivers/STM32F1xx_HAL_Driver/Src/stm32f1xx_hal_spi.c **** 
1798:Drivers/STM32F1xx_HAL_Driver/Src/stm32f1xx_hal_spi.c ****   /* Set the SPI RxDMA Half transfer complete callback */
1799:Drivers/STM32F1xx_HAL_Driver/Src/stm32f1xx_hal_spi.c ****   hspi->hdmarx->XferHalfCpltCallback = SPI_DMAHalfReceiveCplt;
 2800              		.loc 1 1799 7
 2801 00c8 FB68     		ldr	r3, [r7, #12]
 2802 00ca DB6C     		ldr	r3, [r3, #76]
 2803              		.loc 1 1799 38
 2804 00cc 294A     		ldr	r2, .L154
 2805 00ce DA62     		str	r2, [r3, #44]
1800:Drivers/STM32F1xx_HAL_Driver/Src/stm32f1xx_hal_spi.c **** 
1801:Drivers/STM32F1xx_HAL_Driver/Src/stm32f1xx_hal_spi.c ****   /* Set the SPI Rx DMA transfer complete callback */
1802:Drivers/STM32F1xx_HAL_Driver/Src/stm32f1xx_hal_spi.c ****   hspi->hdmarx->XferCpltCallback = SPI_DMAReceiveCplt;
 2806              		.loc 1 1802 7
 2807 00d0 FB68     		ldr	r3, [r7, #12]
 2808 00d2 DB6C     		ldr	r3, [r3, #76]
 2809              		.loc 1 1802 34
 2810 00d4 284A     		ldr	r2, .L154+4
 2811 00d6 9A62     		str	r2, [r3, #40]
1803:Drivers/STM32F1xx_HAL_Driver/Src/stm32f1xx_hal_spi.c **** 
1804:Drivers/STM32F1xx_HAL_Driver/Src/stm32f1xx_hal_spi.c ****   /* Set the DMA error callback */
1805:Drivers/STM32F1xx_HAL_Driver/Src/stm32f1xx_hal_spi.c ****   hspi->hdmarx->XferErrorCallback = SPI_DMAError;
 2812              		.loc 1 1805 7
 2813 00d8 FB68     		ldr	r3, [r7, #12]
 2814 00da DB6C     		ldr	r3, [r3, #76]
 2815              		.loc 1 1805 35
 2816 00dc 274A     		ldr	r2, .L154+8
 2817 00de 1A63     		str	r2, [r3, #48]
ARM GAS  C:\Users\Alex\AppData\Local\Temp\ccfYuLQH.s 			page 82


1806:Drivers/STM32F1xx_HAL_Driver/Src/stm32f1xx_hal_spi.c **** 
1807:Drivers/STM32F1xx_HAL_Driver/Src/stm32f1xx_hal_spi.c ****   /* Set the DMA AbortCpltCallback */
1808:Drivers/STM32F1xx_HAL_Driver/Src/stm32f1xx_hal_spi.c ****   hspi->hdmarx->XferAbortCallback = NULL;
 2818              		.loc 1 1808 7
 2819 00e0 FB68     		ldr	r3, [r7, #12]
 2820 00e2 DB6C     		ldr	r3, [r3, #76]
 2821              		.loc 1 1808 35
 2822 00e4 0022     		movs	r2, #0
 2823 00e6 5A63     		str	r2, [r3, #52]
1809:Drivers/STM32F1xx_HAL_Driver/Src/stm32f1xx_hal_spi.c **** 
1810:Drivers/STM32F1xx_HAL_Driver/Src/stm32f1xx_hal_spi.c ****   /* Enable the Rx DMA Stream/Channel  */
1811:Drivers/STM32F1xx_HAL_Driver/Src/stm32f1xx_hal_spi.c ****   if (HAL_OK != HAL_DMA_Start_IT(hspi->hdmarx, (uint32_t)&hspi->Instance->DR, (uint32_t)hspi->pRxBu
 2824              		.loc 1 1811 17
 2825 00e8 FB68     		ldr	r3, [r7, #12]
 2826 00ea D86C     		ldr	r0, [r3, #76]
 2827              		.loc 1 1811 63
 2828 00ec FB68     		ldr	r3, [r7, #12]
 2829 00ee 1B68     		ldr	r3, [r3]
 2830              		.loc 1 1811 58
 2831 00f0 0C33     		adds	r3, r3, #12
 2832              		.loc 1 1811 17
 2833 00f2 1946     		mov	r1, r3
 2834              		.loc 1 1811 93
 2835 00f4 FB68     		ldr	r3, [r7, #12]
 2836 00f6 9B6B     		ldr	r3, [r3, #56]
 2837              		.loc 1 1811 17
 2838 00f8 1A46     		mov	r2, r3
1812:Drivers/STM32F1xx_HAL_Driver/Src/stm32f1xx_hal_spi.c ****                                  hspi->RxXferCount))
 2839              		.loc 1 1812 38
 2840 00fa FB68     		ldr	r3, [r7, #12]
 2841 00fc DB8F     		ldrh	r3, [r3, #62]	@ movhi
 2842 00fe 9BB2     		uxth	r3, r3
1811:Drivers/STM32F1xx_HAL_Driver/Src/stm32f1xx_hal_spi.c ****                                  hspi->RxXferCount))
 2843              		.loc 1 1811 17
 2844 0100 FFF7FEFF 		bl	HAL_DMA_Start_IT
 2845 0104 0346     		mov	r3, r0
1811:Drivers/STM32F1xx_HAL_Driver/Src/stm32f1xx_hal_spi.c ****                                  hspi->RxXferCount))
 2846              		.loc 1 1811 6
 2847 0106 002B     		cmp	r3, #0
 2848 0108 0CD0     		beq	.L152
1813:Drivers/STM32F1xx_HAL_Driver/Src/stm32f1xx_hal_spi.c ****   {
1814:Drivers/STM32F1xx_HAL_Driver/Src/stm32f1xx_hal_spi.c ****     /* Update SPI error code */
1815:Drivers/STM32F1xx_HAL_Driver/Src/stm32f1xx_hal_spi.c ****     SET_BIT(hspi->ErrorCode, HAL_SPI_ERROR_DMA);
 2849              		.loc 1 1815 5
 2850 010a FB68     		ldr	r3, [r7, #12]
 2851 010c 5B6D     		ldr	r3, [r3, #84]
 2852 010e 43F01002 		orr	r2, r3, #16
 2853 0112 FB68     		ldr	r3, [r7, #12]
 2854 0114 5A65     		str	r2, [r3, #84]
1816:Drivers/STM32F1xx_HAL_Driver/Src/stm32f1xx_hal_spi.c ****     errorcode = HAL_ERROR;
 2855              		.loc 1 1816 15
 2856 0116 0123     		movs	r3, #1
 2857 0118 FB75     		strb	r3, [r7, #23]
1817:Drivers/STM32F1xx_HAL_Driver/Src/stm32f1xx_hal_spi.c **** 
1818:Drivers/STM32F1xx_HAL_Driver/Src/stm32f1xx_hal_spi.c ****     hspi->State = HAL_SPI_STATE_READY;
 2858              		.loc 1 1818 17
 2859 011a FB68     		ldr	r3, [r7, #12]
ARM GAS  C:\Users\Alex\AppData\Local\Temp\ccfYuLQH.s 			page 83


 2860 011c 0122     		movs	r2, #1
 2861 011e 83F85120 		strb	r2, [r3, #81]
1819:Drivers/STM32F1xx_HAL_Driver/Src/stm32f1xx_hal_spi.c ****     goto error;
 2862              		.loc 1 1819 5
 2863 0122 1EE0     		b	.L148
 2864              	.L152:
1820:Drivers/STM32F1xx_HAL_Driver/Src/stm32f1xx_hal_spi.c ****   }
1821:Drivers/STM32F1xx_HAL_Driver/Src/stm32f1xx_hal_spi.c **** 
1822:Drivers/STM32F1xx_HAL_Driver/Src/stm32f1xx_hal_spi.c ****   /* Check if the SPI is already enabled */
1823:Drivers/STM32F1xx_HAL_Driver/Src/stm32f1xx_hal_spi.c ****   if ((hspi->Instance->CR1 & SPI_CR1_SPE) != SPI_CR1_SPE)
 2865              		.loc 1 1823 12
 2866 0124 FB68     		ldr	r3, [r7, #12]
 2867 0126 1B68     		ldr	r3, [r3]
 2868              		.loc 1 1823 22
 2869 0128 1B68     		ldr	r3, [r3]
 2870              		.loc 1 1823 28
 2871 012a 03F04003 		and	r3, r3, #64
 2872              		.loc 1 1823 6
 2873 012e 402B     		cmp	r3, #64
 2874 0130 07D0     		beq	.L153
1824:Drivers/STM32F1xx_HAL_Driver/Src/stm32f1xx_hal_spi.c ****   {
1825:Drivers/STM32F1xx_HAL_Driver/Src/stm32f1xx_hal_spi.c ****     /* Enable SPI peripheral */
1826:Drivers/STM32F1xx_HAL_Driver/Src/stm32f1xx_hal_spi.c ****     __HAL_SPI_ENABLE(hspi);
 2875              		.loc 1 1826 5
 2876 0132 FB68     		ldr	r3, [r7, #12]
 2877 0134 1B68     		ldr	r3, [r3]
 2878 0136 1A68     		ldr	r2, [r3]
 2879 0138 FB68     		ldr	r3, [r7, #12]
 2880 013a 1B68     		ldr	r3, [r3]
 2881 013c 42F04002 		orr	r2, r2, #64
 2882 0140 1A60     		str	r2, [r3]
 2883              	.L153:
1827:Drivers/STM32F1xx_HAL_Driver/Src/stm32f1xx_hal_spi.c ****   }
1828:Drivers/STM32F1xx_HAL_Driver/Src/stm32f1xx_hal_spi.c **** 
1829:Drivers/STM32F1xx_HAL_Driver/Src/stm32f1xx_hal_spi.c ****   /* Enable the SPI Error Interrupt Bit */
1830:Drivers/STM32F1xx_HAL_Driver/Src/stm32f1xx_hal_spi.c ****   __HAL_SPI_ENABLE_IT(hspi, (SPI_IT_ERR));
 2884              		.loc 1 1830 3
 2885 0142 FB68     		ldr	r3, [r7, #12]
 2886 0144 1B68     		ldr	r3, [r3]
 2887 0146 5A68     		ldr	r2, [r3, #4]
 2888 0148 FB68     		ldr	r3, [r7, #12]
 2889 014a 1B68     		ldr	r3, [r3]
 2890 014c 42F02002 		orr	r2, r2, #32
 2891 0150 5A60     		str	r2, [r3, #4]
1831:Drivers/STM32F1xx_HAL_Driver/Src/stm32f1xx_hal_spi.c **** 
1832:Drivers/STM32F1xx_HAL_Driver/Src/stm32f1xx_hal_spi.c ****   /* Enable Rx DMA Request */
1833:Drivers/STM32F1xx_HAL_Driver/Src/stm32f1xx_hal_spi.c ****   SET_BIT(hspi->Instance->CR2, SPI_CR2_RXDMAEN);
 2892              		.loc 1 1833 3
 2893 0152 FB68     		ldr	r3, [r7, #12]
 2894 0154 1B68     		ldr	r3, [r3]
 2895 0156 5A68     		ldr	r2, [r3, #4]
 2896 0158 FB68     		ldr	r3, [r7, #12]
 2897 015a 1B68     		ldr	r3, [r3]
 2898 015c 42F00102 		orr	r2, r2, #1
 2899 0160 5A60     		str	r2, [r3, #4]
 2900              	.L148:
1834:Drivers/STM32F1xx_HAL_Driver/Src/stm32f1xx_hal_spi.c **** 
ARM GAS  C:\Users\Alex\AppData\Local\Temp\ccfYuLQH.s 			page 84


1835:Drivers/STM32F1xx_HAL_Driver/Src/stm32f1xx_hal_spi.c **** error:
1836:Drivers/STM32F1xx_HAL_Driver/Src/stm32f1xx_hal_spi.c ****   /* Process Unlocked */
1837:Drivers/STM32F1xx_HAL_Driver/Src/stm32f1xx_hal_spi.c ****   __HAL_UNLOCK(hspi);
 2901              		.loc 1 1837 3
 2902 0162 FB68     		ldr	r3, [r7, #12]
 2903 0164 0022     		movs	r2, #0
 2904 0166 83F85020 		strb	r2, [r3, #80]
1838:Drivers/STM32F1xx_HAL_Driver/Src/stm32f1xx_hal_spi.c ****   return errorcode;
 2905              		.loc 1 1838 10
 2906 016a FB7D     		ldrb	r3, [r7, #23]	@ zero_extendqisi2
 2907              	.L145:
1839:Drivers/STM32F1xx_HAL_Driver/Src/stm32f1xx_hal_spi.c **** }
 2908              		.loc 1 1839 1
 2909 016c 1846     		mov	r0, r3
 2910 016e 1837     		adds	r7, r7, #24
 2911              	.LCFI62:
 2912              		.cfi_def_cfa_offset 8
 2913 0170 BD46     		mov	sp, r7
 2914              	.LCFI63:
 2915              		.cfi_def_cfa_register 13
 2916              		@ sp needed
 2917 0172 80BD     		pop	{r7, pc}
 2918              	.L155:
 2919              		.align	2
 2920              	.L154:
 2921 0174 00000000 		.word	SPI_DMAHalfReceiveCplt
 2922 0178 00000000 		.word	SPI_DMAReceiveCplt
 2923 017c 00000000 		.word	SPI_DMAError
 2924              		.cfi_endproc
 2925              	.LFE76:
 2927              		.section	.text.HAL_SPI_TransmitReceive_DMA,"ax",%progbits
 2928              		.align	1
 2929              		.global	HAL_SPI_TransmitReceive_DMA
 2930              		.syntax unified
 2931              		.thumb
 2932              		.thumb_func
 2933              		.fpu softvfp
 2935              	HAL_SPI_TransmitReceive_DMA:
 2936              	.LFB77:
1840:Drivers/STM32F1xx_HAL_Driver/Src/stm32f1xx_hal_spi.c **** 
1841:Drivers/STM32F1xx_HAL_Driver/Src/stm32f1xx_hal_spi.c **** /**
1842:Drivers/STM32F1xx_HAL_Driver/Src/stm32f1xx_hal_spi.c ****   * @brief  Transmit and Receive an amount of data in non-blocking mode with DMA.
1843:Drivers/STM32F1xx_HAL_Driver/Src/stm32f1xx_hal_spi.c ****   * @param  hspi pointer to a SPI_HandleTypeDef structure that contains
1844:Drivers/STM32F1xx_HAL_Driver/Src/stm32f1xx_hal_spi.c ****   *               the configuration information for SPI module.
1845:Drivers/STM32F1xx_HAL_Driver/Src/stm32f1xx_hal_spi.c ****   * @param  pTxData pointer to transmission data buffer
1846:Drivers/STM32F1xx_HAL_Driver/Src/stm32f1xx_hal_spi.c ****   * @param  pRxData pointer to reception data buffer
1847:Drivers/STM32F1xx_HAL_Driver/Src/stm32f1xx_hal_spi.c ****   * @note   When the CRC feature is enabled the pRxData Length must be Size + 1
1848:Drivers/STM32F1xx_HAL_Driver/Src/stm32f1xx_hal_spi.c ****   * @param  Size amount of data to be sent
1849:Drivers/STM32F1xx_HAL_Driver/Src/stm32f1xx_hal_spi.c ****   * @retval HAL status
1850:Drivers/STM32F1xx_HAL_Driver/Src/stm32f1xx_hal_spi.c ****   */
1851:Drivers/STM32F1xx_HAL_Driver/Src/stm32f1xx_hal_spi.c **** HAL_StatusTypeDef HAL_SPI_TransmitReceive_DMA(SPI_HandleTypeDef *hspi, uint8_t *pTxData, uint8_t *p
1852:Drivers/STM32F1xx_HAL_Driver/Src/stm32f1xx_hal_spi.c ****                                               uint16_t Size)
1853:Drivers/STM32F1xx_HAL_Driver/Src/stm32f1xx_hal_spi.c **** {
 2937              		.loc 1 1853 1
 2938              		.cfi_startproc
 2939              		@ args = 0, pretend = 0, frame = 24
 2940              		@ frame_needed = 1, uses_anonymous_args = 0
ARM GAS  C:\Users\Alex\AppData\Local\Temp\ccfYuLQH.s 			page 85


 2941 0000 80B5     		push	{r7, lr}
 2942              	.LCFI64:
 2943              		.cfi_def_cfa_offset 8
 2944              		.cfi_offset 7, -8
 2945              		.cfi_offset 14, -4
 2946 0002 86B0     		sub	sp, sp, #24
 2947              	.LCFI65:
 2948              		.cfi_def_cfa_offset 32
 2949 0004 00AF     		add	r7, sp, #0
 2950              	.LCFI66:
 2951              		.cfi_def_cfa_register 7
 2952 0006 F860     		str	r0, [r7, #12]
 2953 0008 B960     		str	r1, [r7, #8]
 2954 000a 7A60     		str	r2, [r7, #4]
 2955 000c 7B80     		strh	r3, [r7, #2]	@ movhi
1854:Drivers/STM32F1xx_HAL_Driver/Src/stm32f1xx_hal_spi.c ****   uint32_t             tmp_mode;
1855:Drivers/STM32F1xx_HAL_Driver/Src/stm32f1xx_hal_spi.c ****   HAL_SPI_StateTypeDef tmp_state;
1856:Drivers/STM32F1xx_HAL_Driver/Src/stm32f1xx_hal_spi.c ****   HAL_StatusTypeDef errorcode = HAL_OK;
 2956              		.loc 1 1856 21
 2957 000e 0023     		movs	r3, #0
 2958 0010 FB75     		strb	r3, [r7, #23]
1857:Drivers/STM32F1xx_HAL_Driver/Src/stm32f1xx_hal_spi.c **** 
1858:Drivers/STM32F1xx_HAL_Driver/Src/stm32f1xx_hal_spi.c ****   /* Check rx & tx dma handles */
1859:Drivers/STM32F1xx_HAL_Driver/Src/stm32f1xx_hal_spi.c ****   assert_param(IS_SPI_DMA_HANDLE(hspi->hdmarx));
1860:Drivers/STM32F1xx_HAL_Driver/Src/stm32f1xx_hal_spi.c ****   assert_param(IS_SPI_DMA_HANDLE(hspi->hdmatx));
1861:Drivers/STM32F1xx_HAL_Driver/Src/stm32f1xx_hal_spi.c **** 
1862:Drivers/STM32F1xx_HAL_Driver/Src/stm32f1xx_hal_spi.c ****   /* Check Direction parameter */
1863:Drivers/STM32F1xx_HAL_Driver/Src/stm32f1xx_hal_spi.c ****   assert_param(IS_SPI_DIRECTION_2LINES(hspi->Init.Direction));
1864:Drivers/STM32F1xx_HAL_Driver/Src/stm32f1xx_hal_spi.c **** 
1865:Drivers/STM32F1xx_HAL_Driver/Src/stm32f1xx_hal_spi.c ****   /* Process locked */
1866:Drivers/STM32F1xx_HAL_Driver/Src/stm32f1xx_hal_spi.c ****   __HAL_LOCK(hspi);
 2959              		.loc 1 1866 3
 2960 0012 FB68     		ldr	r3, [r7, #12]
 2961 0014 93F85030 		ldrb	r3, [r3, #80]	@ zero_extendqisi2
 2962 0018 012B     		cmp	r3, #1
 2963 001a 01D1     		bne	.L157
 2964              		.loc 1 1866 3 is_stmt 0 discriminator 1
 2965 001c 0223     		movs	r3, #2
 2966 001e E3E0     		b	.L158
 2967              	.L157:
 2968              		.loc 1 1866 3 discriminator 2
 2969 0020 FB68     		ldr	r3, [r7, #12]
 2970 0022 0122     		movs	r2, #1
 2971 0024 83F85020 		strb	r2, [r3, #80]
1867:Drivers/STM32F1xx_HAL_Driver/Src/stm32f1xx_hal_spi.c **** 
1868:Drivers/STM32F1xx_HAL_Driver/Src/stm32f1xx_hal_spi.c ****   /* Init temporary variables */
1869:Drivers/STM32F1xx_HAL_Driver/Src/stm32f1xx_hal_spi.c ****   tmp_state           = hspi->State;
 2972              		.loc 1 1869 23 is_stmt 1 discriminator 2
 2973 0028 FB68     		ldr	r3, [r7, #12]
 2974 002a 93F85130 		ldrb	r3, [r3, #81]
 2975 002e BB75     		strb	r3, [r7, #22]
1870:Drivers/STM32F1xx_HAL_Driver/Src/stm32f1xx_hal_spi.c ****   tmp_mode            = hspi->Init.Mode;
 2976              		.loc 1 1870 23 discriminator 2
 2977 0030 FB68     		ldr	r3, [r7, #12]
 2978 0032 5B68     		ldr	r3, [r3, #4]
 2979 0034 3B61     		str	r3, [r7, #16]
1871:Drivers/STM32F1xx_HAL_Driver/Src/stm32f1xx_hal_spi.c **** 
ARM GAS  C:\Users\Alex\AppData\Local\Temp\ccfYuLQH.s 			page 86


1872:Drivers/STM32F1xx_HAL_Driver/Src/stm32f1xx_hal_spi.c ****   if (!((tmp_state == HAL_SPI_STATE_READY) ||
 2980              		.loc 1 1872 6 discriminator 2
 2981 0036 BB7D     		ldrb	r3, [r7, #22]	@ zero_extendqisi2
 2982 0038 012B     		cmp	r3, #1
 2983 003a 0DD0     		beq	.L159
 2984              		.loc 1 1872 7 discriminator 1
 2985 003c 3B69     		ldr	r3, [r7, #16]
 2986 003e B3F5827F 		cmp	r3, #260
 2987 0042 06D1     		bne	.L160
1873:Drivers/STM32F1xx_HAL_Driver/Src/stm32f1xx_hal_spi.c ****         ((tmp_mode == SPI_MODE_MASTER) && (hspi->Init.Direction == SPI_DIRECTION_2LINES) && (tmp_st
 2988              		.loc 1 1873 54
 2989 0044 FB68     		ldr	r3, [r7, #12]
 2990 0046 9B68     		ldr	r3, [r3, #8]
 2991              		.loc 1 1873 40
 2992 0048 002B     		cmp	r3, #0
 2993 004a 02D1     		bne	.L160
 2994              		.loc 1 1873 90 discriminator 1
 2995 004c BB7D     		ldrb	r3, [r7, #22]	@ zero_extendqisi2
 2996 004e 042B     		cmp	r3, #4
 2997 0050 02D0     		beq	.L159
 2998              	.L160:
1874:Drivers/STM32F1xx_HAL_Driver/Src/stm32f1xx_hal_spi.c ****   {
1875:Drivers/STM32F1xx_HAL_Driver/Src/stm32f1xx_hal_spi.c ****     errorcode = HAL_BUSY;
 2999              		.loc 1 1875 15
 3000 0052 0223     		movs	r3, #2
 3001 0054 FB75     		strb	r3, [r7, #23]
1876:Drivers/STM32F1xx_HAL_Driver/Src/stm32f1xx_hal_spi.c ****     goto error;
 3002              		.loc 1 1876 5
 3003 0056 C2E0     		b	.L161
 3004              	.L159:
1877:Drivers/STM32F1xx_HAL_Driver/Src/stm32f1xx_hal_spi.c ****   }
1878:Drivers/STM32F1xx_HAL_Driver/Src/stm32f1xx_hal_spi.c **** 
1879:Drivers/STM32F1xx_HAL_Driver/Src/stm32f1xx_hal_spi.c ****   if ((pTxData == NULL) || (pRxData == NULL) || (Size == 0U))
 3005              		.loc 1 1879 6
 3006 0058 BB68     		ldr	r3, [r7, #8]
 3007 005a 002B     		cmp	r3, #0
 3008 005c 05D0     		beq	.L162
 3009              		.loc 1 1879 25 discriminator 1
 3010 005e 7B68     		ldr	r3, [r7, #4]
 3011 0060 002B     		cmp	r3, #0
 3012 0062 02D0     		beq	.L162
 3013              		.loc 1 1879 46 discriminator 2
 3014 0064 7B88     		ldrh	r3, [r7, #2]
 3015 0066 002B     		cmp	r3, #0
 3016 0068 02D1     		bne	.L163
 3017              	.L162:
1880:Drivers/STM32F1xx_HAL_Driver/Src/stm32f1xx_hal_spi.c ****   {
1881:Drivers/STM32F1xx_HAL_Driver/Src/stm32f1xx_hal_spi.c ****     errorcode = HAL_ERROR;
 3018              		.loc 1 1881 15
 3019 006a 0123     		movs	r3, #1
 3020 006c FB75     		strb	r3, [r7, #23]
1882:Drivers/STM32F1xx_HAL_Driver/Src/stm32f1xx_hal_spi.c ****     goto error;
 3021              		.loc 1 1882 5
 3022 006e B6E0     		b	.L161
 3023              	.L163:
1883:Drivers/STM32F1xx_HAL_Driver/Src/stm32f1xx_hal_spi.c ****   }
1884:Drivers/STM32F1xx_HAL_Driver/Src/stm32f1xx_hal_spi.c **** 
ARM GAS  C:\Users\Alex\AppData\Local\Temp\ccfYuLQH.s 			page 87


1885:Drivers/STM32F1xx_HAL_Driver/Src/stm32f1xx_hal_spi.c ****   /* Don't overwrite in case of HAL_SPI_STATE_BUSY_RX */
1886:Drivers/STM32F1xx_HAL_Driver/Src/stm32f1xx_hal_spi.c ****   if (hspi->State != HAL_SPI_STATE_BUSY_RX)
 3024              		.loc 1 1886 11
 3025 0070 FB68     		ldr	r3, [r7, #12]
 3026 0072 93F85130 		ldrb	r3, [r3, #81]
 3027 0076 DBB2     		uxtb	r3, r3
 3028              		.loc 1 1886 6
 3029 0078 042B     		cmp	r3, #4
 3030 007a 03D0     		beq	.L164
1887:Drivers/STM32F1xx_HAL_Driver/Src/stm32f1xx_hal_spi.c ****   {
1888:Drivers/STM32F1xx_HAL_Driver/Src/stm32f1xx_hal_spi.c ****     hspi->State = HAL_SPI_STATE_BUSY_TX_RX;
 3031              		.loc 1 1888 17
 3032 007c FB68     		ldr	r3, [r7, #12]
 3033 007e 0522     		movs	r2, #5
 3034 0080 83F85120 		strb	r2, [r3, #81]
 3035              	.L164:
1889:Drivers/STM32F1xx_HAL_Driver/Src/stm32f1xx_hal_spi.c ****   }
1890:Drivers/STM32F1xx_HAL_Driver/Src/stm32f1xx_hal_spi.c **** 
1891:Drivers/STM32F1xx_HAL_Driver/Src/stm32f1xx_hal_spi.c ****   /* Set the transaction information */
1892:Drivers/STM32F1xx_HAL_Driver/Src/stm32f1xx_hal_spi.c ****   hspi->ErrorCode   = HAL_SPI_ERROR_NONE;
 3036              		.loc 1 1892 21
 3037 0084 FB68     		ldr	r3, [r7, #12]
 3038 0086 0022     		movs	r2, #0
 3039 0088 5A65     		str	r2, [r3, #84]
1893:Drivers/STM32F1xx_HAL_Driver/Src/stm32f1xx_hal_spi.c ****   hspi->pTxBuffPtr  = (uint8_t *)pTxData;
 3040              		.loc 1 1893 21
 3041 008a FB68     		ldr	r3, [r7, #12]
 3042 008c BA68     		ldr	r2, [r7, #8]
 3043 008e 1A63     		str	r2, [r3, #48]
1894:Drivers/STM32F1xx_HAL_Driver/Src/stm32f1xx_hal_spi.c ****   hspi->TxXferSize  = Size;
 3044              		.loc 1 1894 21
 3045 0090 FB68     		ldr	r3, [r7, #12]
 3046 0092 7A88     		ldrh	r2, [r7, #2]	@ movhi
 3047 0094 9A86     		strh	r2, [r3, #52]	@ movhi
1895:Drivers/STM32F1xx_HAL_Driver/Src/stm32f1xx_hal_spi.c ****   hspi->TxXferCount = Size;
 3048              		.loc 1 1895 21
 3049 0096 FB68     		ldr	r3, [r7, #12]
 3050 0098 7A88     		ldrh	r2, [r7, #2]	@ movhi
 3051 009a DA86     		strh	r2, [r3, #54]	@ movhi
1896:Drivers/STM32F1xx_HAL_Driver/Src/stm32f1xx_hal_spi.c ****   hspi->pRxBuffPtr  = (uint8_t *)pRxData;
 3052              		.loc 1 1896 21
 3053 009c FB68     		ldr	r3, [r7, #12]
 3054 009e 7A68     		ldr	r2, [r7, #4]
 3055 00a0 9A63     		str	r2, [r3, #56]
1897:Drivers/STM32F1xx_HAL_Driver/Src/stm32f1xx_hal_spi.c ****   hspi->RxXferSize  = Size;
 3056              		.loc 1 1897 21
 3057 00a2 FB68     		ldr	r3, [r7, #12]
 3058 00a4 7A88     		ldrh	r2, [r7, #2]	@ movhi
 3059 00a6 9A87     		strh	r2, [r3, #60]	@ movhi
1898:Drivers/STM32F1xx_HAL_Driver/Src/stm32f1xx_hal_spi.c ****   hspi->RxXferCount = Size;
 3060              		.loc 1 1898 21
 3061 00a8 FB68     		ldr	r3, [r7, #12]
 3062 00aa 7A88     		ldrh	r2, [r7, #2]	@ movhi
 3063 00ac DA87     		strh	r2, [r3, #62]	@ movhi
1899:Drivers/STM32F1xx_HAL_Driver/Src/stm32f1xx_hal_spi.c **** 
1900:Drivers/STM32F1xx_HAL_Driver/Src/stm32f1xx_hal_spi.c ****   /* Init field not used in handle to zero */
1901:Drivers/STM32F1xx_HAL_Driver/Src/stm32f1xx_hal_spi.c ****   hspi->RxISR       = NULL;
ARM GAS  C:\Users\Alex\AppData\Local\Temp\ccfYuLQH.s 			page 88


 3064              		.loc 1 1901 21
 3065 00ae FB68     		ldr	r3, [r7, #12]
 3066 00b0 0022     		movs	r2, #0
 3067 00b2 1A64     		str	r2, [r3, #64]
1902:Drivers/STM32F1xx_HAL_Driver/Src/stm32f1xx_hal_spi.c ****   hspi->TxISR       = NULL;
 3068              		.loc 1 1902 21
 3069 00b4 FB68     		ldr	r3, [r7, #12]
 3070 00b6 0022     		movs	r2, #0
 3071 00b8 5A64     		str	r2, [r3, #68]
1903:Drivers/STM32F1xx_HAL_Driver/Src/stm32f1xx_hal_spi.c **** 
1904:Drivers/STM32F1xx_HAL_Driver/Src/stm32f1xx_hal_spi.c **** #if (USE_SPI_CRC != 0U)
1905:Drivers/STM32F1xx_HAL_Driver/Src/stm32f1xx_hal_spi.c ****   /* Reset CRC Calculation */
1906:Drivers/STM32F1xx_HAL_Driver/Src/stm32f1xx_hal_spi.c ****   if (hspi->Init.CRCCalculation == SPI_CRCCALCULATION_ENABLE)
1907:Drivers/STM32F1xx_HAL_Driver/Src/stm32f1xx_hal_spi.c ****   {
1908:Drivers/STM32F1xx_HAL_Driver/Src/stm32f1xx_hal_spi.c ****     SPI_RESET_CRC(hspi);
1909:Drivers/STM32F1xx_HAL_Driver/Src/stm32f1xx_hal_spi.c ****   }
1910:Drivers/STM32F1xx_HAL_Driver/Src/stm32f1xx_hal_spi.c **** #endif /* USE_SPI_CRC */
1911:Drivers/STM32F1xx_HAL_Driver/Src/stm32f1xx_hal_spi.c **** 
1912:Drivers/STM32F1xx_HAL_Driver/Src/stm32f1xx_hal_spi.c ****   /* Check if we are in Rx only or in Rx/Tx Mode and configure the DMA transfer complete callback *
1913:Drivers/STM32F1xx_HAL_Driver/Src/stm32f1xx_hal_spi.c ****   if (hspi->State == HAL_SPI_STATE_BUSY_RX)
 3072              		.loc 1 1913 11
 3073 00ba FB68     		ldr	r3, [r7, #12]
 3074 00bc 93F85130 		ldrb	r3, [r3, #81]
 3075 00c0 DBB2     		uxtb	r3, r3
 3076              		.loc 1 1913 6
 3077 00c2 042B     		cmp	r3, #4
 3078 00c4 08D1     		bne	.L165
1914:Drivers/STM32F1xx_HAL_Driver/Src/stm32f1xx_hal_spi.c ****   {
1915:Drivers/STM32F1xx_HAL_Driver/Src/stm32f1xx_hal_spi.c ****     /* Set the SPI Rx DMA Half transfer complete callback */
1916:Drivers/STM32F1xx_HAL_Driver/Src/stm32f1xx_hal_spi.c ****     hspi->hdmarx->XferHalfCpltCallback = SPI_DMAHalfReceiveCplt;
 3079              		.loc 1 1916 9
 3080 00c6 FB68     		ldr	r3, [r7, #12]
 3081 00c8 DB6C     		ldr	r3, [r3, #76]
 3082              		.loc 1 1916 40
 3083 00ca 494A     		ldr	r2, .L170
 3084 00cc DA62     		str	r2, [r3, #44]
1917:Drivers/STM32F1xx_HAL_Driver/Src/stm32f1xx_hal_spi.c ****     hspi->hdmarx->XferCpltCallback     = SPI_DMAReceiveCplt;
 3085              		.loc 1 1917 9
 3086 00ce FB68     		ldr	r3, [r7, #12]
 3087 00d0 DB6C     		ldr	r3, [r3, #76]
 3088              		.loc 1 1917 40
 3089 00d2 484A     		ldr	r2, .L170+4
 3090 00d4 9A62     		str	r2, [r3, #40]
 3091 00d6 07E0     		b	.L166
 3092              	.L165:
1918:Drivers/STM32F1xx_HAL_Driver/Src/stm32f1xx_hal_spi.c ****   }
1919:Drivers/STM32F1xx_HAL_Driver/Src/stm32f1xx_hal_spi.c ****   else
1920:Drivers/STM32F1xx_HAL_Driver/Src/stm32f1xx_hal_spi.c ****   {
1921:Drivers/STM32F1xx_HAL_Driver/Src/stm32f1xx_hal_spi.c ****     /* Set the SPI Tx/Rx DMA Half transfer complete callback */
1922:Drivers/STM32F1xx_HAL_Driver/Src/stm32f1xx_hal_spi.c ****     hspi->hdmarx->XferHalfCpltCallback = SPI_DMAHalfTransmitReceiveCplt;
 3093              		.loc 1 1922 9
 3094 00d8 FB68     		ldr	r3, [r7, #12]
 3095 00da DB6C     		ldr	r3, [r3, #76]
 3096              		.loc 1 1922 40
 3097 00dc 464A     		ldr	r2, .L170+8
 3098 00de DA62     		str	r2, [r3, #44]
1923:Drivers/STM32F1xx_HAL_Driver/Src/stm32f1xx_hal_spi.c ****     hspi->hdmarx->XferCpltCallback     = SPI_DMATransmitReceiveCplt;
ARM GAS  C:\Users\Alex\AppData\Local\Temp\ccfYuLQH.s 			page 89


 3099              		.loc 1 1923 9
 3100 00e0 FB68     		ldr	r3, [r7, #12]
 3101 00e2 DB6C     		ldr	r3, [r3, #76]
 3102              		.loc 1 1923 40
 3103 00e4 454A     		ldr	r2, .L170+12
 3104 00e6 9A62     		str	r2, [r3, #40]
 3105              	.L166:
1924:Drivers/STM32F1xx_HAL_Driver/Src/stm32f1xx_hal_spi.c ****   }
1925:Drivers/STM32F1xx_HAL_Driver/Src/stm32f1xx_hal_spi.c **** 
1926:Drivers/STM32F1xx_HAL_Driver/Src/stm32f1xx_hal_spi.c ****   /* Set the DMA error callback */
1927:Drivers/STM32F1xx_HAL_Driver/Src/stm32f1xx_hal_spi.c ****   hspi->hdmarx->XferErrorCallback = SPI_DMAError;
 3106              		.loc 1 1927 7
 3107 00e8 FB68     		ldr	r3, [r7, #12]
 3108 00ea DB6C     		ldr	r3, [r3, #76]
 3109              		.loc 1 1927 35
 3110 00ec 444A     		ldr	r2, .L170+16
 3111 00ee 1A63     		str	r2, [r3, #48]
1928:Drivers/STM32F1xx_HAL_Driver/Src/stm32f1xx_hal_spi.c **** 
1929:Drivers/STM32F1xx_HAL_Driver/Src/stm32f1xx_hal_spi.c ****   /* Set the DMA AbortCpltCallback */
1930:Drivers/STM32F1xx_HAL_Driver/Src/stm32f1xx_hal_spi.c ****   hspi->hdmarx->XferAbortCallback = NULL;
 3112              		.loc 1 1930 7
 3113 00f0 FB68     		ldr	r3, [r7, #12]
 3114 00f2 DB6C     		ldr	r3, [r3, #76]
 3115              		.loc 1 1930 35
 3116 00f4 0022     		movs	r2, #0
 3117 00f6 5A63     		str	r2, [r3, #52]
1931:Drivers/STM32F1xx_HAL_Driver/Src/stm32f1xx_hal_spi.c **** 
1932:Drivers/STM32F1xx_HAL_Driver/Src/stm32f1xx_hal_spi.c ****   /* Enable the Rx DMA Stream/Channel  */
1933:Drivers/STM32F1xx_HAL_Driver/Src/stm32f1xx_hal_spi.c ****   if (HAL_OK != HAL_DMA_Start_IT(hspi->hdmarx, (uint32_t)&hspi->Instance->DR, (uint32_t)hspi->pRxBu
 3118              		.loc 1 1933 17
 3119 00f8 FB68     		ldr	r3, [r7, #12]
 3120 00fa D86C     		ldr	r0, [r3, #76]
 3121              		.loc 1 1933 63
 3122 00fc FB68     		ldr	r3, [r7, #12]
 3123 00fe 1B68     		ldr	r3, [r3]
 3124              		.loc 1 1933 58
 3125 0100 0C33     		adds	r3, r3, #12
 3126              		.loc 1 1933 17
 3127 0102 1946     		mov	r1, r3
 3128              		.loc 1 1933 93
 3129 0104 FB68     		ldr	r3, [r7, #12]
 3130 0106 9B6B     		ldr	r3, [r3, #56]
 3131              		.loc 1 1933 17
 3132 0108 1A46     		mov	r2, r3
1934:Drivers/STM32F1xx_HAL_Driver/Src/stm32f1xx_hal_spi.c ****                                  hspi->RxXferCount))
 3133              		.loc 1 1934 38
 3134 010a FB68     		ldr	r3, [r7, #12]
 3135 010c DB8F     		ldrh	r3, [r3, #62]	@ movhi
 3136 010e 9BB2     		uxth	r3, r3
1933:Drivers/STM32F1xx_HAL_Driver/Src/stm32f1xx_hal_spi.c ****                                  hspi->RxXferCount))
 3137              		.loc 1 1933 17
 3138 0110 FFF7FEFF 		bl	HAL_DMA_Start_IT
 3139 0114 0346     		mov	r3, r0
1933:Drivers/STM32F1xx_HAL_Driver/Src/stm32f1xx_hal_spi.c ****                                  hspi->RxXferCount))
 3140              		.loc 1 1933 6
 3141 0116 002B     		cmp	r3, #0
 3142 0118 0CD0     		beq	.L167
ARM GAS  C:\Users\Alex\AppData\Local\Temp\ccfYuLQH.s 			page 90


1935:Drivers/STM32F1xx_HAL_Driver/Src/stm32f1xx_hal_spi.c ****   {
1936:Drivers/STM32F1xx_HAL_Driver/Src/stm32f1xx_hal_spi.c ****     /* Update SPI error code */
1937:Drivers/STM32F1xx_HAL_Driver/Src/stm32f1xx_hal_spi.c ****     SET_BIT(hspi->ErrorCode, HAL_SPI_ERROR_DMA);
 3143              		.loc 1 1937 5
 3144 011a FB68     		ldr	r3, [r7, #12]
 3145 011c 5B6D     		ldr	r3, [r3, #84]
 3146 011e 43F01002 		orr	r2, r3, #16
 3147 0122 FB68     		ldr	r3, [r7, #12]
 3148 0124 5A65     		str	r2, [r3, #84]
1938:Drivers/STM32F1xx_HAL_Driver/Src/stm32f1xx_hal_spi.c ****     errorcode = HAL_ERROR;
 3149              		.loc 1 1938 15
 3150 0126 0123     		movs	r3, #1
 3151 0128 FB75     		strb	r3, [r7, #23]
1939:Drivers/STM32F1xx_HAL_Driver/Src/stm32f1xx_hal_spi.c **** 
1940:Drivers/STM32F1xx_HAL_Driver/Src/stm32f1xx_hal_spi.c ****     hspi->State = HAL_SPI_STATE_READY;
 3152              		.loc 1 1940 17
 3153 012a FB68     		ldr	r3, [r7, #12]
 3154 012c 0122     		movs	r2, #1
 3155 012e 83F85120 		strb	r2, [r3, #81]
1941:Drivers/STM32F1xx_HAL_Driver/Src/stm32f1xx_hal_spi.c ****     goto error;
 3156              		.loc 1 1941 5
 3157 0132 54E0     		b	.L161
 3158              	.L167:
1942:Drivers/STM32F1xx_HAL_Driver/Src/stm32f1xx_hal_spi.c ****   }
1943:Drivers/STM32F1xx_HAL_Driver/Src/stm32f1xx_hal_spi.c **** 
1944:Drivers/STM32F1xx_HAL_Driver/Src/stm32f1xx_hal_spi.c ****   /* Enable Rx DMA Request */
1945:Drivers/STM32F1xx_HAL_Driver/Src/stm32f1xx_hal_spi.c ****   SET_BIT(hspi->Instance->CR2, SPI_CR2_RXDMAEN);
 3159              		.loc 1 1945 3
 3160 0134 FB68     		ldr	r3, [r7, #12]
 3161 0136 1B68     		ldr	r3, [r3]
 3162 0138 5A68     		ldr	r2, [r3, #4]
 3163 013a FB68     		ldr	r3, [r7, #12]
 3164 013c 1B68     		ldr	r3, [r3]
 3165 013e 42F00102 		orr	r2, r2, #1
 3166 0142 5A60     		str	r2, [r3, #4]
1946:Drivers/STM32F1xx_HAL_Driver/Src/stm32f1xx_hal_spi.c **** 
1947:Drivers/STM32F1xx_HAL_Driver/Src/stm32f1xx_hal_spi.c ****   /* Set the SPI Tx DMA transfer complete callback as NULL because the communication closing
1948:Drivers/STM32F1xx_HAL_Driver/Src/stm32f1xx_hal_spi.c ****   is performed in DMA reception complete callback  */
1949:Drivers/STM32F1xx_HAL_Driver/Src/stm32f1xx_hal_spi.c ****   hspi->hdmatx->XferHalfCpltCallback = NULL;
 3167              		.loc 1 1949 7
 3168 0144 FB68     		ldr	r3, [r7, #12]
 3169 0146 9B6C     		ldr	r3, [r3, #72]
 3170              		.loc 1 1949 38
 3171 0148 0022     		movs	r2, #0
 3172 014a DA62     		str	r2, [r3, #44]
1950:Drivers/STM32F1xx_HAL_Driver/Src/stm32f1xx_hal_spi.c ****   hspi->hdmatx->XferCpltCallback     = NULL;
 3173              		.loc 1 1950 7
 3174 014c FB68     		ldr	r3, [r7, #12]
 3175 014e 9B6C     		ldr	r3, [r3, #72]
 3176              		.loc 1 1950 38
 3177 0150 0022     		movs	r2, #0
 3178 0152 9A62     		str	r2, [r3, #40]
1951:Drivers/STM32F1xx_HAL_Driver/Src/stm32f1xx_hal_spi.c ****   hspi->hdmatx->XferErrorCallback    = NULL;
 3179              		.loc 1 1951 7
 3180 0154 FB68     		ldr	r3, [r7, #12]
 3181 0156 9B6C     		ldr	r3, [r3, #72]
 3182              		.loc 1 1951 38
ARM GAS  C:\Users\Alex\AppData\Local\Temp\ccfYuLQH.s 			page 91


 3183 0158 0022     		movs	r2, #0
 3184 015a 1A63     		str	r2, [r3, #48]
1952:Drivers/STM32F1xx_HAL_Driver/Src/stm32f1xx_hal_spi.c ****   hspi->hdmatx->XferAbortCallback    = NULL;
 3185              		.loc 1 1952 7
 3186 015c FB68     		ldr	r3, [r7, #12]
 3187 015e 9B6C     		ldr	r3, [r3, #72]
 3188              		.loc 1 1952 38
 3189 0160 0022     		movs	r2, #0
 3190 0162 5A63     		str	r2, [r3, #52]
1953:Drivers/STM32F1xx_HAL_Driver/Src/stm32f1xx_hal_spi.c **** 
1954:Drivers/STM32F1xx_HAL_Driver/Src/stm32f1xx_hal_spi.c ****   /* Enable the Tx DMA Stream/Channel  */
1955:Drivers/STM32F1xx_HAL_Driver/Src/stm32f1xx_hal_spi.c ****   if (HAL_OK != HAL_DMA_Start_IT(hspi->hdmatx, (uint32_t)hspi->pTxBuffPtr, (uint32_t)&hspi->Instanc
 3191              		.loc 1 1955 17
 3192 0164 FB68     		ldr	r3, [r7, #12]
 3193 0166 986C     		ldr	r0, [r3, #72]
 3194              		.loc 1 1955 62
 3195 0168 FB68     		ldr	r3, [r7, #12]
 3196 016a 1B6B     		ldr	r3, [r3, #48]
 3197              		.loc 1 1955 17
 3198 016c 1946     		mov	r1, r3
 3199              		.loc 1 1955 91
 3200 016e FB68     		ldr	r3, [r7, #12]
 3201 0170 1B68     		ldr	r3, [r3]
 3202              		.loc 1 1955 86
 3203 0172 0C33     		adds	r3, r3, #12
 3204              		.loc 1 1955 17
 3205 0174 1A46     		mov	r2, r3
1956:Drivers/STM32F1xx_HAL_Driver/Src/stm32f1xx_hal_spi.c ****                                  hspi->TxXferCount))
 3206              		.loc 1 1956 38
 3207 0176 FB68     		ldr	r3, [r7, #12]
 3208 0178 DB8E     		ldrh	r3, [r3, #54]	@ movhi
 3209 017a 9BB2     		uxth	r3, r3
1955:Drivers/STM32F1xx_HAL_Driver/Src/stm32f1xx_hal_spi.c ****                                  hspi->TxXferCount))
 3210              		.loc 1 1955 17
 3211 017c FFF7FEFF 		bl	HAL_DMA_Start_IT
 3212 0180 0346     		mov	r3, r0
1955:Drivers/STM32F1xx_HAL_Driver/Src/stm32f1xx_hal_spi.c ****                                  hspi->TxXferCount))
 3213              		.loc 1 1955 6
 3214 0182 002B     		cmp	r3, #0
 3215 0184 0CD0     		beq	.L168
1957:Drivers/STM32F1xx_HAL_Driver/Src/stm32f1xx_hal_spi.c ****   {
1958:Drivers/STM32F1xx_HAL_Driver/Src/stm32f1xx_hal_spi.c ****     /* Update SPI error code */
1959:Drivers/STM32F1xx_HAL_Driver/Src/stm32f1xx_hal_spi.c ****     SET_BIT(hspi->ErrorCode, HAL_SPI_ERROR_DMA);
 3216              		.loc 1 1959 5
 3217 0186 FB68     		ldr	r3, [r7, #12]
 3218 0188 5B6D     		ldr	r3, [r3, #84]
 3219 018a 43F01002 		orr	r2, r3, #16
 3220 018e FB68     		ldr	r3, [r7, #12]
 3221 0190 5A65     		str	r2, [r3, #84]
1960:Drivers/STM32F1xx_HAL_Driver/Src/stm32f1xx_hal_spi.c ****     errorcode = HAL_ERROR;
 3222              		.loc 1 1960 15
 3223 0192 0123     		movs	r3, #1
 3224 0194 FB75     		strb	r3, [r7, #23]
1961:Drivers/STM32F1xx_HAL_Driver/Src/stm32f1xx_hal_spi.c **** 
1962:Drivers/STM32F1xx_HAL_Driver/Src/stm32f1xx_hal_spi.c ****     hspi->State = HAL_SPI_STATE_READY;
 3225              		.loc 1 1962 17
 3226 0196 FB68     		ldr	r3, [r7, #12]
ARM GAS  C:\Users\Alex\AppData\Local\Temp\ccfYuLQH.s 			page 92


 3227 0198 0122     		movs	r2, #1
 3228 019a 83F85120 		strb	r2, [r3, #81]
1963:Drivers/STM32F1xx_HAL_Driver/Src/stm32f1xx_hal_spi.c ****     goto error;
 3229              		.loc 1 1963 5
 3230 019e 1EE0     		b	.L161
 3231              	.L168:
1964:Drivers/STM32F1xx_HAL_Driver/Src/stm32f1xx_hal_spi.c ****   }
1965:Drivers/STM32F1xx_HAL_Driver/Src/stm32f1xx_hal_spi.c **** 
1966:Drivers/STM32F1xx_HAL_Driver/Src/stm32f1xx_hal_spi.c ****   /* Check if the SPI is already enabled */
1967:Drivers/STM32F1xx_HAL_Driver/Src/stm32f1xx_hal_spi.c ****   if ((hspi->Instance->CR1 & SPI_CR1_SPE) != SPI_CR1_SPE)
 3232              		.loc 1 1967 12
 3233 01a0 FB68     		ldr	r3, [r7, #12]
 3234 01a2 1B68     		ldr	r3, [r3]
 3235              		.loc 1 1967 22
 3236 01a4 1B68     		ldr	r3, [r3]
 3237              		.loc 1 1967 28
 3238 01a6 03F04003 		and	r3, r3, #64
 3239              		.loc 1 1967 6
 3240 01aa 402B     		cmp	r3, #64
 3241 01ac 07D0     		beq	.L169
1968:Drivers/STM32F1xx_HAL_Driver/Src/stm32f1xx_hal_spi.c ****   {
1969:Drivers/STM32F1xx_HAL_Driver/Src/stm32f1xx_hal_spi.c ****     /* Enable SPI peripheral */
1970:Drivers/STM32F1xx_HAL_Driver/Src/stm32f1xx_hal_spi.c ****     __HAL_SPI_ENABLE(hspi);
 3242              		.loc 1 1970 5
 3243 01ae FB68     		ldr	r3, [r7, #12]
 3244 01b0 1B68     		ldr	r3, [r3]
 3245 01b2 1A68     		ldr	r2, [r3]
 3246 01b4 FB68     		ldr	r3, [r7, #12]
 3247 01b6 1B68     		ldr	r3, [r3]
 3248 01b8 42F04002 		orr	r2, r2, #64
 3249 01bc 1A60     		str	r2, [r3]
 3250              	.L169:
1971:Drivers/STM32F1xx_HAL_Driver/Src/stm32f1xx_hal_spi.c ****   }
1972:Drivers/STM32F1xx_HAL_Driver/Src/stm32f1xx_hal_spi.c ****   /* Enable the SPI Error Interrupt Bit */
1973:Drivers/STM32F1xx_HAL_Driver/Src/stm32f1xx_hal_spi.c ****   __HAL_SPI_ENABLE_IT(hspi, (SPI_IT_ERR));
 3251              		.loc 1 1973 3
 3252 01be FB68     		ldr	r3, [r7, #12]
 3253 01c0 1B68     		ldr	r3, [r3]
 3254 01c2 5A68     		ldr	r2, [r3, #4]
 3255 01c4 FB68     		ldr	r3, [r7, #12]
 3256 01c6 1B68     		ldr	r3, [r3]
 3257 01c8 42F02002 		orr	r2, r2, #32
 3258 01cc 5A60     		str	r2, [r3, #4]
1974:Drivers/STM32F1xx_HAL_Driver/Src/stm32f1xx_hal_spi.c **** 
1975:Drivers/STM32F1xx_HAL_Driver/Src/stm32f1xx_hal_spi.c ****   /* Enable Tx DMA Request */
1976:Drivers/STM32F1xx_HAL_Driver/Src/stm32f1xx_hal_spi.c ****   SET_BIT(hspi->Instance->CR2, SPI_CR2_TXDMAEN);
 3259              		.loc 1 1976 3
 3260 01ce FB68     		ldr	r3, [r7, #12]
 3261 01d0 1B68     		ldr	r3, [r3]
 3262 01d2 5A68     		ldr	r2, [r3, #4]
 3263 01d4 FB68     		ldr	r3, [r7, #12]
 3264 01d6 1B68     		ldr	r3, [r3]
 3265 01d8 42F00202 		orr	r2, r2, #2
 3266 01dc 5A60     		str	r2, [r3, #4]
 3267              	.L161:
1977:Drivers/STM32F1xx_HAL_Driver/Src/stm32f1xx_hal_spi.c **** 
1978:Drivers/STM32F1xx_HAL_Driver/Src/stm32f1xx_hal_spi.c **** error :
ARM GAS  C:\Users\Alex\AppData\Local\Temp\ccfYuLQH.s 			page 93


1979:Drivers/STM32F1xx_HAL_Driver/Src/stm32f1xx_hal_spi.c ****   /* Process Unlocked */
1980:Drivers/STM32F1xx_HAL_Driver/Src/stm32f1xx_hal_spi.c ****   __HAL_UNLOCK(hspi);
 3268              		.loc 1 1980 3
 3269 01de FB68     		ldr	r3, [r7, #12]
 3270 01e0 0022     		movs	r2, #0
 3271 01e2 83F85020 		strb	r2, [r3, #80]
1981:Drivers/STM32F1xx_HAL_Driver/Src/stm32f1xx_hal_spi.c ****   return errorcode;
 3272              		.loc 1 1981 10
 3273 01e6 FB7D     		ldrb	r3, [r7, #23]	@ zero_extendqisi2
 3274              	.L158:
1982:Drivers/STM32F1xx_HAL_Driver/Src/stm32f1xx_hal_spi.c **** }
 3275              		.loc 1 1982 1
 3276 01e8 1846     		mov	r0, r3
 3277 01ea 1837     		adds	r7, r7, #24
 3278              	.LCFI67:
 3279              		.cfi_def_cfa_offset 8
 3280 01ec BD46     		mov	sp, r7
 3281              	.LCFI68:
 3282              		.cfi_def_cfa_register 13
 3283              		@ sp needed
 3284 01ee 80BD     		pop	{r7, pc}
 3285              	.L171:
 3286              		.align	2
 3287              	.L170:
 3288 01f0 00000000 		.word	SPI_DMAHalfReceiveCplt
 3289 01f4 00000000 		.word	SPI_DMAReceiveCplt
 3290 01f8 00000000 		.word	SPI_DMAHalfTransmitReceiveCplt
 3291 01fc 00000000 		.word	SPI_DMATransmitReceiveCplt
 3292 0200 00000000 		.word	SPI_DMAError
 3293              		.cfi_endproc
 3294              	.LFE77:
 3296              		.section	.text.HAL_SPI_Abort,"ax",%progbits
 3297              		.align	1
 3298              		.global	HAL_SPI_Abort
 3299              		.syntax unified
 3300              		.thumb
 3301              		.thumb_func
 3302              		.fpu softvfp
 3304              	HAL_SPI_Abort:
 3305              	.LFB78:
1983:Drivers/STM32F1xx_HAL_Driver/Src/stm32f1xx_hal_spi.c **** 
1984:Drivers/STM32F1xx_HAL_Driver/Src/stm32f1xx_hal_spi.c **** /**
1985:Drivers/STM32F1xx_HAL_Driver/Src/stm32f1xx_hal_spi.c ****   * @brief  Abort ongoing transfer (blocking mode).
1986:Drivers/STM32F1xx_HAL_Driver/Src/stm32f1xx_hal_spi.c ****   * @param  hspi SPI handle.
1987:Drivers/STM32F1xx_HAL_Driver/Src/stm32f1xx_hal_spi.c ****   * @note   This procedure could be used for aborting any ongoing transfer (Tx and Rx),
1988:Drivers/STM32F1xx_HAL_Driver/Src/stm32f1xx_hal_spi.c ****   *         started in Interrupt or DMA mode.
1989:Drivers/STM32F1xx_HAL_Driver/Src/stm32f1xx_hal_spi.c ****   *         This procedure performs following operations :
1990:Drivers/STM32F1xx_HAL_Driver/Src/stm32f1xx_hal_spi.c ****   *           - Disable SPI Interrupts (depending of transfer direction)
1991:Drivers/STM32F1xx_HAL_Driver/Src/stm32f1xx_hal_spi.c ****   *           - Disable the DMA transfer in the peripheral register (if enabled)
1992:Drivers/STM32F1xx_HAL_Driver/Src/stm32f1xx_hal_spi.c ****   *           - Abort DMA transfer by calling HAL_DMA_Abort (in case of transfer in DMA mode)
1993:Drivers/STM32F1xx_HAL_Driver/Src/stm32f1xx_hal_spi.c ****   *           - Set handle State to READY
1994:Drivers/STM32F1xx_HAL_Driver/Src/stm32f1xx_hal_spi.c ****   * @note   This procedure is executed in blocking mode : when exiting function, Abort is considere
1995:Drivers/STM32F1xx_HAL_Driver/Src/stm32f1xx_hal_spi.c ****   * @retval HAL status
1996:Drivers/STM32F1xx_HAL_Driver/Src/stm32f1xx_hal_spi.c ****   */
1997:Drivers/STM32F1xx_HAL_Driver/Src/stm32f1xx_hal_spi.c **** HAL_StatusTypeDef HAL_SPI_Abort(SPI_HandleTypeDef *hspi)
1998:Drivers/STM32F1xx_HAL_Driver/Src/stm32f1xx_hal_spi.c **** {
 3306              		.loc 1 1998 1
ARM GAS  C:\Users\Alex\AppData\Local\Temp\ccfYuLQH.s 			page 94


 3307              		.cfi_startproc
 3308              		@ args = 0, pretend = 0, frame = 24
 3309              		@ frame_needed = 1, uses_anonymous_args = 0
 3310 0000 80B5     		push	{r7, lr}
 3311              	.LCFI69:
 3312              		.cfi_def_cfa_offset 8
 3313              		.cfi_offset 7, -8
 3314              		.cfi_offset 14, -4
 3315 0002 86B0     		sub	sp, sp, #24
 3316              	.LCFI70:
 3317              		.cfi_def_cfa_offset 32
 3318 0004 00AF     		add	r7, sp, #0
 3319              	.LCFI71:
 3320              		.cfi_def_cfa_register 7
 3321 0006 7860     		str	r0, [r7, #4]
1999:Drivers/STM32F1xx_HAL_Driver/Src/stm32f1xx_hal_spi.c ****   HAL_StatusTypeDef errorcode;
2000:Drivers/STM32F1xx_HAL_Driver/Src/stm32f1xx_hal_spi.c ****   __IO uint32_t count;
2001:Drivers/STM32F1xx_HAL_Driver/Src/stm32f1xx_hal_spi.c ****   __IO uint32_t resetcount;
2002:Drivers/STM32F1xx_HAL_Driver/Src/stm32f1xx_hal_spi.c **** 
2003:Drivers/STM32F1xx_HAL_Driver/Src/stm32f1xx_hal_spi.c ****   /* Initialized local variable  */
2004:Drivers/STM32F1xx_HAL_Driver/Src/stm32f1xx_hal_spi.c ****   errorcode = HAL_OK;
 3322              		.loc 1 2004 13
 3323 0008 0023     		movs	r3, #0
 3324 000a FB75     		strb	r3, [r7, #23]
2005:Drivers/STM32F1xx_HAL_Driver/Src/stm32f1xx_hal_spi.c ****   resetcount = SPI_DEFAULT_TIMEOUT * (SystemCoreClock / 24U / 1000U);
 3325              		.loc 1 2005 61
 3326 000c 6A4B     		ldr	r3, .L190
 3327 000e 1B68     		ldr	r3, [r3]
 3328 0010 6A4A     		ldr	r2, .L190+4
 3329 0012 A2FB0323 		umull	r2, r3, r2, r3
 3330 0016 5B0A     		lsrs	r3, r3, #9
 3331              		.loc 1 2005 36
 3332 0018 6422     		movs	r2, #100
 3333 001a 02FB03F3 		mul	r3, r2, r3
 3334              		.loc 1 2005 14
 3335 001e FB60     		str	r3, [r7, #12]
2006:Drivers/STM32F1xx_HAL_Driver/Src/stm32f1xx_hal_spi.c ****   count = resetcount;
 3336              		.loc 1 2006 9
 3337 0020 FB68     		ldr	r3, [r7, #12]
 3338 0022 3B61     		str	r3, [r7, #16]
2007:Drivers/STM32F1xx_HAL_Driver/Src/stm32f1xx_hal_spi.c **** 
2008:Drivers/STM32F1xx_HAL_Driver/Src/stm32f1xx_hal_spi.c ****   /* Clear ERRIE interrupt to avoid error interrupts generation during Abort procedure */
2009:Drivers/STM32F1xx_HAL_Driver/Src/stm32f1xx_hal_spi.c ****   CLEAR_BIT(hspi->Instance->CR2, SPI_CR2_ERRIE);
 3339              		.loc 1 2009 3
 3340 0024 7B68     		ldr	r3, [r7, #4]
 3341 0026 1B68     		ldr	r3, [r3]
 3342 0028 5A68     		ldr	r2, [r3, #4]
 3343 002a 7B68     		ldr	r3, [r7, #4]
 3344 002c 1B68     		ldr	r3, [r3]
 3345 002e 22F02002 		bic	r2, r2, #32
 3346 0032 5A60     		str	r2, [r3, #4]
2010:Drivers/STM32F1xx_HAL_Driver/Src/stm32f1xx_hal_spi.c **** 
2011:Drivers/STM32F1xx_HAL_Driver/Src/stm32f1xx_hal_spi.c ****   /* Disable TXEIE, RXNEIE and ERRIE(mode fault event, overrun error, TI frame error) interrupts */
2012:Drivers/STM32F1xx_HAL_Driver/Src/stm32f1xx_hal_spi.c ****   if (HAL_IS_BIT_SET(hspi->Instance->CR2, SPI_CR2_TXEIE))
 3347              		.loc 1 2012 7
 3348 0034 7B68     		ldr	r3, [r7, #4]
 3349 0036 1B68     		ldr	r3, [r3]
ARM GAS  C:\Users\Alex\AppData\Local\Temp\ccfYuLQH.s 			page 95


 3350 0038 5B68     		ldr	r3, [r3, #4]
 3351 003a 03F08003 		and	r3, r3, #128
 3352              		.loc 1 2012 6
 3353 003e 002B     		cmp	r3, #0
 3354 0040 17D0     		beq	.L173
2013:Drivers/STM32F1xx_HAL_Driver/Src/stm32f1xx_hal_spi.c ****   {
2014:Drivers/STM32F1xx_HAL_Driver/Src/stm32f1xx_hal_spi.c ****     hspi->TxISR = SPI_AbortTx_ISR;
 3355              		.loc 1 2014 17
 3356 0042 7B68     		ldr	r3, [r7, #4]
 3357 0044 5E4A     		ldr	r2, .L190+8
 3358 0046 5A64     		str	r2, [r3, #68]
 3359              	.L176:
2015:Drivers/STM32F1xx_HAL_Driver/Src/stm32f1xx_hal_spi.c ****     /* Wait HAL_SPI_STATE_ABORT state */
2016:Drivers/STM32F1xx_HAL_Driver/Src/stm32f1xx_hal_spi.c ****     do
2017:Drivers/STM32F1xx_HAL_Driver/Src/stm32f1xx_hal_spi.c ****     {
2018:Drivers/STM32F1xx_HAL_Driver/Src/stm32f1xx_hal_spi.c ****       if (count == 0U)
 3360              		.loc 1 2018 17
 3361 0048 3B69     		ldr	r3, [r7, #16]
 3362              		.loc 1 2018 10
 3363 004a 002B     		cmp	r3, #0
 3364 004c 06D1     		bne	.L174
2019:Drivers/STM32F1xx_HAL_Driver/Src/stm32f1xx_hal_spi.c ****       {
2020:Drivers/STM32F1xx_HAL_Driver/Src/stm32f1xx_hal_spi.c ****         SET_BIT(hspi->ErrorCode, HAL_SPI_ERROR_ABORT);
 3365              		.loc 1 2020 9
 3366 004e 7B68     		ldr	r3, [r7, #4]
 3367 0050 5B6D     		ldr	r3, [r3, #84]
 3368 0052 43F04002 		orr	r2, r3, #64
 3369 0056 7B68     		ldr	r3, [r7, #4]
 3370 0058 5A65     		str	r2, [r3, #84]
2021:Drivers/STM32F1xx_HAL_Driver/Src/stm32f1xx_hal_spi.c ****         break;
 3371              		.loc 1 2021 9
 3372 005a 08E0     		b	.L175
 3373              	.L174:
2022:Drivers/STM32F1xx_HAL_Driver/Src/stm32f1xx_hal_spi.c ****       }
2023:Drivers/STM32F1xx_HAL_Driver/Src/stm32f1xx_hal_spi.c ****       count--;
 3374              		.loc 1 2023 12
 3375 005c 3B69     		ldr	r3, [r7, #16]
 3376 005e 013B     		subs	r3, r3, #1
 3377 0060 3B61     		str	r3, [r7, #16]
2024:Drivers/STM32F1xx_HAL_Driver/Src/stm32f1xx_hal_spi.c ****     } while (hspi->State != HAL_SPI_STATE_ABORT);
 3378              		.loc 1 2024 18
 3379 0062 7B68     		ldr	r3, [r7, #4]
 3380 0064 93F85130 		ldrb	r3, [r3, #81]
 3381 0068 DBB2     		uxtb	r3, r3
 3382              		.loc 1 2024 5
 3383 006a 072B     		cmp	r3, #7
 3384 006c ECD1     		bne	.L176
 3385              	.L175:
2025:Drivers/STM32F1xx_HAL_Driver/Src/stm32f1xx_hal_spi.c ****     /* Reset Timeout Counter */
2026:Drivers/STM32F1xx_HAL_Driver/Src/stm32f1xx_hal_spi.c ****     count = resetcount;
 3386              		.loc 1 2026 11
 3387 006e FB68     		ldr	r3, [r7, #12]
 3388 0070 3B61     		str	r3, [r7, #16]
 3389              	.L173:
2027:Drivers/STM32F1xx_HAL_Driver/Src/stm32f1xx_hal_spi.c ****   }
2028:Drivers/STM32F1xx_HAL_Driver/Src/stm32f1xx_hal_spi.c **** 
2029:Drivers/STM32F1xx_HAL_Driver/Src/stm32f1xx_hal_spi.c ****   if (HAL_IS_BIT_SET(hspi->Instance->CR2, SPI_CR2_RXNEIE))
ARM GAS  C:\Users\Alex\AppData\Local\Temp\ccfYuLQH.s 			page 96


 3390              		.loc 1 2029 7
 3391 0072 7B68     		ldr	r3, [r7, #4]
 3392 0074 1B68     		ldr	r3, [r3]
 3393 0076 5B68     		ldr	r3, [r3, #4]
 3394 0078 03F04003 		and	r3, r3, #64
 3395              		.loc 1 2029 6
 3396 007c 002B     		cmp	r3, #0
 3397 007e 17D0     		beq	.L177
2030:Drivers/STM32F1xx_HAL_Driver/Src/stm32f1xx_hal_spi.c ****   {
2031:Drivers/STM32F1xx_HAL_Driver/Src/stm32f1xx_hal_spi.c ****     hspi->RxISR = SPI_AbortRx_ISR;
 3398              		.loc 1 2031 17
 3399 0080 7B68     		ldr	r3, [r7, #4]
 3400 0082 504A     		ldr	r2, .L190+12
 3401 0084 1A64     		str	r2, [r3, #64]
 3402              	.L180:
2032:Drivers/STM32F1xx_HAL_Driver/Src/stm32f1xx_hal_spi.c ****     /* Wait HAL_SPI_STATE_ABORT state */
2033:Drivers/STM32F1xx_HAL_Driver/Src/stm32f1xx_hal_spi.c ****     do
2034:Drivers/STM32F1xx_HAL_Driver/Src/stm32f1xx_hal_spi.c ****     {
2035:Drivers/STM32F1xx_HAL_Driver/Src/stm32f1xx_hal_spi.c ****       if (count == 0U)
 3403              		.loc 1 2035 17
 3404 0086 3B69     		ldr	r3, [r7, #16]
 3405              		.loc 1 2035 10
 3406 0088 002B     		cmp	r3, #0
 3407 008a 06D1     		bne	.L178
2036:Drivers/STM32F1xx_HAL_Driver/Src/stm32f1xx_hal_spi.c ****       {
2037:Drivers/STM32F1xx_HAL_Driver/Src/stm32f1xx_hal_spi.c ****         SET_BIT(hspi->ErrorCode, HAL_SPI_ERROR_ABORT);
 3408              		.loc 1 2037 9
 3409 008c 7B68     		ldr	r3, [r7, #4]
 3410 008e 5B6D     		ldr	r3, [r3, #84]
 3411 0090 43F04002 		orr	r2, r3, #64
 3412 0094 7B68     		ldr	r3, [r7, #4]
 3413 0096 5A65     		str	r2, [r3, #84]
2038:Drivers/STM32F1xx_HAL_Driver/Src/stm32f1xx_hal_spi.c ****         break;
 3414              		.loc 1 2038 9
 3415 0098 08E0     		b	.L179
 3416              	.L178:
2039:Drivers/STM32F1xx_HAL_Driver/Src/stm32f1xx_hal_spi.c ****       }
2040:Drivers/STM32F1xx_HAL_Driver/Src/stm32f1xx_hal_spi.c ****       count--;
 3417              		.loc 1 2040 12
 3418 009a 3B69     		ldr	r3, [r7, #16]
 3419 009c 013B     		subs	r3, r3, #1
 3420 009e 3B61     		str	r3, [r7, #16]
2041:Drivers/STM32F1xx_HAL_Driver/Src/stm32f1xx_hal_spi.c ****     } while (hspi->State != HAL_SPI_STATE_ABORT);
 3421              		.loc 1 2041 18
 3422 00a0 7B68     		ldr	r3, [r7, #4]
 3423 00a2 93F85130 		ldrb	r3, [r3, #81]
 3424 00a6 DBB2     		uxtb	r3, r3
 3425              		.loc 1 2041 5
 3426 00a8 072B     		cmp	r3, #7
 3427 00aa ECD1     		bne	.L180
 3428              	.L179:
2042:Drivers/STM32F1xx_HAL_Driver/Src/stm32f1xx_hal_spi.c ****     /* Reset Timeout Counter */
2043:Drivers/STM32F1xx_HAL_Driver/Src/stm32f1xx_hal_spi.c ****     count = resetcount;
 3429              		.loc 1 2043 11
 3430 00ac FB68     		ldr	r3, [r7, #12]
 3431 00ae 3B61     		str	r3, [r7, #16]
 3432              	.L177:
ARM GAS  C:\Users\Alex\AppData\Local\Temp\ccfYuLQH.s 			page 97


2044:Drivers/STM32F1xx_HAL_Driver/Src/stm32f1xx_hal_spi.c ****   }
2045:Drivers/STM32F1xx_HAL_Driver/Src/stm32f1xx_hal_spi.c **** 
2046:Drivers/STM32F1xx_HAL_Driver/Src/stm32f1xx_hal_spi.c ****   /* Disable the SPI DMA Tx request if enabled */
2047:Drivers/STM32F1xx_HAL_Driver/Src/stm32f1xx_hal_spi.c ****   if (HAL_IS_BIT_SET(hspi->Instance->CR2, SPI_CR2_TXDMAEN))
 3433              		.loc 1 2047 7
 3434 00b0 7B68     		ldr	r3, [r7, #4]
 3435 00b2 1B68     		ldr	r3, [r3]
 3436 00b4 5B68     		ldr	r3, [r3, #4]
 3437 00b6 03F00203 		and	r3, r3, #2
 3438              		.loc 1 2047 6
 3439 00ba 002B     		cmp	r3, #0
 3440 00bc 2ED0     		beq	.L181
2048:Drivers/STM32F1xx_HAL_Driver/Src/stm32f1xx_hal_spi.c ****   {
2049:Drivers/STM32F1xx_HAL_Driver/Src/stm32f1xx_hal_spi.c ****     /* Abort the SPI DMA Tx Stream/Channel : use blocking DMA Abort API (no callback) */
2050:Drivers/STM32F1xx_HAL_Driver/Src/stm32f1xx_hal_spi.c ****     if (hspi->hdmatx != NULL)
 3441              		.loc 1 2050 13
 3442 00be 7B68     		ldr	r3, [r7, #4]
 3443 00c0 9B6C     		ldr	r3, [r3, #72]
 3444              		.loc 1 2050 8
 3445 00c2 002B     		cmp	r3, #0
 3446 00c4 2AD0     		beq	.L181
2051:Drivers/STM32F1xx_HAL_Driver/Src/stm32f1xx_hal_spi.c ****     {
2052:Drivers/STM32F1xx_HAL_Driver/Src/stm32f1xx_hal_spi.c ****       /* Set the SPI DMA Abort callback :
2053:Drivers/STM32F1xx_HAL_Driver/Src/stm32f1xx_hal_spi.c ****       will lead to call HAL_SPI_AbortCpltCallback() at end of DMA abort procedure */
2054:Drivers/STM32F1xx_HAL_Driver/Src/stm32f1xx_hal_spi.c ****       hspi->hdmatx->XferAbortCallback = NULL;
 3447              		.loc 1 2054 11
 3448 00c6 7B68     		ldr	r3, [r7, #4]
 3449 00c8 9B6C     		ldr	r3, [r3, #72]
 3450              		.loc 1 2054 39
 3451 00ca 0022     		movs	r2, #0
 3452 00cc 5A63     		str	r2, [r3, #52]
2055:Drivers/STM32F1xx_HAL_Driver/Src/stm32f1xx_hal_spi.c **** 
2056:Drivers/STM32F1xx_HAL_Driver/Src/stm32f1xx_hal_spi.c ****       /* Abort DMA Tx Handle linked to SPI Peripheral */
2057:Drivers/STM32F1xx_HAL_Driver/Src/stm32f1xx_hal_spi.c ****       if (HAL_DMA_Abort(hspi->hdmatx) != HAL_OK)
 3453              		.loc 1 2057 11
 3454 00ce 7B68     		ldr	r3, [r7, #4]
 3455 00d0 9B6C     		ldr	r3, [r3, #72]
 3456 00d2 1846     		mov	r0, r3
 3457 00d4 FFF7FEFF 		bl	HAL_DMA_Abort
 3458 00d8 0346     		mov	r3, r0
 3459              		.loc 1 2057 10
 3460 00da 002B     		cmp	r3, #0
 3461 00dc 02D0     		beq	.L182
2058:Drivers/STM32F1xx_HAL_Driver/Src/stm32f1xx_hal_spi.c ****       {
2059:Drivers/STM32F1xx_HAL_Driver/Src/stm32f1xx_hal_spi.c ****         hspi->ErrorCode = HAL_SPI_ERROR_ABORT;
 3462              		.loc 1 2059 25
 3463 00de 7B68     		ldr	r3, [r7, #4]
 3464 00e0 4022     		movs	r2, #64
 3465 00e2 5A65     		str	r2, [r3, #84]
 3466              	.L182:
2060:Drivers/STM32F1xx_HAL_Driver/Src/stm32f1xx_hal_spi.c ****       }
2061:Drivers/STM32F1xx_HAL_Driver/Src/stm32f1xx_hal_spi.c **** 
2062:Drivers/STM32F1xx_HAL_Driver/Src/stm32f1xx_hal_spi.c ****       /* Disable Tx DMA Request */
2063:Drivers/STM32F1xx_HAL_Driver/Src/stm32f1xx_hal_spi.c ****       CLEAR_BIT(hspi->Instance->CR2, (SPI_CR2_TXDMAEN));
 3467              		.loc 1 2063 7
 3468 00e4 7B68     		ldr	r3, [r7, #4]
 3469 00e6 1B68     		ldr	r3, [r3]
ARM GAS  C:\Users\Alex\AppData\Local\Temp\ccfYuLQH.s 			page 98


 3470 00e8 5A68     		ldr	r2, [r3, #4]
 3471 00ea 7B68     		ldr	r3, [r7, #4]
 3472 00ec 1B68     		ldr	r3, [r3]
 3473 00ee 22F00202 		bic	r2, r2, #2
 3474 00f2 5A60     		str	r2, [r3, #4]
 3475              	.L184:
2064:Drivers/STM32F1xx_HAL_Driver/Src/stm32f1xx_hal_spi.c **** 
2065:Drivers/STM32F1xx_HAL_Driver/Src/stm32f1xx_hal_spi.c ****       /* Wait until TXE flag is set */
2066:Drivers/STM32F1xx_HAL_Driver/Src/stm32f1xx_hal_spi.c ****       do
2067:Drivers/STM32F1xx_HAL_Driver/Src/stm32f1xx_hal_spi.c ****       {
2068:Drivers/STM32F1xx_HAL_Driver/Src/stm32f1xx_hal_spi.c ****         if (count == 0U)
 3476              		.loc 1 2068 19
 3477 00f4 3B69     		ldr	r3, [r7, #16]
 3478              		.loc 1 2068 12
 3479 00f6 002B     		cmp	r3, #0
 3480 00f8 06D1     		bne	.L183
2069:Drivers/STM32F1xx_HAL_Driver/Src/stm32f1xx_hal_spi.c ****         {
2070:Drivers/STM32F1xx_HAL_Driver/Src/stm32f1xx_hal_spi.c ****           SET_BIT(hspi->ErrorCode, HAL_SPI_ERROR_ABORT);
 3481              		.loc 1 2070 11
 3482 00fa 7B68     		ldr	r3, [r7, #4]
 3483 00fc 5B6D     		ldr	r3, [r3, #84]
 3484 00fe 43F04002 		orr	r2, r3, #64
 3485 0102 7B68     		ldr	r3, [r7, #4]
 3486 0104 5A65     		str	r2, [r3, #84]
2071:Drivers/STM32F1xx_HAL_Driver/Src/stm32f1xx_hal_spi.c ****           break;
 3487              		.loc 1 2071 11
 3488 0106 09E0     		b	.L181
 3489              	.L183:
2072:Drivers/STM32F1xx_HAL_Driver/Src/stm32f1xx_hal_spi.c ****         }
2073:Drivers/STM32F1xx_HAL_Driver/Src/stm32f1xx_hal_spi.c ****         count--;
 3490              		.loc 1 2073 14
 3491 0108 3B69     		ldr	r3, [r7, #16]
 3492 010a 013B     		subs	r3, r3, #1
 3493 010c 3B61     		str	r3, [r7, #16]
2074:Drivers/STM32F1xx_HAL_Driver/Src/stm32f1xx_hal_spi.c ****       } while ((hspi->Instance->SR & SPI_FLAG_TXE) == RESET);
 3494              		.loc 1 2074 21
 3495 010e 7B68     		ldr	r3, [r7, #4]
 3496 0110 1B68     		ldr	r3, [r3]
 3497              		.loc 1 2074 31
 3498 0112 9B68     		ldr	r3, [r3, #8]
 3499              		.loc 1 2074 36
 3500 0114 03F00203 		and	r3, r3, #2
 3501              		.loc 1 2074 7
 3502 0118 002B     		cmp	r3, #0
 3503 011a EBD0     		beq	.L184
 3504              	.L181:
2075:Drivers/STM32F1xx_HAL_Driver/Src/stm32f1xx_hal_spi.c ****     }
2076:Drivers/STM32F1xx_HAL_Driver/Src/stm32f1xx_hal_spi.c ****   }
2077:Drivers/STM32F1xx_HAL_Driver/Src/stm32f1xx_hal_spi.c **** 
2078:Drivers/STM32F1xx_HAL_Driver/Src/stm32f1xx_hal_spi.c ****   /* Disable the SPI DMA Rx request if enabled */
2079:Drivers/STM32F1xx_HAL_Driver/Src/stm32f1xx_hal_spi.c ****   if (HAL_IS_BIT_SET(hspi->Instance->CR2, SPI_CR2_RXDMAEN))
 3505              		.loc 1 2079 7
 3506 011c 7B68     		ldr	r3, [r7, #4]
 3507 011e 1B68     		ldr	r3, [r3]
 3508 0120 5B68     		ldr	r3, [r3, #4]
 3509 0122 03F00103 		and	r3, r3, #1
 3510              		.loc 1 2079 6
ARM GAS  C:\Users\Alex\AppData\Local\Temp\ccfYuLQH.s 			page 99


 3511 0126 002B     		cmp	r3, #0
 3512 0128 22D0     		beq	.L185
2080:Drivers/STM32F1xx_HAL_Driver/Src/stm32f1xx_hal_spi.c ****   {
2081:Drivers/STM32F1xx_HAL_Driver/Src/stm32f1xx_hal_spi.c ****     /* Abort the SPI DMA Rx Stream/Channel : use blocking DMA Abort API (no callback) */
2082:Drivers/STM32F1xx_HAL_Driver/Src/stm32f1xx_hal_spi.c ****     if (hspi->hdmarx != NULL)
 3513              		.loc 1 2082 13
 3514 012a 7B68     		ldr	r3, [r7, #4]
 3515 012c DB6C     		ldr	r3, [r3, #76]
 3516              		.loc 1 2082 8
 3517 012e 002B     		cmp	r3, #0
 3518 0130 1ED0     		beq	.L185
2083:Drivers/STM32F1xx_HAL_Driver/Src/stm32f1xx_hal_spi.c ****     {
2084:Drivers/STM32F1xx_HAL_Driver/Src/stm32f1xx_hal_spi.c ****       /* Set the SPI DMA Abort callback :
2085:Drivers/STM32F1xx_HAL_Driver/Src/stm32f1xx_hal_spi.c ****       will lead to call HAL_SPI_AbortCpltCallback() at end of DMA abort procedure */
2086:Drivers/STM32F1xx_HAL_Driver/Src/stm32f1xx_hal_spi.c ****       hspi->hdmarx->XferAbortCallback = NULL;
 3519              		.loc 1 2086 11
 3520 0132 7B68     		ldr	r3, [r7, #4]
 3521 0134 DB6C     		ldr	r3, [r3, #76]
 3522              		.loc 1 2086 39
 3523 0136 0022     		movs	r2, #0
 3524 0138 5A63     		str	r2, [r3, #52]
2087:Drivers/STM32F1xx_HAL_Driver/Src/stm32f1xx_hal_spi.c **** 
2088:Drivers/STM32F1xx_HAL_Driver/Src/stm32f1xx_hal_spi.c ****       /* Abort DMA Rx Handle linked to SPI Peripheral */
2089:Drivers/STM32F1xx_HAL_Driver/Src/stm32f1xx_hal_spi.c ****       if (HAL_DMA_Abort(hspi->hdmarx) != HAL_OK)
 3525              		.loc 1 2089 11
 3526 013a 7B68     		ldr	r3, [r7, #4]
 3527 013c DB6C     		ldr	r3, [r3, #76]
 3528 013e 1846     		mov	r0, r3
 3529 0140 FFF7FEFF 		bl	HAL_DMA_Abort
 3530 0144 0346     		mov	r3, r0
 3531              		.loc 1 2089 10
 3532 0146 002B     		cmp	r3, #0
 3533 0148 02D0     		beq	.L186
2090:Drivers/STM32F1xx_HAL_Driver/Src/stm32f1xx_hal_spi.c ****       {
2091:Drivers/STM32F1xx_HAL_Driver/Src/stm32f1xx_hal_spi.c ****         hspi->ErrorCode = HAL_SPI_ERROR_ABORT;
 3534              		.loc 1 2091 25
 3535 014a 7B68     		ldr	r3, [r7, #4]
 3536 014c 4022     		movs	r2, #64
 3537 014e 5A65     		str	r2, [r3, #84]
 3538              	.L186:
2092:Drivers/STM32F1xx_HAL_Driver/Src/stm32f1xx_hal_spi.c ****       }
2093:Drivers/STM32F1xx_HAL_Driver/Src/stm32f1xx_hal_spi.c **** 
2094:Drivers/STM32F1xx_HAL_Driver/Src/stm32f1xx_hal_spi.c ****       /* Disable peripheral */
2095:Drivers/STM32F1xx_HAL_Driver/Src/stm32f1xx_hal_spi.c ****       __HAL_SPI_DISABLE(hspi);
 3539              		.loc 1 2095 7
 3540 0150 7B68     		ldr	r3, [r7, #4]
 3541 0152 1B68     		ldr	r3, [r3]
 3542 0154 1A68     		ldr	r2, [r3]
 3543 0156 7B68     		ldr	r3, [r7, #4]
 3544 0158 1B68     		ldr	r3, [r3]
 3545 015a 22F04002 		bic	r2, r2, #64
 3546 015e 1A60     		str	r2, [r3]
2096:Drivers/STM32F1xx_HAL_Driver/Src/stm32f1xx_hal_spi.c **** 
2097:Drivers/STM32F1xx_HAL_Driver/Src/stm32f1xx_hal_spi.c ****       /* Disable Rx DMA Request */
2098:Drivers/STM32F1xx_HAL_Driver/Src/stm32f1xx_hal_spi.c ****       CLEAR_BIT(hspi->Instance->CR2, (SPI_CR2_RXDMAEN));
 3547              		.loc 1 2098 7
 3548 0160 7B68     		ldr	r3, [r7, #4]
ARM GAS  C:\Users\Alex\AppData\Local\Temp\ccfYuLQH.s 			page 100


 3549 0162 1B68     		ldr	r3, [r3]
 3550 0164 5A68     		ldr	r2, [r3, #4]
 3551 0166 7B68     		ldr	r3, [r7, #4]
 3552 0168 1B68     		ldr	r3, [r3]
 3553 016a 22F00102 		bic	r2, r2, #1
 3554 016e 5A60     		str	r2, [r3, #4]
 3555              	.L185:
2099:Drivers/STM32F1xx_HAL_Driver/Src/stm32f1xx_hal_spi.c ****     }
2100:Drivers/STM32F1xx_HAL_Driver/Src/stm32f1xx_hal_spi.c ****   }
2101:Drivers/STM32F1xx_HAL_Driver/Src/stm32f1xx_hal_spi.c ****   /* Reset Tx and Rx transfer counters */
2102:Drivers/STM32F1xx_HAL_Driver/Src/stm32f1xx_hal_spi.c ****   hspi->RxXferCount = 0U;
 3556              		.loc 1 2102 21
 3557 0170 7B68     		ldr	r3, [r7, #4]
 3558 0172 0022     		movs	r2, #0
 3559 0174 DA87     		strh	r2, [r3, #62]	@ movhi
2103:Drivers/STM32F1xx_HAL_Driver/Src/stm32f1xx_hal_spi.c ****   hspi->TxXferCount = 0U;
 3560              		.loc 1 2103 21
 3561 0176 7B68     		ldr	r3, [r7, #4]
 3562 0178 0022     		movs	r2, #0
 3563 017a DA86     		strh	r2, [r3, #54]	@ movhi
2104:Drivers/STM32F1xx_HAL_Driver/Src/stm32f1xx_hal_spi.c **** 
2105:Drivers/STM32F1xx_HAL_Driver/Src/stm32f1xx_hal_spi.c ****   /* Check error during Abort procedure */
2106:Drivers/STM32F1xx_HAL_Driver/Src/stm32f1xx_hal_spi.c ****   if (hspi->ErrorCode == HAL_SPI_ERROR_ABORT)
 3564              		.loc 1 2106 11
 3565 017c 7B68     		ldr	r3, [r7, #4]
 3566 017e 5B6D     		ldr	r3, [r3, #84]
 3567              		.loc 1 2106 6
 3568 0180 402B     		cmp	r3, #64
 3569 0182 02D1     		bne	.L187
2107:Drivers/STM32F1xx_HAL_Driver/Src/stm32f1xx_hal_spi.c ****   {
2108:Drivers/STM32F1xx_HAL_Driver/Src/stm32f1xx_hal_spi.c ****     /* return HAL_Error in case of error during Abort procedure */
2109:Drivers/STM32F1xx_HAL_Driver/Src/stm32f1xx_hal_spi.c ****     errorcode = HAL_ERROR;
 3570              		.loc 1 2109 15
 3571 0184 0123     		movs	r3, #1
 3572 0186 FB75     		strb	r3, [r7, #23]
 3573 0188 02E0     		b	.L188
 3574              	.L187:
2110:Drivers/STM32F1xx_HAL_Driver/Src/stm32f1xx_hal_spi.c ****   }
2111:Drivers/STM32F1xx_HAL_Driver/Src/stm32f1xx_hal_spi.c ****   else
2112:Drivers/STM32F1xx_HAL_Driver/Src/stm32f1xx_hal_spi.c ****   {
2113:Drivers/STM32F1xx_HAL_Driver/Src/stm32f1xx_hal_spi.c ****     /* Reset errorCode */
2114:Drivers/STM32F1xx_HAL_Driver/Src/stm32f1xx_hal_spi.c ****     hspi->ErrorCode = HAL_SPI_ERROR_NONE;
 3575              		.loc 1 2114 21
 3576 018a 7B68     		ldr	r3, [r7, #4]
 3577 018c 0022     		movs	r2, #0
 3578 018e 5A65     		str	r2, [r3, #84]
 3579              	.L188:
 3580              	.LBB4:
2115:Drivers/STM32F1xx_HAL_Driver/Src/stm32f1xx_hal_spi.c ****   }
2116:Drivers/STM32F1xx_HAL_Driver/Src/stm32f1xx_hal_spi.c **** 
2117:Drivers/STM32F1xx_HAL_Driver/Src/stm32f1xx_hal_spi.c ****   /* Clear the Error flags in the SR register */
2118:Drivers/STM32F1xx_HAL_Driver/Src/stm32f1xx_hal_spi.c ****   __HAL_SPI_CLEAR_OVRFLAG(hspi);
 3581              		.loc 1 2118 3
 3582 0190 0023     		movs	r3, #0
 3583 0192 BB60     		str	r3, [r7, #8]
 3584 0194 7B68     		ldr	r3, [r7, #4]
 3585 0196 1B68     		ldr	r3, [r3]
ARM GAS  C:\Users\Alex\AppData\Local\Temp\ccfYuLQH.s 			page 101


 3586 0198 DB68     		ldr	r3, [r3, #12]
 3587 019a BB60     		str	r3, [r7, #8]
 3588 019c 7B68     		ldr	r3, [r7, #4]
 3589 019e 1B68     		ldr	r3, [r3]
 3590 01a0 9B68     		ldr	r3, [r3, #8]
 3591 01a2 BB60     		str	r3, [r7, #8]
 3592 01a4 BB68     		ldr	r3, [r7, #8]
 3593              	.LBE4:
2119:Drivers/STM32F1xx_HAL_Driver/Src/stm32f1xx_hal_spi.c **** 
2120:Drivers/STM32F1xx_HAL_Driver/Src/stm32f1xx_hal_spi.c ****   /* Restore hspi->state to ready */
2121:Drivers/STM32F1xx_HAL_Driver/Src/stm32f1xx_hal_spi.c ****   hspi->State = HAL_SPI_STATE_READY;
 3594              		.loc 1 2121 15
 3595 01a6 7B68     		ldr	r3, [r7, #4]
 3596 01a8 0122     		movs	r2, #1
 3597 01aa 83F85120 		strb	r2, [r3, #81]
2122:Drivers/STM32F1xx_HAL_Driver/Src/stm32f1xx_hal_spi.c **** 
2123:Drivers/STM32F1xx_HAL_Driver/Src/stm32f1xx_hal_spi.c ****   return errorcode;
 3598              		.loc 1 2123 10
 3599 01ae FB7D     		ldrb	r3, [r7, #23]	@ zero_extendqisi2
2124:Drivers/STM32F1xx_HAL_Driver/Src/stm32f1xx_hal_spi.c **** }
 3600              		.loc 1 2124 1
 3601 01b0 1846     		mov	r0, r3
 3602 01b2 1837     		adds	r7, r7, #24
 3603              	.LCFI72:
 3604              		.cfi_def_cfa_offset 8
 3605 01b4 BD46     		mov	sp, r7
 3606              	.LCFI73:
 3607              		.cfi_def_cfa_register 13
 3608              		@ sp needed
 3609 01b6 80BD     		pop	{r7, pc}
 3610              	.L191:
 3611              		.align	2
 3612              	.L190:
 3613 01b8 00000000 		.word	SystemCoreClock
 3614 01bc F1197605 		.word	91625969
 3615 01c0 00000000 		.word	SPI_AbortTx_ISR
 3616 01c4 00000000 		.word	SPI_AbortRx_ISR
 3617              		.cfi_endproc
 3618              	.LFE78:
 3620              		.section	.text.HAL_SPI_Abort_IT,"ax",%progbits
 3621              		.align	1
 3622              		.global	HAL_SPI_Abort_IT
 3623              		.syntax unified
 3624              		.thumb
 3625              		.thumb_func
 3626              		.fpu softvfp
 3628              	HAL_SPI_Abort_IT:
 3629              	.LFB79:
2125:Drivers/STM32F1xx_HAL_Driver/Src/stm32f1xx_hal_spi.c **** 
2126:Drivers/STM32F1xx_HAL_Driver/Src/stm32f1xx_hal_spi.c **** /**
2127:Drivers/STM32F1xx_HAL_Driver/Src/stm32f1xx_hal_spi.c ****   * @brief  Abort ongoing transfer (Interrupt mode).
2128:Drivers/STM32F1xx_HAL_Driver/Src/stm32f1xx_hal_spi.c ****   * @param  hspi SPI handle.
2129:Drivers/STM32F1xx_HAL_Driver/Src/stm32f1xx_hal_spi.c ****   * @note   This procedure could be used for aborting any ongoing transfer (Tx and Rx),
2130:Drivers/STM32F1xx_HAL_Driver/Src/stm32f1xx_hal_spi.c ****   *         started in Interrupt or DMA mode.
2131:Drivers/STM32F1xx_HAL_Driver/Src/stm32f1xx_hal_spi.c ****   *         This procedure performs following operations :
2132:Drivers/STM32F1xx_HAL_Driver/Src/stm32f1xx_hal_spi.c ****   *           - Disable SPI Interrupts (depending of transfer direction)
2133:Drivers/STM32F1xx_HAL_Driver/Src/stm32f1xx_hal_spi.c ****   *           - Disable the DMA transfer in the peripheral register (if enabled)
ARM GAS  C:\Users\Alex\AppData\Local\Temp\ccfYuLQH.s 			page 102


2134:Drivers/STM32F1xx_HAL_Driver/Src/stm32f1xx_hal_spi.c ****   *           - Abort DMA transfer by calling HAL_DMA_Abort_IT (in case of transfer in DMA mode)
2135:Drivers/STM32F1xx_HAL_Driver/Src/stm32f1xx_hal_spi.c ****   *           - Set handle State to READY
2136:Drivers/STM32F1xx_HAL_Driver/Src/stm32f1xx_hal_spi.c ****   *           - At abort completion, call user abort complete callback
2137:Drivers/STM32F1xx_HAL_Driver/Src/stm32f1xx_hal_spi.c ****   * @note   This procedure is executed in Interrupt mode, meaning that abort procedure could be
2138:Drivers/STM32F1xx_HAL_Driver/Src/stm32f1xx_hal_spi.c ****   *         considered as completed only when user abort complete callback is executed (not when ex
2139:Drivers/STM32F1xx_HAL_Driver/Src/stm32f1xx_hal_spi.c ****   * @retval HAL status
2140:Drivers/STM32F1xx_HAL_Driver/Src/stm32f1xx_hal_spi.c ****   */
2141:Drivers/STM32F1xx_HAL_Driver/Src/stm32f1xx_hal_spi.c **** HAL_StatusTypeDef HAL_SPI_Abort_IT(SPI_HandleTypeDef *hspi)
2142:Drivers/STM32F1xx_HAL_Driver/Src/stm32f1xx_hal_spi.c **** {
 3630              		.loc 1 2142 1
 3631              		.cfi_startproc
 3632              		@ args = 0, pretend = 0, frame = 32
 3633              		@ frame_needed = 1, uses_anonymous_args = 0
 3634 0000 80B5     		push	{r7, lr}
 3635              	.LCFI74:
 3636              		.cfi_def_cfa_offset 8
 3637              		.cfi_offset 7, -8
 3638              		.cfi_offset 14, -4
 3639 0002 88B0     		sub	sp, sp, #32
 3640              	.LCFI75:
 3641              		.cfi_def_cfa_offset 40
 3642 0004 00AF     		add	r7, sp, #0
 3643              	.LCFI76:
 3644              		.cfi_def_cfa_register 7
 3645 0006 7860     		str	r0, [r7, #4]
2143:Drivers/STM32F1xx_HAL_Driver/Src/stm32f1xx_hal_spi.c ****   HAL_StatusTypeDef errorcode;
2144:Drivers/STM32F1xx_HAL_Driver/Src/stm32f1xx_hal_spi.c ****   uint32_t abortcplt ;
2145:Drivers/STM32F1xx_HAL_Driver/Src/stm32f1xx_hal_spi.c ****   __IO uint32_t count;
2146:Drivers/STM32F1xx_HAL_Driver/Src/stm32f1xx_hal_spi.c ****   __IO uint32_t resetcount;
2147:Drivers/STM32F1xx_HAL_Driver/Src/stm32f1xx_hal_spi.c **** 
2148:Drivers/STM32F1xx_HAL_Driver/Src/stm32f1xx_hal_spi.c ****   /* Initialized local variable  */
2149:Drivers/STM32F1xx_HAL_Driver/Src/stm32f1xx_hal_spi.c ****   errorcode = HAL_OK;
 3646              		.loc 1 2149 13
 3647 0008 0023     		movs	r3, #0
 3648 000a FB77     		strb	r3, [r7, #31]
2150:Drivers/STM32F1xx_HAL_Driver/Src/stm32f1xx_hal_spi.c ****   abortcplt = 1U;
 3649              		.loc 1 2150 13
 3650 000c 0123     		movs	r3, #1
 3651 000e BB61     		str	r3, [r7, #24]
2151:Drivers/STM32F1xx_HAL_Driver/Src/stm32f1xx_hal_spi.c ****   resetcount = SPI_DEFAULT_TIMEOUT * (SystemCoreClock / 24U / 1000U);
 3652              		.loc 1 2151 61
 3653 0010 6E4B     		ldr	r3, .L213
 3654 0012 1B68     		ldr	r3, [r3]
 3655 0014 6E4A     		ldr	r2, .L213+4
 3656 0016 A2FB0323 		umull	r2, r3, r2, r3
 3657 001a 5B0A     		lsrs	r3, r3, #9
 3658              		.loc 1 2151 36
 3659 001c 6422     		movs	r2, #100
 3660 001e 02FB03F3 		mul	r3, r2, r3
 3661              		.loc 1 2151 14
 3662 0022 3B61     		str	r3, [r7, #16]
2152:Drivers/STM32F1xx_HAL_Driver/Src/stm32f1xx_hal_spi.c ****   count = resetcount;
 3663              		.loc 1 2152 9
 3664 0024 3B69     		ldr	r3, [r7, #16]
 3665 0026 7B61     		str	r3, [r7, #20]
2153:Drivers/STM32F1xx_HAL_Driver/Src/stm32f1xx_hal_spi.c **** 
2154:Drivers/STM32F1xx_HAL_Driver/Src/stm32f1xx_hal_spi.c ****   /* Clear ERRIE interrupt to avoid error interrupts generation during Abort procedure */
ARM GAS  C:\Users\Alex\AppData\Local\Temp\ccfYuLQH.s 			page 103


2155:Drivers/STM32F1xx_HAL_Driver/Src/stm32f1xx_hal_spi.c ****   CLEAR_BIT(hspi->Instance->CR2, SPI_CR2_ERRIE);
 3666              		.loc 1 2155 3
 3667 0028 7B68     		ldr	r3, [r7, #4]
 3668 002a 1B68     		ldr	r3, [r3]
 3669 002c 5A68     		ldr	r2, [r3, #4]
 3670 002e 7B68     		ldr	r3, [r7, #4]
 3671 0030 1B68     		ldr	r3, [r3]
 3672 0032 22F02002 		bic	r2, r2, #32
 3673 0036 5A60     		str	r2, [r3, #4]
2156:Drivers/STM32F1xx_HAL_Driver/Src/stm32f1xx_hal_spi.c **** 
2157:Drivers/STM32F1xx_HAL_Driver/Src/stm32f1xx_hal_spi.c ****   /* Change Rx and Tx Irq Handler to Disable TXEIE, RXNEIE and ERRIE interrupts */
2158:Drivers/STM32F1xx_HAL_Driver/Src/stm32f1xx_hal_spi.c ****   if (HAL_IS_BIT_SET(hspi->Instance->CR2, SPI_CR2_TXEIE))
 3674              		.loc 1 2158 7
 3675 0038 7B68     		ldr	r3, [r7, #4]
 3676 003a 1B68     		ldr	r3, [r3]
 3677 003c 5B68     		ldr	r3, [r3, #4]
 3678 003e 03F08003 		and	r3, r3, #128
 3679              		.loc 1 2158 6
 3680 0042 002B     		cmp	r3, #0
 3681 0044 17D0     		beq	.L193
2159:Drivers/STM32F1xx_HAL_Driver/Src/stm32f1xx_hal_spi.c ****   {
2160:Drivers/STM32F1xx_HAL_Driver/Src/stm32f1xx_hal_spi.c ****     hspi->TxISR = SPI_AbortTx_ISR;
 3682              		.loc 1 2160 17
 3683 0046 7B68     		ldr	r3, [r7, #4]
 3684 0048 624A     		ldr	r2, .L213+8
 3685 004a 5A64     		str	r2, [r3, #68]
 3686              	.L196:
2161:Drivers/STM32F1xx_HAL_Driver/Src/stm32f1xx_hal_spi.c ****     /* Wait HAL_SPI_STATE_ABORT state */
2162:Drivers/STM32F1xx_HAL_Driver/Src/stm32f1xx_hal_spi.c ****     do
2163:Drivers/STM32F1xx_HAL_Driver/Src/stm32f1xx_hal_spi.c ****     {
2164:Drivers/STM32F1xx_HAL_Driver/Src/stm32f1xx_hal_spi.c ****       if (count == 0U)
 3687              		.loc 1 2164 17
 3688 004c 7B69     		ldr	r3, [r7, #20]
 3689              		.loc 1 2164 10
 3690 004e 002B     		cmp	r3, #0
 3691 0050 06D1     		bne	.L194
2165:Drivers/STM32F1xx_HAL_Driver/Src/stm32f1xx_hal_spi.c ****       {
2166:Drivers/STM32F1xx_HAL_Driver/Src/stm32f1xx_hal_spi.c ****         SET_BIT(hspi->ErrorCode, HAL_SPI_ERROR_ABORT);
 3692              		.loc 1 2166 9
 3693 0052 7B68     		ldr	r3, [r7, #4]
 3694 0054 5B6D     		ldr	r3, [r3, #84]
 3695 0056 43F04002 		orr	r2, r3, #64
 3696 005a 7B68     		ldr	r3, [r7, #4]
 3697 005c 5A65     		str	r2, [r3, #84]
2167:Drivers/STM32F1xx_HAL_Driver/Src/stm32f1xx_hal_spi.c ****         break;
 3698              		.loc 1 2167 9
 3699 005e 08E0     		b	.L195
 3700              	.L194:
2168:Drivers/STM32F1xx_HAL_Driver/Src/stm32f1xx_hal_spi.c ****       }
2169:Drivers/STM32F1xx_HAL_Driver/Src/stm32f1xx_hal_spi.c ****       count--;
 3701              		.loc 1 2169 12
 3702 0060 7B69     		ldr	r3, [r7, #20]
 3703 0062 013B     		subs	r3, r3, #1
 3704 0064 7B61     		str	r3, [r7, #20]
2170:Drivers/STM32F1xx_HAL_Driver/Src/stm32f1xx_hal_spi.c ****     } while (hspi->State != HAL_SPI_STATE_ABORT);
 3705              		.loc 1 2170 18
 3706 0066 7B68     		ldr	r3, [r7, #4]
ARM GAS  C:\Users\Alex\AppData\Local\Temp\ccfYuLQH.s 			page 104


 3707 0068 93F85130 		ldrb	r3, [r3, #81]
 3708 006c DBB2     		uxtb	r3, r3
 3709              		.loc 1 2170 5
 3710 006e 072B     		cmp	r3, #7
 3711 0070 ECD1     		bne	.L196
 3712              	.L195:
2171:Drivers/STM32F1xx_HAL_Driver/Src/stm32f1xx_hal_spi.c ****     /* Reset Timeout Counter */
2172:Drivers/STM32F1xx_HAL_Driver/Src/stm32f1xx_hal_spi.c ****     count = resetcount;
 3713              		.loc 1 2172 11
 3714 0072 3B69     		ldr	r3, [r7, #16]
 3715 0074 7B61     		str	r3, [r7, #20]
 3716              	.L193:
2173:Drivers/STM32F1xx_HAL_Driver/Src/stm32f1xx_hal_spi.c ****   }
2174:Drivers/STM32F1xx_HAL_Driver/Src/stm32f1xx_hal_spi.c **** 
2175:Drivers/STM32F1xx_HAL_Driver/Src/stm32f1xx_hal_spi.c ****   if (HAL_IS_BIT_SET(hspi->Instance->CR2, SPI_CR2_RXNEIE))
 3717              		.loc 1 2175 7
 3718 0076 7B68     		ldr	r3, [r7, #4]
 3719 0078 1B68     		ldr	r3, [r3]
 3720 007a 5B68     		ldr	r3, [r3, #4]
 3721 007c 03F04003 		and	r3, r3, #64
 3722              		.loc 1 2175 6
 3723 0080 002B     		cmp	r3, #0
 3724 0082 17D0     		beq	.L197
2176:Drivers/STM32F1xx_HAL_Driver/Src/stm32f1xx_hal_spi.c ****   {
2177:Drivers/STM32F1xx_HAL_Driver/Src/stm32f1xx_hal_spi.c ****     hspi->RxISR = SPI_AbortRx_ISR;
 3725              		.loc 1 2177 17
 3726 0084 7B68     		ldr	r3, [r7, #4]
 3727 0086 544A     		ldr	r2, .L213+12
 3728 0088 1A64     		str	r2, [r3, #64]
 3729              	.L200:
2178:Drivers/STM32F1xx_HAL_Driver/Src/stm32f1xx_hal_spi.c ****     /* Wait HAL_SPI_STATE_ABORT state */
2179:Drivers/STM32F1xx_HAL_Driver/Src/stm32f1xx_hal_spi.c ****     do
2180:Drivers/STM32F1xx_HAL_Driver/Src/stm32f1xx_hal_spi.c ****     {
2181:Drivers/STM32F1xx_HAL_Driver/Src/stm32f1xx_hal_spi.c ****       if (count == 0U)
 3730              		.loc 1 2181 17
 3731 008a 7B69     		ldr	r3, [r7, #20]
 3732              		.loc 1 2181 10
 3733 008c 002B     		cmp	r3, #0
 3734 008e 06D1     		bne	.L198
2182:Drivers/STM32F1xx_HAL_Driver/Src/stm32f1xx_hal_spi.c ****       {
2183:Drivers/STM32F1xx_HAL_Driver/Src/stm32f1xx_hal_spi.c ****         SET_BIT(hspi->ErrorCode, HAL_SPI_ERROR_ABORT);
 3735              		.loc 1 2183 9
 3736 0090 7B68     		ldr	r3, [r7, #4]
 3737 0092 5B6D     		ldr	r3, [r3, #84]
 3738 0094 43F04002 		orr	r2, r3, #64
 3739 0098 7B68     		ldr	r3, [r7, #4]
 3740 009a 5A65     		str	r2, [r3, #84]
2184:Drivers/STM32F1xx_HAL_Driver/Src/stm32f1xx_hal_spi.c ****         break;
 3741              		.loc 1 2184 9
 3742 009c 08E0     		b	.L199
 3743              	.L198:
2185:Drivers/STM32F1xx_HAL_Driver/Src/stm32f1xx_hal_spi.c ****       }
2186:Drivers/STM32F1xx_HAL_Driver/Src/stm32f1xx_hal_spi.c ****       count--;
 3744              		.loc 1 2186 12
 3745 009e 7B69     		ldr	r3, [r7, #20]
 3746 00a0 013B     		subs	r3, r3, #1
 3747 00a2 7B61     		str	r3, [r7, #20]
ARM GAS  C:\Users\Alex\AppData\Local\Temp\ccfYuLQH.s 			page 105


2187:Drivers/STM32F1xx_HAL_Driver/Src/stm32f1xx_hal_spi.c ****     } while (hspi->State != HAL_SPI_STATE_ABORT);
 3748              		.loc 1 2187 18
 3749 00a4 7B68     		ldr	r3, [r7, #4]
 3750 00a6 93F85130 		ldrb	r3, [r3, #81]
 3751 00aa DBB2     		uxtb	r3, r3
 3752              		.loc 1 2187 5
 3753 00ac 072B     		cmp	r3, #7
 3754 00ae ECD1     		bne	.L200
 3755              	.L199:
2188:Drivers/STM32F1xx_HAL_Driver/Src/stm32f1xx_hal_spi.c ****     /* Reset Timeout Counter */
2189:Drivers/STM32F1xx_HAL_Driver/Src/stm32f1xx_hal_spi.c ****     count = resetcount;
 3756              		.loc 1 2189 11
 3757 00b0 3B69     		ldr	r3, [r7, #16]
 3758 00b2 7B61     		str	r3, [r7, #20]
 3759              	.L197:
2190:Drivers/STM32F1xx_HAL_Driver/Src/stm32f1xx_hal_spi.c ****   }
2191:Drivers/STM32F1xx_HAL_Driver/Src/stm32f1xx_hal_spi.c **** 
2192:Drivers/STM32F1xx_HAL_Driver/Src/stm32f1xx_hal_spi.c ****   /* If DMA Tx and/or DMA Rx Handles are associated to SPI Handle, DMA Abort complete callbacks sho
2193:Drivers/STM32F1xx_HAL_Driver/Src/stm32f1xx_hal_spi.c ****      before any call to DMA Abort functions */
2194:Drivers/STM32F1xx_HAL_Driver/Src/stm32f1xx_hal_spi.c ****   /* DMA Tx Handle is valid */
2195:Drivers/STM32F1xx_HAL_Driver/Src/stm32f1xx_hal_spi.c ****   if (hspi->hdmatx != NULL)
 3760              		.loc 1 2195 11
 3761 00b4 7B68     		ldr	r3, [r7, #4]
 3762 00b6 9B6C     		ldr	r3, [r3, #72]
 3763              		.loc 1 2195 6
 3764 00b8 002B     		cmp	r3, #0
 3765 00ba 0FD0     		beq	.L201
2196:Drivers/STM32F1xx_HAL_Driver/Src/stm32f1xx_hal_spi.c ****   {
2197:Drivers/STM32F1xx_HAL_Driver/Src/stm32f1xx_hal_spi.c ****     /* Set DMA Abort Complete callback if UART DMA Tx request if enabled.
2198:Drivers/STM32F1xx_HAL_Driver/Src/stm32f1xx_hal_spi.c ****        Otherwise, set it to NULL */
2199:Drivers/STM32F1xx_HAL_Driver/Src/stm32f1xx_hal_spi.c ****     if (HAL_IS_BIT_SET(hspi->Instance->CR2, SPI_CR2_TXDMAEN))
 3766              		.loc 1 2199 9
 3767 00bc 7B68     		ldr	r3, [r7, #4]
 3768 00be 1B68     		ldr	r3, [r3]
 3769 00c0 5B68     		ldr	r3, [r3, #4]
 3770 00c2 03F00203 		and	r3, r3, #2
 3771              		.loc 1 2199 8
 3772 00c6 002B     		cmp	r3, #0
 3773 00c8 04D0     		beq	.L202
2200:Drivers/STM32F1xx_HAL_Driver/Src/stm32f1xx_hal_spi.c ****     {
2201:Drivers/STM32F1xx_HAL_Driver/Src/stm32f1xx_hal_spi.c ****       hspi->hdmatx->XferAbortCallback = SPI_DMATxAbortCallback;
 3774              		.loc 1 2201 11
 3775 00ca 7B68     		ldr	r3, [r7, #4]
 3776 00cc 9B6C     		ldr	r3, [r3, #72]
 3777              		.loc 1 2201 39
 3778 00ce 434A     		ldr	r2, .L213+16
 3779 00d0 5A63     		str	r2, [r3, #52]
 3780 00d2 03E0     		b	.L201
 3781              	.L202:
2202:Drivers/STM32F1xx_HAL_Driver/Src/stm32f1xx_hal_spi.c ****     }
2203:Drivers/STM32F1xx_HAL_Driver/Src/stm32f1xx_hal_spi.c ****     else
2204:Drivers/STM32F1xx_HAL_Driver/Src/stm32f1xx_hal_spi.c ****     {
2205:Drivers/STM32F1xx_HAL_Driver/Src/stm32f1xx_hal_spi.c ****       hspi->hdmatx->XferAbortCallback = NULL;
 3782              		.loc 1 2205 11
 3783 00d4 7B68     		ldr	r3, [r7, #4]
 3784 00d6 9B6C     		ldr	r3, [r3, #72]
 3785              		.loc 1 2205 39
ARM GAS  C:\Users\Alex\AppData\Local\Temp\ccfYuLQH.s 			page 106


 3786 00d8 0022     		movs	r2, #0
 3787 00da 5A63     		str	r2, [r3, #52]
 3788              	.L201:
2206:Drivers/STM32F1xx_HAL_Driver/Src/stm32f1xx_hal_spi.c ****     }
2207:Drivers/STM32F1xx_HAL_Driver/Src/stm32f1xx_hal_spi.c ****   }
2208:Drivers/STM32F1xx_HAL_Driver/Src/stm32f1xx_hal_spi.c ****   /* DMA Rx Handle is valid */
2209:Drivers/STM32F1xx_HAL_Driver/Src/stm32f1xx_hal_spi.c ****   if (hspi->hdmarx != NULL)
 3789              		.loc 1 2209 11
 3790 00dc 7B68     		ldr	r3, [r7, #4]
 3791 00de DB6C     		ldr	r3, [r3, #76]
 3792              		.loc 1 2209 6
 3793 00e0 002B     		cmp	r3, #0
 3794 00e2 0FD0     		beq	.L203
2210:Drivers/STM32F1xx_HAL_Driver/Src/stm32f1xx_hal_spi.c ****   {
2211:Drivers/STM32F1xx_HAL_Driver/Src/stm32f1xx_hal_spi.c ****     /* Set DMA Abort Complete callback if UART DMA Rx request if enabled.
2212:Drivers/STM32F1xx_HAL_Driver/Src/stm32f1xx_hal_spi.c ****        Otherwise, set it to NULL */
2213:Drivers/STM32F1xx_HAL_Driver/Src/stm32f1xx_hal_spi.c ****     if (HAL_IS_BIT_SET(hspi->Instance->CR2, SPI_CR2_RXDMAEN))
 3795              		.loc 1 2213 9
 3796 00e4 7B68     		ldr	r3, [r7, #4]
 3797 00e6 1B68     		ldr	r3, [r3]
 3798 00e8 5B68     		ldr	r3, [r3, #4]
 3799 00ea 03F00103 		and	r3, r3, #1
 3800              		.loc 1 2213 8
 3801 00ee 002B     		cmp	r3, #0
 3802 00f0 04D0     		beq	.L204
2214:Drivers/STM32F1xx_HAL_Driver/Src/stm32f1xx_hal_spi.c ****     {
2215:Drivers/STM32F1xx_HAL_Driver/Src/stm32f1xx_hal_spi.c ****       hspi->hdmarx->XferAbortCallback = SPI_DMARxAbortCallback;
 3803              		.loc 1 2215 11
 3804 00f2 7B68     		ldr	r3, [r7, #4]
 3805 00f4 DB6C     		ldr	r3, [r3, #76]
 3806              		.loc 1 2215 39
 3807 00f6 3A4A     		ldr	r2, .L213+20
 3808 00f8 5A63     		str	r2, [r3, #52]
 3809 00fa 03E0     		b	.L203
 3810              	.L204:
2216:Drivers/STM32F1xx_HAL_Driver/Src/stm32f1xx_hal_spi.c ****     }
2217:Drivers/STM32F1xx_HAL_Driver/Src/stm32f1xx_hal_spi.c ****     else
2218:Drivers/STM32F1xx_HAL_Driver/Src/stm32f1xx_hal_spi.c ****     {
2219:Drivers/STM32F1xx_HAL_Driver/Src/stm32f1xx_hal_spi.c ****       hspi->hdmarx->XferAbortCallback = NULL;
 3811              		.loc 1 2219 11
 3812 00fc 7B68     		ldr	r3, [r7, #4]
 3813 00fe DB6C     		ldr	r3, [r3, #76]
 3814              		.loc 1 2219 39
 3815 0100 0022     		movs	r2, #0
 3816 0102 5A63     		str	r2, [r3, #52]
 3817              	.L203:
2220:Drivers/STM32F1xx_HAL_Driver/Src/stm32f1xx_hal_spi.c ****     }
2221:Drivers/STM32F1xx_HAL_Driver/Src/stm32f1xx_hal_spi.c ****   }
2222:Drivers/STM32F1xx_HAL_Driver/Src/stm32f1xx_hal_spi.c **** 
2223:Drivers/STM32F1xx_HAL_Driver/Src/stm32f1xx_hal_spi.c ****   /* Disable the SPI DMA Tx request if enabled */
2224:Drivers/STM32F1xx_HAL_Driver/Src/stm32f1xx_hal_spi.c ****   if (HAL_IS_BIT_SET(hspi->Instance->CR2, SPI_CR2_TXDMAEN))
 3818              		.loc 1 2224 7
 3819 0104 7B68     		ldr	r3, [r7, #4]
 3820 0106 1B68     		ldr	r3, [r3]
 3821 0108 5B68     		ldr	r3, [r3, #4]
 3822 010a 03F00203 		and	r3, r3, #2
 3823              		.loc 1 2224 6
ARM GAS  C:\Users\Alex\AppData\Local\Temp\ccfYuLQH.s 			page 107


 3824 010e 002B     		cmp	r3, #0
 3825 0110 15D0     		beq	.L205
2225:Drivers/STM32F1xx_HAL_Driver/Src/stm32f1xx_hal_spi.c ****   {
2226:Drivers/STM32F1xx_HAL_Driver/Src/stm32f1xx_hal_spi.c ****     /* Abort the SPI DMA Tx Stream/Channel */
2227:Drivers/STM32F1xx_HAL_Driver/Src/stm32f1xx_hal_spi.c ****     if (hspi->hdmatx != NULL)
 3826              		.loc 1 2227 13
 3827 0112 7B68     		ldr	r3, [r7, #4]
 3828 0114 9B6C     		ldr	r3, [r3, #72]
 3829              		.loc 1 2227 8
 3830 0116 002B     		cmp	r3, #0
 3831 0118 11D0     		beq	.L205
2228:Drivers/STM32F1xx_HAL_Driver/Src/stm32f1xx_hal_spi.c ****     {
2229:Drivers/STM32F1xx_HAL_Driver/Src/stm32f1xx_hal_spi.c ****       /* Abort DMA Tx Handle linked to SPI Peripheral */
2230:Drivers/STM32F1xx_HAL_Driver/Src/stm32f1xx_hal_spi.c ****       if (HAL_DMA_Abort_IT(hspi->hdmatx) != HAL_OK)
 3832              		.loc 1 2230 11
 3833 011a 7B68     		ldr	r3, [r7, #4]
 3834 011c 9B6C     		ldr	r3, [r3, #72]
 3835 011e 1846     		mov	r0, r3
 3836 0120 FFF7FEFF 		bl	HAL_DMA_Abort_IT
 3837 0124 0346     		mov	r3, r0
 3838              		.loc 1 2230 10
 3839 0126 002B     		cmp	r3, #0
 3840 0128 07D0     		beq	.L206
2231:Drivers/STM32F1xx_HAL_Driver/Src/stm32f1xx_hal_spi.c ****       {
2232:Drivers/STM32F1xx_HAL_Driver/Src/stm32f1xx_hal_spi.c ****         hspi->hdmatx->XferAbortCallback = NULL;
 3841              		.loc 1 2232 13
 3842 012a 7B68     		ldr	r3, [r7, #4]
 3843 012c 9B6C     		ldr	r3, [r3, #72]
 3844              		.loc 1 2232 41
 3845 012e 0022     		movs	r2, #0
 3846 0130 5A63     		str	r2, [r3, #52]
2233:Drivers/STM32F1xx_HAL_Driver/Src/stm32f1xx_hal_spi.c ****         hspi->ErrorCode = HAL_SPI_ERROR_ABORT;
 3847              		.loc 1 2233 25
 3848 0132 7B68     		ldr	r3, [r7, #4]
 3849 0134 4022     		movs	r2, #64
 3850 0136 5A65     		str	r2, [r3, #84]
 3851 0138 01E0     		b	.L205
 3852              	.L206:
2234:Drivers/STM32F1xx_HAL_Driver/Src/stm32f1xx_hal_spi.c ****       }
2235:Drivers/STM32F1xx_HAL_Driver/Src/stm32f1xx_hal_spi.c ****       else
2236:Drivers/STM32F1xx_HAL_Driver/Src/stm32f1xx_hal_spi.c ****       {
2237:Drivers/STM32F1xx_HAL_Driver/Src/stm32f1xx_hal_spi.c ****         abortcplt = 0U;
 3853              		.loc 1 2237 19
 3854 013a 0023     		movs	r3, #0
 3855 013c BB61     		str	r3, [r7, #24]
 3856              	.L205:
2238:Drivers/STM32F1xx_HAL_Driver/Src/stm32f1xx_hal_spi.c ****       }
2239:Drivers/STM32F1xx_HAL_Driver/Src/stm32f1xx_hal_spi.c ****     }
2240:Drivers/STM32F1xx_HAL_Driver/Src/stm32f1xx_hal_spi.c ****   }
2241:Drivers/STM32F1xx_HAL_Driver/Src/stm32f1xx_hal_spi.c ****   /* Disable the SPI DMA Rx request if enabled */
2242:Drivers/STM32F1xx_HAL_Driver/Src/stm32f1xx_hal_spi.c ****   if (HAL_IS_BIT_SET(hspi->Instance->CR2, SPI_CR2_RXDMAEN))
 3857              		.loc 1 2242 7
 3858 013e 7B68     		ldr	r3, [r7, #4]
 3859 0140 1B68     		ldr	r3, [r3]
 3860 0142 5B68     		ldr	r3, [r3, #4]
 3861 0144 03F00103 		and	r3, r3, #1
 3862              		.loc 1 2242 6
ARM GAS  C:\Users\Alex\AppData\Local\Temp\ccfYuLQH.s 			page 108


 3863 0148 002B     		cmp	r3, #0
 3864 014a 15D0     		beq	.L207
2243:Drivers/STM32F1xx_HAL_Driver/Src/stm32f1xx_hal_spi.c ****   {
2244:Drivers/STM32F1xx_HAL_Driver/Src/stm32f1xx_hal_spi.c ****     /* Abort the SPI DMA Rx Stream/Channel */
2245:Drivers/STM32F1xx_HAL_Driver/Src/stm32f1xx_hal_spi.c ****     if (hspi->hdmarx != NULL)
 3865              		.loc 1 2245 13
 3866 014c 7B68     		ldr	r3, [r7, #4]
 3867 014e DB6C     		ldr	r3, [r3, #76]
 3868              		.loc 1 2245 8
 3869 0150 002B     		cmp	r3, #0
 3870 0152 11D0     		beq	.L207
2246:Drivers/STM32F1xx_HAL_Driver/Src/stm32f1xx_hal_spi.c ****     {
2247:Drivers/STM32F1xx_HAL_Driver/Src/stm32f1xx_hal_spi.c ****       /* Abort DMA Rx Handle linked to SPI Peripheral */
2248:Drivers/STM32F1xx_HAL_Driver/Src/stm32f1xx_hal_spi.c ****       if (HAL_DMA_Abort_IT(hspi->hdmarx) !=  HAL_OK)
 3871              		.loc 1 2248 11
 3872 0154 7B68     		ldr	r3, [r7, #4]
 3873 0156 DB6C     		ldr	r3, [r3, #76]
 3874 0158 1846     		mov	r0, r3
 3875 015a FFF7FEFF 		bl	HAL_DMA_Abort_IT
 3876 015e 0346     		mov	r3, r0
 3877              		.loc 1 2248 10
 3878 0160 002B     		cmp	r3, #0
 3879 0162 07D0     		beq	.L208
2249:Drivers/STM32F1xx_HAL_Driver/Src/stm32f1xx_hal_spi.c ****       {
2250:Drivers/STM32F1xx_HAL_Driver/Src/stm32f1xx_hal_spi.c ****         hspi->hdmarx->XferAbortCallback = NULL;
 3880              		.loc 1 2250 13
 3881 0164 7B68     		ldr	r3, [r7, #4]
 3882 0166 DB6C     		ldr	r3, [r3, #76]
 3883              		.loc 1 2250 41
 3884 0168 0022     		movs	r2, #0
 3885 016a 5A63     		str	r2, [r3, #52]
2251:Drivers/STM32F1xx_HAL_Driver/Src/stm32f1xx_hal_spi.c ****         hspi->ErrorCode = HAL_SPI_ERROR_ABORT;
 3886              		.loc 1 2251 25
 3887 016c 7B68     		ldr	r3, [r7, #4]
 3888 016e 4022     		movs	r2, #64
 3889 0170 5A65     		str	r2, [r3, #84]
 3890 0172 01E0     		b	.L207
 3891              	.L208:
2252:Drivers/STM32F1xx_HAL_Driver/Src/stm32f1xx_hal_spi.c ****       }
2253:Drivers/STM32F1xx_HAL_Driver/Src/stm32f1xx_hal_spi.c ****       else
2254:Drivers/STM32F1xx_HAL_Driver/Src/stm32f1xx_hal_spi.c ****       {
2255:Drivers/STM32F1xx_HAL_Driver/Src/stm32f1xx_hal_spi.c ****         abortcplt = 0U;
 3892              		.loc 1 2255 19
 3893 0174 0023     		movs	r3, #0
 3894 0176 BB61     		str	r3, [r7, #24]
 3895              	.L207:
2256:Drivers/STM32F1xx_HAL_Driver/Src/stm32f1xx_hal_spi.c ****       }
2257:Drivers/STM32F1xx_HAL_Driver/Src/stm32f1xx_hal_spi.c ****     }
2258:Drivers/STM32F1xx_HAL_Driver/Src/stm32f1xx_hal_spi.c ****   }
2259:Drivers/STM32F1xx_HAL_Driver/Src/stm32f1xx_hal_spi.c **** 
2260:Drivers/STM32F1xx_HAL_Driver/Src/stm32f1xx_hal_spi.c ****   if (abortcplt == 1U)
 3896              		.loc 1 2260 6
 3897 0178 BB69     		ldr	r3, [r7, #24]
 3898 017a 012B     		cmp	r3, #1
 3899 017c 21D1     		bne	.L209
2261:Drivers/STM32F1xx_HAL_Driver/Src/stm32f1xx_hal_spi.c ****   {
2262:Drivers/STM32F1xx_HAL_Driver/Src/stm32f1xx_hal_spi.c ****     /* Reset Tx and Rx transfer counters */
ARM GAS  C:\Users\Alex\AppData\Local\Temp\ccfYuLQH.s 			page 109


2263:Drivers/STM32F1xx_HAL_Driver/Src/stm32f1xx_hal_spi.c ****     hspi->RxXferCount = 0U;
 3900              		.loc 1 2263 23
 3901 017e 7B68     		ldr	r3, [r7, #4]
 3902 0180 0022     		movs	r2, #0
 3903 0182 DA87     		strh	r2, [r3, #62]	@ movhi
2264:Drivers/STM32F1xx_HAL_Driver/Src/stm32f1xx_hal_spi.c ****     hspi->TxXferCount = 0U;
 3904              		.loc 1 2264 23
 3905 0184 7B68     		ldr	r3, [r7, #4]
 3906 0186 0022     		movs	r2, #0
 3907 0188 DA86     		strh	r2, [r3, #54]	@ movhi
2265:Drivers/STM32F1xx_HAL_Driver/Src/stm32f1xx_hal_spi.c **** 
2266:Drivers/STM32F1xx_HAL_Driver/Src/stm32f1xx_hal_spi.c ****     /* Check error during Abort procedure */
2267:Drivers/STM32F1xx_HAL_Driver/Src/stm32f1xx_hal_spi.c ****     if (hspi->ErrorCode == HAL_SPI_ERROR_ABORT)
 3908              		.loc 1 2267 13
 3909 018a 7B68     		ldr	r3, [r7, #4]
 3910 018c 5B6D     		ldr	r3, [r3, #84]
 3911              		.loc 1 2267 8
 3912 018e 402B     		cmp	r3, #64
 3913 0190 02D1     		bne	.L210
2268:Drivers/STM32F1xx_HAL_Driver/Src/stm32f1xx_hal_spi.c ****     {
2269:Drivers/STM32F1xx_HAL_Driver/Src/stm32f1xx_hal_spi.c ****       /* return HAL_Error in case of error during Abort procedure */
2270:Drivers/STM32F1xx_HAL_Driver/Src/stm32f1xx_hal_spi.c ****       errorcode = HAL_ERROR;
 3914              		.loc 1 2270 17
 3915 0192 0123     		movs	r3, #1
 3916 0194 FB77     		strb	r3, [r7, #31]
 3917 0196 02E0     		b	.L211
 3918              	.L210:
2271:Drivers/STM32F1xx_HAL_Driver/Src/stm32f1xx_hal_spi.c ****     }
2272:Drivers/STM32F1xx_HAL_Driver/Src/stm32f1xx_hal_spi.c ****     else
2273:Drivers/STM32F1xx_HAL_Driver/Src/stm32f1xx_hal_spi.c ****     {
2274:Drivers/STM32F1xx_HAL_Driver/Src/stm32f1xx_hal_spi.c ****       /* Reset errorCode */
2275:Drivers/STM32F1xx_HAL_Driver/Src/stm32f1xx_hal_spi.c ****       hspi->ErrorCode = HAL_SPI_ERROR_NONE;
 3919              		.loc 1 2275 23
 3920 0198 7B68     		ldr	r3, [r7, #4]
 3921 019a 0022     		movs	r2, #0
 3922 019c 5A65     		str	r2, [r3, #84]
 3923              	.L211:
 3924              	.LBB5:
2276:Drivers/STM32F1xx_HAL_Driver/Src/stm32f1xx_hal_spi.c ****     }
2277:Drivers/STM32F1xx_HAL_Driver/Src/stm32f1xx_hal_spi.c **** 
2278:Drivers/STM32F1xx_HAL_Driver/Src/stm32f1xx_hal_spi.c ****     /* Clear the Error flags in the SR register */
2279:Drivers/STM32F1xx_HAL_Driver/Src/stm32f1xx_hal_spi.c ****     __HAL_SPI_CLEAR_OVRFLAG(hspi);
 3925              		.loc 1 2279 5
 3926 019e 0023     		movs	r3, #0
 3927 01a0 FB60     		str	r3, [r7, #12]
 3928 01a2 7B68     		ldr	r3, [r7, #4]
 3929 01a4 1B68     		ldr	r3, [r3]
 3930 01a6 DB68     		ldr	r3, [r3, #12]
 3931 01a8 FB60     		str	r3, [r7, #12]
 3932 01aa 7B68     		ldr	r3, [r7, #4]
 3933 01ac 1B68     		ldr	r3, [r3]
 3934 01ae 9B68     		ldr	r3, [r3, #8]
 3935 01b0 FB60     		str	r3, [r7, #12]
 3936 01b2 FB68     		ldr	r3, [r7, #12]
 3937              	.LBE5:
2280:Drivers/STM32F1xx_HAL_Driver/Src/stm32f1xx_hal_spi.c **** 
2281:Drivers/STM32F1xx_HAL_Driver/Src/stm32f1xx_hal_spi.c ****     /* Restore hspi->State to Ready */
ARM GAS  C:\Users\Alex\AppData\Local\Temp\ccfYuLQH.s 			page 110


2282:Drivers/STM32F1xx_HAL_Driver/Src/stm32f1xx_hal_spi.c ****     hspi->State = HAL_SPI_STATE_READY;
 3938              		.loc 1 2282 17
 3939 01b4 7B68     		ldr	r3, [r7, #4]
 3940 01b6 0122     		movs	r2, #1
 3941 01b8 83F85120 		strb	r2, [r3, #81]
2283:Drivers/STM32F1xx_HAL_Driver/Src/stm32f1xx_hal_spi.c **** 
2284:Drivers/STM32F1xx_HAL_Driver/Src/stm32f1xx_hal_spi.c ****     /* As no DMA to be aborted, call directly user Abort complete callback */
2285:Drivers/STM32F1xx_HAL_Driver/Src/stm32f1xx_hal_spi.c **** #if (USE_HAL_SPI_REGISTER_CALLBACKS == 1U)
2286:Drivers/STM32F1xx_HAL_Driver/Src/stm32f1xx_hal_spi.c ****     hspi->AbortCpltCallback(hspi);
2287:Drivers/STM32F1xx_HAL_Driver/Src/stm32f1xx_hal_spi.c **** #else
2288:Drivers/STM32F1xx_HAL_Driver/Src/stm32f1xx_hal_spi.c ****     HAL_SPI_AbortCpltCallback(hspi);
 3942              		.loc 1 2288 5
 3943 01bc 7868     		ldr	r0, [r7, #4]
 3944 01be FFF7FEFF 		bl	HAL_SPI_AbortCpltCallback
 3945              	.L209:
2289:Drivers/STM32F1xx_HAL_Driver/Src/stm32f1xx_hal_spi.c **** #endif /* USE_HAL_SPI_REGISTER_CALLBACKS */
2290:Drivers/STM32F1xx_HAL_Driver/Src/stm32f1xx_hal_spi.c ****   }
2291:Drivers/STM32F1xx_HAL_Driver/Src/stm32f1xx_hal_spi.c **** 
2292:Drivers/STM32F1xx_HAL_Driver/Src/stm32f1xx_hal_spi.c ****   return errorcode;
 3946              		.loc 1 2292 10
 3947 01c2 FB7F     		ldrb	r3, [r7, #31]	@ zero_extendqisi2
2293:Drivers/STM32F1xx_HAL_Driver/Src/stm32f1xx_hal_spi.c **** }
 3948              		.loc 1 2293 1
 3949 01c4 1846     		mov	r0, r3
 3950 01c6 2037     		adds	r7, r7, #32
 3951              	.LCFI77:
 3952              		.cfi_def_cfa_offset 8
 3953 01c8 BD46     		mov	sp, r7
 3954              	.LCFI78:
 3955              		.cfi_def_cfa_register 13
 3956              		@ sp needed
 3957 01ca 80BD     		pop	{r7, pc}
 3958              	.L214:
 3959              		.align	2
 3960              	.L213:
 3961 01cc 00000000 		.word	SystemCoreClock
 3962 01d0 F1197605 		.word	91625969
 3963 01d4 00000000 		.word	SPI_AbortTx_ISR
 3964 01d8 00000000 		.word	SPI_AbortRx_ISR
 3965 01dc 00000000 		.word	SPI_DMATxAbortCallback
 3966 01e0 00000000 		.word	SPI_DMARxAbortCallback
 3967              		.cfi_endproc
 3968              	.LFE79:
 3970              		.section	.text.HAL_SPI_DMAPause,"ax",%progbits
 3971              		.align	1
 3972              		.global	HAL_SPI_DMAPause
 3973              		.syntax unified
 3974              		.thumb
 3975              		.thumb_func
 3976              		.fpu softvfp
 3978              	HAL_SPI_DMAPause:
 3979              	.LFB80:
2294:Drivers/STM32F1xx_HAL_Driver/Src/stm32f1xx_hal_spi.c **** 
2295:Drivers/STM32F1xx_HAL_Driver/Src/stm32f1xx_hal_spi.c **** /**
2296:Drivers/STM32F1xx_HAL_Driver/Src/stm32f1xx_hal_spi.c ****   * @brief  Pause the DMA Transfer.
2297:Drivers/STM32F1xx_HAL_Driver/Src/stm32f1xx_hal_spi.c ****   * @param  hspi pointer to a SPI_HandleTypeDef structure that contains
2298:Drivers/STM32F1xx_HAL_Driver/Src/stm32f1xx_hal_spi.c ****   *               the configuration information for the specified SPI module.
ARM GAS  C:\Users\Alex\AppData\Local\Temp\ccfYuLQH.s 			page 111


2299:Drivers/STM32F1xx_HAL_Driver/Src/stm32f1xx_hal_spi.c ****   * @retval HAL status
2300:Drivers/STM32F1xx_HAL_Driver/Src/stm32f1xx_hal_spi.c ****   */
2301:Drivers/STM32F1xx_HAL_Driver/Src/stm32f1xx_hal_spi.c **** HAL_StatusTypeDef HAL_SPI_DMAPause(SPI_HandleTypeDef *hspi)
2302:Drivers/STM32F1xx_HAL_Driver/Src/stm32f1xx_hal_spi.c **** {
 3980              		.loc 1 2302 1
 3981              		.cfi_startproc
 3982              		@ args = 0, pretend = 0, frame = 8
 3983              		@ frame_needed = 1, uses_anonymous_args = 0
 3984              		@ link register save eliminated.
 3985 0000 80B4     		push	{r7}
 3986              	.LCFI79:
 3987              		.cfi_def_cfa_offset 4
 3988              		.cfi_offset 7, -4
 3989 0002 83B0     		sub	sp, sp, #12
 3990              	.LCFI80:
 3991              		.cfi_def_cfa_offset 16
 3992 0004 00AF     		add	r7, sp, #0
 3993              	.LCFI81:
 3994              		.cfi_def_cfa_register 7
 3995 0006 7860     		str	r0, [r7, #4]
2303:Drivers/STM32F1xx_HAL_Driver/Src/stm32f1xx_hal_spi.c ****   /* Process Locked */
2304:Drivers/STM32F1xx_HAL_Driver/Src/stm32f1xx_hal_spi.c ****   __HAL_LOCK(hspi);
 3996              		.loc 1 2304 3
 3997 0008 7B68     		ldr	r3, [r7, #4]
 3998 000a 93F85030 		ldrb	r3, [r3, #80]	@ zero_extendqisi2
 3999 000e 012B     		cmp	r3, #1
 4000 0010 01D1     		bne	.L216
 4001              		.loc 1 2304 3 is_stmt 0 discriminator 1
 4002 0012 0223     		movs	r3, #2
 4003 0014 10E0     		b	.L217
 4004              	.L216:
 4005              		.loc 1 2304 3 discriminator 2
 4006 0016 7B68     		ldr	r3, [r7, #4]
 4007 0018 0122     		movs	r2, #1
 4008 001a 83F85020 		strb	r2, [r3, #80]
2305:Drivers/STM32F1xx_HAL_Driver/Src/stm32f1xx_hal_spi.c **** 
2306:Drivers/STM32F1xx_HAL_Driver/Src/stm32f1xx_hal_spi.c ****   /* Disable the SPI DMA Tx & Rx requests */
2307:Drivers/STM32F1xx_HAL_Driver/Src/stm32f1xx_hal_spi.c ****   CLEAR_BIT(hspi->Instance->CR2, SPI_CR2_TXDMAEN | SPI_CR2_RXDMAEN);
 4009              		.loc 1 2307 3 is_stmt 1 discriminator 2
 4010 001e 7B68     		ldr	r3, [r7, #4]
 4011 0020 1B68     		ldr	r3, [r3]
 4012 0022 5A68     		ldr	r2, [r3, #4]
 4013 0024 7B68     		ldr	r3, [r7, #4]
 4014 0026 1B68     		ldr	r3, [r3]
 4015 0028 22F00302 		bic	r2, r2, #3
 4016 002c 5A60     		str	r2, [r3, #4]
2308:Drivers/STM32F1xx_HAL_Driver/Src/stm32f1xx_hal_spi.c **** 
2309:Drivers/STM32F1xx_HAL_Driver/Src/stm32f1xx_hal_spi.c ****   /* Process Unlocked */
2310:Drivers/STM32F1xx_HAL_Driver/Src/stm32f1xx_hal_spi.c ****   __HAL_UNLOCK(hspi);
 4017              		.loc 1 2310 3 discriminator 2
 4018 002e 7B68     		ldr	r3, [r7, #4]
 4019 0030 0022     		movs	r2, #0
 4020 0032 83F85020 		strb	r2, [r3, #80]
2311:Drivers/STM32F1xx_HAL_Driver/Src/stm32f1xx_hal_spi.c **** 
2312:Drivers/STM32F1xx_HAL_Driver/Src/stm32f1xx_hal_spi.c ****   return HAL_OK;
 4021              		.loc 1 2312 10 discriminator 2
 4022 0036 0023     		movs	r3, #0
ARM GAS  C:\Users\Alex\AppData\Local\Temp\ccfYuLQH.s 			page 112


 4023              	.L217:
2313:Drivers/STM32F1xx_HAL_Driver/Src/stm32f1xx_hal_spi.c **** }
 4024              		.loc 1 2313 1
 4025 0038 1846     		mov	r0, r3
 4026 003a 0C37     		adds	r7, r7, #12
 4027              	.LCFI82:
 4028              		.cfi_def_cfa_offset 4
 4029 003c BD46     		mov	sp, r7
 4030              	.LCFI83:
 4031              		.cfi_def_cfa_register 13
 4032              		@ sp needed
 4033 003e 80BC     		pop	{r7}
 4034              	.LCFI84:
 4035              		.cfi_restore 7
 4036              		.cfi_def_cfa_offset 0
 4037 0040 7047     		bx	lr
 4038              		.cfi_endproc
 4039              	.LFE80:
 4041              		.section	.text.HAL_SPI_DMAResume,"ax",%progbits
 4042              		.align	1
 4043              		.global	HAL_SPI_DMAResume
 4044              		.syntax unified
 4045              		.thumb
 4046              		.thumb_func
 4047              		.fpu softvfp
 4049              	HAL_SPI_DMAResume:
 4050              	.LFB81:
2314:Drivers/STM32F1xx_HAL_Driver/Src/stm32f1xx_hal_spi.c **** 
2315:Drivers/STM32F1xx_HAL_Driver/Src/stm32f1xx_hal_spi.c **** /**
2316:Drivers/STM32F1xx_HAL_Driver/Src/stm32f1xx_hal_spi.c ****   * @brief  Resume the DMA Transfer.
2317:Drivers/STM32F1xx_HAL_Driver/Src/stm32f1xx_hal_spi.c ****   * @param  hspi pointer to a SPI_HandleTypeDef structure that contains
2318:Drivers/STM32F1xx_HAL_Driver/Src/stm32f1xx_hal_spi.c ****   *               the configuration information for the specified SPI module.
2319:Drivers/STM32F1xx_HAL_Driver/Src/stm32f1xx_hal_spi.c ****   * @retval HAL status
2320:Drivers/STM32F1xx_HAL_Driver/Src/stm32f1xx_hal_spi.c ****   */
2321:Drivers/STM32F1xx_HAL_Driver/Src/stm32f1xx_hal_spi.c **** HAL_StatusTypeDef HAL_SPI_DMAResume(SPI_HandleTypeDef *hspi)
2322:Drivers/STM32F1xx_HAL_Driver/Src/stm32f1xx_hal_spi.c **** {
 4051              		.loc 1 2322 1
 4052              		.cfi_startproc
 4053              		@ args = 0, pretend = 0, frame = 8
 4054              		@ frame_needed = 1, uses_anonymous_args = 0
 4055              		@ link register save eliminated.
 4056 0000 80B4     		push	{r7}
 4057              	.LCFI85:
 4058              		.cfi_def_cfa_offset 4
 4059              		.cfi_offset 7, -4
 4060 0002 83B0     		sub	sp, sp, #12
 4061              	.LCFI86:
 4062              		.cfi_def_cfa_offset 16
 4063 0004 00AF     		add	r7, sp, #0
 4064              	.LCFI87:
 4065              		.cfi_def_cfa_register 7
 4066 0006 7860     		str	r0, [r7, #4]
2323:Drivers/STM32F1xx_HAL_Driver/Src/stm32f1xx_hal_spi.c ****   /* Process Locked */
2324:Drivers/STM32F1xx_HAL_Driver/Src/stm32f1xx_hal_spi.c ****   __HAL_LOCK(hspi);
 4067              		.loc 1 2324 3
 4068 0008 7B68     		ldr	r3, [r7, #4]
 4069 000a 93F85030 		ldrb	r3, [r3, #80]	@ zero_extendqisi2
ARM GAS  C:\Users\Alex\AppData\Local\Temp\ccfYuLQH.s 			page 113


 4070 000e 012B     		cmp	r3, #1
 4071 0010 01D1     		bne	.L219
 4072              		.loc 1 2324 3 is_stmt 0 discriminator 1
 4073 0012 0223     		movs	r3, #2
 4074 0014 10E0     		b	.L220
 4075              	.L219:
 4076              		.loc 1 2324 3 discriminator 2
 4077 0016 7B68     		ldr	r3, [r7, #4]
 4078 0018 0122     		movs	r2, #1
 4079 001a 83F85020 		strb	r2, [r3, #80]
2325:Drivers/STM32F1xx_HAL_Driver/Src/stm32f1xx_hal_spi.c **** 
2326:Drivers/STM32F1xx_HAL_Driver/Src/stm32f1xx_hal_spi.c ****   /* Enable the SPI DMA Tx & Rx requests */
2327:Drivers/STM32F1xx_HAL_Driver/Src/stm32f1xx_hal_spi.c ****   SET_BIT(hspi->Instance->CR2, SPI_CR2_TXDMAEN | SPI_CR2_RXDMAEN);
 4080              		.loc 1 2327 3 is_stmt 1 discriminator 2
 4081 001e 7B68     		ldr	r3, [r7, #4]
 4082 0020 1B68     		ldr	r3, [r3]
 4083 0022 5A68     		ldr	r2, [r3, #4]
 4084 0024 7B68     		ldr	r3, [r7, #4]
 4085 0026 1B68     		ldr	r3, [r3]
 4086 0028 42F00302 		orr	r2, r2, #3
 4087 002c 5A60     		str	r2, [r3, #4]
2328:Drivers/STM32F1xx_HAL_Driver/Src/stm32f1xx_hal_spi.c **** 
2329:Drivers/STM32F1xx_HAL_Driver/Src/stm32f1xx_hal_spi.c ****   /* Process Unlocked */
2330:Drivers/STM32F1xx_HAL_Driver/Src/stm32f1xx_hal_spi.c ****   __HAL_UNLOCK(hspi);
 4088              		.loc 1 2330 3 discriminator 2
 4089 002e 7B68     		ldr	r3, [r7, #4]
 4090 0030 0022     		movs	r2, #0
 4091 0032 83F85020 		strb	r2, [r3, #80]
2331:Drivers/STM32F1xx_HAL_Driver/Src/stm32f1xx_hal_spi.c **** 
2332:Drivers/STM32F1xx_HAL_Driver/Src/stm32f1xx_hal_spi.c ****   return HAL_OK;
 4092              		.loc 1 2332 10 discriminator 2
 4093 0036 0023     		movs	r3, #0
 4094              	.L220:
2333:Drivers/STM32F1xx_HAL_Driver/Src/stm32f1xx_hal_spi.c **** }
 4095              		.loc 1 2333 1
 4096 0038 1846     		mov	r0, r3
 4097 003a 0C37     		adds	r7, r7, #12
 4098              	.LCFI88:
 4099              		.cfi_def_cfa_offset 4
 4100 003c BD46     		mov	sp, r7
 4101              	.LCFI89:
 4102              		.cfi_def_cfa_register 13
 4103              		@ sp needed
 4104 003e 80BC     		pop	{r7}
 4105              	.LCFI90:
 4106              		.cfi_restore 7
 4107              		.cfi_def_cfa_offset 0
 4108 0040 7047     		bx	lr
 4109              		.cfi_endproc
 4110              	.LFE81:
 4112              		.section	.text.HAL_SPI_DMAStop,"ax",%progbits
 4113              		.align	1
 4114              		.global	HAL_SPI_DMAStop
 4115              		.syntax unified
 4116              		.thumb
 4117              		.thumb_func
 4118              		.fpu softvfp
ARM GAS  C:\Users\Alex\AppData\Local\Temp\ccfYuLQH.s 			page 114


 4120              	HAL_SPI_DMAStop:
 4121              	.LFB82:
2334:Drivers/STM32F1xx_HAL_Driver/Src/stm32f1xx_hal_spi.c **** 
2335:Drivers/STM32F1xx_HAL_Driver/Src/stm32f1xx_hal_spi.c **** /**
2336:Drivers/STM32F1xx_HAL_Driver/Src/stm32f1xx_hal_spi.c ****   * @brief  Stop the DMA Transfer.
2337:Drivers/STM32F1xx_HAL_Driver/Src/stm32f1xx_hal_spi.c ****   * @param  hspi pointer to a SPI_HandleTypeDef structure that contains
2338:Drivers/STM32F1xx_HAL_Driver/Src/stm32f1xx_hal_spi.c ****   *               the configuration information for the specified SPI module.
2339:Drivers/STM32F1xx_HAL_Driver/Src/stm32f1xx_hal_spi.c ****   * @retval HAL status
2340:Drivers/STM32F1xx_HAL_Driver/Src/stm32f1xx_hal_spi.c ****   */
2341:Drivers/STM32F1xx_HAL_Driver/Src/stm32f1xx_hal_spi.c **** HAL_StatusTypeDef HAL_SPI_DMAStop(SPI_HandleTypeDef *hspi)
2342:Drivers/STM32F1xx_HAL_Driver/Src/stm32f1xx_hal_spi.c **** {
 4122              		.loc 1 2342 1
 4123              		.cfi_startproc
 4124              		@ args = 0, pretend = 0, frame = 16
 4125              		@ frame_needed = 1, uses_anonymous_args = 0
 4126 0000 80B5     		push	{r7, lr}
 4127              	.LCFI91:
 4128              		.cfi_def_cfa_offset 8
 4129              		.cfi_offset 7, -8
 4130              		.cfi_offset 14, -4
 4131 0002 84B0     		sub	sp, sp, #16
 4132              	.LCFI92:
 4133              		.cfi_def_cfa_offset 24
 4134 0004 00AF     		add	r7, sp, #0
 4135              	.LCFI93:
 4136              		.cfi_def_cfa_register 7
 4137 0006 7860     		str	r0, [r7, #4]
2343:Drivers/STM32F1xx_HAL_Driver/Src/stm32f1xx_hal_spi.c ****   HAL_StatusTypeDef errorcode = HAL_OK;
 4138              		.loc 1 2343 21
 4139 0008 0023     		movs	r3, #0
 4140 000a FB73     		strb	r3, [r7, #15]
2344:Drivers/STM32F1xx_HAL_Driver/Src/stm32f1xx_hal_spi.c ****   /* The Lock is not implemented on this API to allow the user application
2345:Drivers/STM32F1xx_HAL_Driver/Src/stm32f1xx_hal_spi.c ****      to call the HAL SPI API under callbacks HAL_SPI_TxCpltCallback() or HAL_SPI_RxCpltCallback() o
2346:Drivers/STM32F1xx_HAL_Driver/Src/stm32f1xx_hal_spi.c ****      when calling HAL_DMA_Abort() API the DMA TX/RX Transfer complete interrupt is generated
2347:Drivers/STM32F1xx_HAL_Driver/Src/stm32f1xx_hal_spi.c ****      and the correspond call back is executed HAL_SPI_TxCpltCallback() or HAL_SPI_RxCpltCallback() 
2348:Drivers/STM32F1xx_HAL_Driver/Src/stm32f1xx_hal_spi.c ****      */
2349:Drivers/STM32F1xx_HAL_Driver/Src/stm32f1xx_hal_spi.c **** 
2350:Drivers/STM32F1xx_HAL_Driver/Src/stm32f1xx_hal_spi.c ****   /* Abort the SPI DMA tx Stream/Channel  */
2351:Drivers/STM32F1xx_HAL_Driver/Src/stm32f1xx_hal_spi.c ****   if (hspi->hdmatx != NULL)
 4141              		.loc 1 2351 11
 4142 000c 7B68     		ldr	r3, [r7, #4]
 4143 000e 9B6C     		ldr	r3, [r3, #72]
 4144              		.loc 1 2351 6
 4145 0010 002B     		cmp	r3, #0
 4146 0012 0FD0     		beq	.L222
2352:Drivers/STM32F1xx_HAL_Driver/Src/stm32f1xx_hal_spi.c ****   {
2353:Drivers/STM32F1xx_HAL_Driver/Src/stm32f1xx_hal_spi.c ****     if (HAL_OK != HAL_DMA_Abort(hspi->hdmatx))
 4147              		.loc 1 2353 19
 4148 0014 7B68     		ldr	r3, [r7, #4]
 4149 0016 9B6C     		ldr	r3, [r3, #72]
 4150 0018 1846     		mov	r0, r3
 4151 001a FFF7FEFF 		bl	HAL_DMA_Abort
 4152 001e 0346     		mov	r3, r0
 4153              		.loc 1 2353 8
 4154 0020 002B     		cmp	r3, #0
 4155 0022 07D0     		beq	.L222
2354:Drivers/STM32F1xx_HAL_Driver/Src/stm32f1xx_hal_spi.c ****     {
ARM GAS  C:\Users\Alex\AppData\Local\Temp\ccfYuLQH.s 			page 115


2355:Drivers/STM32F1xx_HAL_Driver/Src/stm32f1xx_hal_spi.c ****       SET_BIT(hspi->ErrorCode, HAL_SPI_ERROR_DMA);
 4156              		.loc 1 2355 7
 4157 0024 7B68     		ldr	r3, [r7, #4]
 4158 0026 5B6D     		ldr	r3, [r3, #84]
 4159 0028 43F01002 		orr	r2, r3, #16
 4160 002c 7B68     		ldr	r3, [r7, #4]
 4161 002e 5A65     		str	r2, [r3, #84]
2356:Drivers/STM32F1xx_HAL_Driver/Src/stm32f1xx_hal_spi.c ****       errorcode = HAL_ERROR;
 4162              		.loc 1 2356 17
 4163 0030 0123     		movs	r3, #1
 4164 0032 FB73     		strb	r3, [r7, #15]
 4165              	.L222:
2357:Drivers/STM32F1xx_HAL_Driver/Src/stm32f1xx_hal_spi.c ****     }
2358:Drivers/STM32F1xx_HAL_Driver/Src/stm32f1xx_hal_spi.c ****   }
2359:Drivers/STM32F1xx_HAL_Driver/Src/stm32f1xx_hal_spi.c ****   /* Abort the SPI DMA rx Stream/Channel  */
2360:Drivers/STM32F1xx_HAL_Driver/Src/stm32f1xx_hal_spi.c ****   if (hspi->hdmarx != NULL)
 4166              		.loc 1 2360 11
 4167 0034 7B68     		ldr	r3, [r7, #4]
 4168 0036 DB6C     		ldr	r3, [r3, #76]
 4169              		.loc 1 2360 6
 4170 0038 002B     		cmp	r3, #0
 4171 003a 0FD0     		beq	.L223
2361:Drivers/STM32F1xx_HAL_Driver/Src/stm32f1xx_hal_spi.c ****   {
2362:Drivers/STM32F1xx_HAL_Driver/Src/stm32f1xx_hal_spi.c ****     if (HAL_OK != HAL_DMA_Abort(hspi->hdmarx))
 4172              		.loc 1 2362 19
 4173 003c 7B68     		ldr	r3, [r7, #4]
 4174 003e DB6C     		ldr	r3, [r3, #76]
 4175 0040 1846     		mov	r0, r3
 4176 0042 FFF7FEFF 		bl	HAL_DMA_Abort
 4177 0046 0346     		mov	r3, r0
 4178              		.loc 1 2362 8
 4179 0048 002B     		cmp	r3, #0
 4180 004a 07D0     		beq	.L223
2363:Drivers/STM32F1xx_HAL_Driver/Src/stm32f1xx_hal_spi.c ****     {
2364:Drivers/STM32F1xx_HAL_Driver/Src/stm32f1xx_hal_spi.c ****       SET_BIT(hspi->ErrorCode, HAL_SPI_ERROR_DMA);
 4181              		.loc 1 2364 7
 4182 004c 7B68     		ldr	r3, [r7, #4]
 4183 004e 5B6D     		ldr	r3, [r3, #84]
 4184 0050 43F01002 		orr	r2, r3, #16
 4185 0054 7B68     		ldr	r3, [r7, #4]
 4186 0056 5A65     		str	r2, [r3, #84]
2365:Drivers/STM32F1xx_HAL_Driver/Src/stm32f1xx_hal_spi.c ****       errorcode = HAL_ERROR;
 4187              		.loc 1 2365 17
 4188 0058 0123     		movs	r3, #1
 4189 005a FB73     		strb	r3, [r7, #15]
 4190              	.L223:
2366:Drivers/STM32F1xx_HAL_Driver/Src/stm32f1xx_hal_spi.c ****     }
2367:Drivers/STM32F1xx_HAL_Driver/Src/stm32f1xx_hal_spi.c ****   }
2368:Drivers/STM32F1xx_HAL_Driver/Src/stm32f1xx_hal_spi.c **** 
2369:Drivers/STM32F1xx_HAL_Driver/Src/stm32f1xx_hal_spi.c ****   /* Disable the SPI DMA Tx & Rx requests */
2370:Drivers/STM32F1xx_HAL_Driver/Src/stm32f1xx_hal_spi.c ****   CLEAR_BIT(hspi->Instance->CR2, SPI_CR2_TXDMAEN | SPI_CR2_RXDMAEN);
 4191              		.loc 1 2370 3
 4192 005c 7B68     		ldr	r3, [r7, #4]
 4193 005e 1B68     		ldr	r3, [r3]
 4194 0060 5A68     		ldr	r2, [r3, #4]
 4195 0062 7B68     		ldr	r3, [r7, #4]
 4196 0064 1B68     		ldr	r3, [r3]
ARM GAS  C:\Users\Alex\AppData\Local\Temp\ccfYuLQH.s 			page 116


 4197 0066 22F00302 		bic	r2, r2, #3
 4198 006a 5A60     		str	r2, [r3, #4]
2371:Drivers/STM32F1xx_HAL_Driver/Src/stm32f1xx_hal_spi.c ****   hspi->State = HAL_SPI_STATE_READY;
 4199              		.loc 1 2371 15
 4200 006c 7B68     		ldr	r3, [r7, #4]
 4201 006e 0122     		movs	r2, #1
 4202 0070 83F85120 		strb	r2, [r3, #81]
2372:Drivers/STM32F1xx_HAL_Driver/Src/stm32f1xx_hal_spi.c ****   return errorcode;
 4203              		.loc 1 2372 10
 4204 0074 FB7B     		ldrb	r3, [r7, #15]	@ zero_extendqisi2
2373:Drivers/STM32F1xx_HAL_Driver/Src/stm32f1xx_hal_spi.c **** }
 4205              		.loc 1 2373 1
 4206 0076 1846     		mov	r0, r3
 4207 0078 1037     		adds	r7, r7, #16
 4208              	.LCFI94:
 4209              		.cfi_def_cfa_offset 8
 4210 007a BD46     		mov	sp, r7
 4211              	.LCFI95:
 4212              		.cfi_def_cfa_register 13
 4213              		@ sp needed
 4214 007c 80BD     		pop	{r7, pc}
 4215              		.cfi_endproc
 4216              	.LFE82:
 4218              		.section	.text.HAL_SPI_IRQHandler,"ax",%progbits
 4219              		.align	1
 4220              		.global	HAL_SPI_IRQHandler
 4221              		.syntax unified
 4222              		.thumb
 4223              		.thumb_func
 4224              		.fpu softvfp
 4226              	HAL_SPI_IRQHandler:
 4227              	.LFB83:
2374:Drivers/STM32F1xx_HAL_Driver/Src/stm32f1xx_hal_spi.c **** 
2375:Drivers/STM32F1xx_HAL_Driver/Src/stm32f1xx_hal_spi.c **** /**
2376:Drivers/STM32F1xx_HAL_Driver/Src/stm32f1xx_hal_spi.c ****   * @brief  Handle SPI interrupt request.
2377:Drivers/STM32F1xx_HAL_Driver/Src/stm32f1xx_hal_spi.c ****   * @param  hspi pointer to a SPI_HandleTypeDef structure that contains
2378:Drivers/STM32F1xx_HAL_Driver/Src/stm32f1xx_hal_spi.c ****   *               the configuration information for the specified SPI module.
2379:Drivers/STM32F1xx_HAL_Driver/Src/stm32f1xx_hal_spi.c ****   * @retval None
2380:Drivers/STM32F1xx_HAL_Driver/Src/stm32f1xx_hal_spi.c ****   */
2381:Drivers/STM32F1xx_HAL_Driver/Src/stm32f1xx_hal_spi.c **** void HAL_SPI_IRQHandler(SPI_HandleTypeDef *hspi)
2382:Drivers/STM32F1xx_HAL_Driver/Src/stm32f1xx_hal_spi.c **** {
 4228              		.loc 1 2382 1
 4229              		.cfi_startproc
 4230              		@ args = 0, pretend = 0, frame = 32
 4231              		@ frame_needed = 1, uses_anonymous_args = 0
 4232 0000 80B5     		push	{r7, lr}
 4233              	.LCFI96:
 4234              		.cfi_def_cfa_offset 8
 4235              		.cfi_offset 7, -8
 4236              		.cfi_offset 14, -4
 4237 0002 88B0     		sub	sp, sp, #32
 4238              	.LCFI97:
 4239              		.cfi_def_cfa_offset 40
 4240 0004 00AF     		add	r7, sp, #0
 4241              	.LCFI98:
 4242              		.cfi_def_cfa_register 7
 4243 0006 7860     		str	r0, [r7, #4]
ARM GAS  C:\Users\Alex\AppData\Local\Temp\ccfYuLQH.s 			page 117


2383:Drivers/STM32F1xx_HAL_Driver/Src/stm32f1xx_hal_spi.c ****   uint32_t itsource = hspi->Instance->CR2;
 4244              		.loc 1 2383 27
 4245 0008 7B68     		ldr	r3, [r7, #4]
 4246 000a 1B68     		ldr	r3, [r3]
 4247              		.loc 1 2383 12
 4248 000c 5B68     		ldr	r3, [r3, #4]
 4249 000e FB61     		str	r3, [r7, #28]
2384:Drivers/STM32F1xx_HAL_Driver/Src/stm32f1xx_hal_spi.c ****   uint32_t itflag   = hspi->Instance->SR;
 4250              		.loc 1 2384 27
 4251 0010 7B68     		ldr	r3, [r7, #4]
 4252 0012 1B68     		ldr	r3, [r3]
 4253              		.loc 1 2384 12
 4254 0014 9B68     		ldr	r3, [r3, #8]
 4255 0016 BB61     		str	r3, [r7, #24]
2385:Drivers/STM32F1xx_HAL_Driver/Src/stm32f1xx_hal_spi.c **** 
2386:Drivers/STM32F1xx_HAL_Driver/Src/stm32f1xx_hal_spi.c ****   /* SPI in mode Receiver ----------------------------------------------------*/
2387:Drivers/STM32F1xx_HAL_Driver/Src/stm32f1xx_hal_spi.c ****   if ((SPI_CHECK_FLAG(itflag, SPI_FLAG_OVR) == RESET) &&
 4256              		.loc 1 2387 8
 4257 0018 BB69     		ldr	r3, [r7, #24]
 4258 001a 9B09     		lsrs	r3, r3, #6
 4259 001c 03F00103 		and	r3, r3, #1
 4260              		.loc 1 2387 6
 4261 0020 002B     		cmp	r3, #0
 4262 0022 0FD1     		bne	.L226
2388:Drivers/STM32F1xx_HAL_Driver/Src/stm32f1xx_hal_spi.c ****       (SPI_CHECK_FLAG(itflag, SPI_FLAG_RXNE) != RESET) && (SPI_CHECK_IT_SOURCE(itsource, SPI_IT_RXN
 4263              		.loc 1 2388 8 discriminator 1
 4264 0024 BB69     		ldr	r3, [r7, #24]
 4265 0026 03F00103 		and	r3, r3, #1
2387:Drivers/STM32F1xx_HAL_Driver/Src/stm32f1xx_hal_spi.c ****       (SPI_CHECK_FLAG(itflag, SPI_FLAG_RXNE) != RESET) && (SPI_CHECK_IT_SOURCE(itsource, SPI_IT_RXN
 4266              		.loc 1 2387 55 discriminator 1
 4267 002a 002B     		cmp	r3, #0
 4268 002c 0AD0     		beq	.L226
 4269              		.loc 1 2388 60
 4270 002e FB69     		ldr	r3, [r7, #28]
 4271 0030 9B09     		lsrs	r3, r3, #6
 4272 0032 03F00103 		and	r3, r3, #1
 4273              		.loc 1 2388 56
 4274 0036 002B     		cmp	r3, #0
 4275 0038 04D0     		beq	.L226
2389:Drivers/STM32F1xx_HAL_Driver/Src/stm32f1xx_hal_spi.c ****   {
2390:Drivers/STM32F1xx_HAL_Driver/Src/stm32f1xx_hal_spi.c ****     hspi->RxISR(hspi);
 4276              		.loc 1 2390 9
 4277 003a 7B68     		ldr	r3, [r7, #4]
 4278 003c 1B6C     		ldr	r3, [r3, #64]
 4279              		.loc 1 2390 5
 4280 003e 7868     		ldr	r0, [r7, #4]
 4281 0040 9847     		blx	r3
 4282              	.LVL0:
2391:Drivers/STM32F1xx_HAL_Driver/Src/stm32f1xx_hal_spi.c ****     return;
 4283              		.loc 1 2391 5
 4284 0042 BFE0     		b	.L225
 4285              	.L226:
2392:Drivers/STM32F1xx_HAL_Driver/Src/stm32f1xx_hal_spi.c ****   }
2393:Drivers/STM32F1xx_HAL_Driver/Src/stm32f1xx_hal_spi.c **** 
2394:Drivers/STM32F1xx_HAL_Driver/Src/stm32f1xx_hal_spi.c ****   /* SPI in mode Transmitter -------------------------------------------------*/
2395:Drivers/STM32F1xx_HAL_Driver/Src/stm32f1xx_hal_spi.c ****   if ((SPI_CHECK_FLAG(itflag, SPI_FLAG_TXE) != RESET) && (SPI_CHECK_IT_SOURCE(itsource, SPI_IT_TXE)
 4286              		.loc 1 2395 8
ARM GAS  C:\Users\Alex\AppData\Local\Temp\ccfYuLQH.s 			page 118


 4287 0044 BB69     		ldr	r3, [r7, #24]
 4288 0046 5B08     		lsrs	r3, r3, #1
 4289 0048 03F00103 		and	r3, r3, #1
 4290              		.loc 1 2395 6
 4291 004c 002B     		cmp	r3, #0
 4292 004e 0AD0     		beq	.L228
 4293              		.loc 1 2395 59 discriminator 1
 4294 0050 FB69     		ldr	r3, [r7, #28]
 4295 0052 DB09     		lsrs	r3, r3, #7
 4296 0054 03F00103 		and	r3, r3, #1
 4297              		.loc 1 2395 55 discriminator 1
 4298 0058 002B     		cmp	r3, #0
 4299 005a 04D0     		beq	.L228
2396:Drivers/STM32F1xx_HAL_Driver/Src/stm32f1xx_hal_spi.c ****   {
2397:Drivers/STM32F1xx_HAL_Driver/Src/stm32f1xx_hal_spi.c ****     hspi->TxISR(hspi);
 4300              		.loc 1 2397 9
 4301 005c 7B68     		ldr	r3, [r7, #4]
 4302 005e 5B6C     		ldr	r3, [r3, #68]
 4303              		.loc 1 2397 5
 4304 0060 7868     		ldr	r0, [r7, #4]
 4305 0062 9847     		blx	r3
 4306              	.LVL1:
2398:Drivers/STM32F1xx_HAL_Driver/Src/stm32f1xx_hal_spi.c ****     return;
 4307              		.loc 1 2398 5
 4308 0064 AEE0     		b	.L225
 4309              	.L228:
2399:Drivers/STM32F1xx_HAL_Driver/Src/stm32f1xx_hal_spi.c ****   }
2400:Drivers/STM32F1xx_HAL_Driver/Src/stm32f1xx_hal_spi.c **** 
2401:Drivers/STM32F1xx_HAL_Driver/Src/stm32f1xx_hal_spi.c ****   /* SPI in Error Treatment --------------------------------------------------*/
2402:Drivers/STM32F1xx_HAL_Driver/Src/stm32f1xx_hal_spi.c ****   if (((SPI_CHECK_FLAG(itflag, SPI_FLAG_MODF) != RESET) || (SPI_CHECK_FLAG(itflag, SPI_FLAG_OVR) !=
 4310              		.loc 1 2402 9
 4311 0066 BB69     		ldr	r3, [r7, #24]
 4312 0068 5B09     		lsrs	r3, r3, #5
 4313 006a 03F00103 		and	r3, r3, #1
 4314              		.loc 1 2402 6
 4315 006e 002B     		cmp	r3, #0
 4316 0070 06D1     		bne	.L229
 4317              		.loc 1 2402 61 discriminator 1
 4318 0072 BB69     		ldr	r3, [r7, #24]
 4319 0074 9B09     		lsrs	r3, r3, #6
 4320 0076 03F00103 		and	r3, r3, #1
 4321              		.loc 1 2402 57 discriminator 1
 4322 007a 002B     		cmp	r3, #0
 4323 007c 00F0A280 		beq	.L225
 4324              	.L229:
2403:Drivers/STM32F1xx_HAL_Driver/Src/stm32f1xx_hal_spi.c ****        && (SPI_CHECK_IT_SOURCE(itsource, SPI_IT_ERR) != RESET))
 4325              		.loc 1 2403 12
 4326 0080 FB69     		ldr	r3, [r7, #28]
 4327 0082 5B09     		lsrs	r3, r3, #5
 4328 0084 03F00103 		and	r3, r3, #1
 4329              		.loc 1 2403 8
 4330 0088 002B     		cmp	r3, #0
 4331 008a 00F09B80 		beq	.L225
2404:Drivers/STM32F1xx_HAL_Driver/Src/stm32f1xx_hal_spi.c ****   {
2405:Drivers/STM32F1xx_HAL_Driver/Src/stm32f1xx_hal_spi.c ****     /* SPI Overrun error interrupt occurred ----------------------------------*/
2406:Drivers/STM32F1xx_HAL_Driver/Src/stm32f1xx_hal_spi.c ****     if (SPI_CHECK_FLAG(itflag, SPI_FLAG_OVR) != RESET)
 4332              		.loc 1 2406 9
ARM GAS  C:\Users\Alex\AppData\Local\Temp\ccfYuLQH.s 			page 119


 4333 008e BB69     		ldr	r3, [r7, #24]
 4334 0090 9B09     		lsrs	r3, r3, #6
 4335 0092 03F00103 		and	r3, r3, #1
 4336              		.loc 1 2406 8
 4337 0096 002B     		cmp	r3, #0
 4338 0098 23D0     		beq	.L230
2407:Drivers/STM32F1xx_HAL_Driver/Src/stm32f1xx_hal_spi.c ****     {
2408:Drivers/STM32F1xx_HAL_Driver/Src/stm32f1xx_hal_spi.c ****       if (hspi->State != HAL_SPI_STATE_BUSY_TX)
 4339              		.loc 1 2408 15
 4340 009a 7B68     		ldr	r3, [r7, #4]
 4341 009c 93F85130 		ldrb	r3, [r3, #81]
 4342 00a0 DBB2     		uxtb	r3, r3
 4343              		.loc 1 2408 10
 4344 00a2 032B     		cmp	r3, #3
 4345 00a4 11D0     		beq	.L231
2409:Drivers/STM32F1xx_HAL_Driver/Src/stm32f1xx_hal_spi.c ****       {
2410:Drivers/STM32F1xx_HAL_Driver/Src/stm32f1xx_hal_spi.c ****         SET_BIT(hspi->ErrorCode, HAL_SPI_ERROR_OVR);
 4346              		.loc 1 2410 9
 4347 00a6 7B68     		ldr	r3, [r7, #4]
 4348 00a8 5B6D     		ldr	r3, [r3, #84]
 4349 00aa 43F00402 		orr	r2, r3, #4
 4350 00ae 7B68     		ldr	r3, [r7, #4]
 4351 00b0 5A65     		str	r2, [r3, #84]
 4352              	.LBB6:
2411:Drivers/STM32F1xx_HAL_Driver/Src/stm32f1xx_hal_spi.c ****         __HAL_SPI_CLEAR_OVRFLAG(hspi);
 4353              		.loc 1 2411 9
 4354 00b2 0023     		movs	r3, #0
 4355 00b4 7B61     		str	r3, [r7, #20]
 4356 00b6 7B68     		ldr	r3, [r7, #4]
 4357 00b8 1B68     		ldr	r3, [r3]
 4358 00ba DB68     		ldr	r3, [r3, #12]
 4359 00bc 7B61     		str	r3, [r7, #20]
 4360 00be 7B68     		ldr	r3, [r7, #4]
 4361 00c0 1B68     		ldr	r3, [r3]
 4362 00c2 9B68     		ldr	r3, [r3, #8]
 4363 00c4 7B61     		str	r3, [r7, #20]
 4364 00c6 7B69     		ldr	r3, [r7, #20]
 4365              	.LBE6:
 4366 00c8 0BE0     		b	.L230
 4367              	.L231:
 4368              	.LBB7:
2412:Drivers/STM32F1xx_HAL_Driver/Src/stm32f1xx_hal_spi.c ****       }
2413:Drivers/STM32F1xx_HAL_Driver/Src/stm32f1xx_hal_spi.c ****       else
2414:Drivers/STM32F1xx_HAL_Driver/Src/stm32f1xx_hal_spi.c ****       {
2415:Drivers/STM32F1xx_HAL_Driver/Src/stm32f1xx_hal_spi.c ****         __HAL_SPI_CLEAR_OVRFLAG(hspi);
 4369              		.loc 1 2415 9
 4370 00ca 0023     		movs	r3, #0
 4371 00cc 3B61     		str	r3, [r7, #16]
 4372 00ce 7B68     		ldr	r3, [r7, #4]
 4373 00d0 1B68     		ldr	r3, [r3]
 4374 00d2 DB68     		ldr	r3, [r3, #12]
 4375 00d4 3B61     		str	r3, [r7, #16]
 4376 00d6 7B68     		ldr	r3, [r7, #4]
 4377 00d8 1B68     		ldr	r3, [r3]
 4378 00da 9B68     		ldr	r3, [r3, #8]
 4379 00dc 3B61     		str	r3, [r7, #16]
 4380 00de 3B69     		ldr	r3, [r7, #16]
ARM GAS  C:\Users\Alex\AppData\Local\Temp\ccfYuLQH.s 			page 120


 4381              	.LBE7:
2416:Drivers/STM32F1xx_HAL_Driver/Src/stm32f1xx_hal_spi.c ****         return;
 4382              		.loc 1 2416 9
 4383 00e0 70E0     		b	.L225
 4384              	.L230:
2417:Drivers/STM32F1xx_HAL_Driver/Src/stm32f1xx_hal_spi.c ****       }
2418:Drivers/STM32F1xx_HAL_Driver/Src/stm32f1xx_hal_spi.c ****     }
2419:Drivers/STM32F1xx_HAL_Driver/Src/stm32f1xx_hal_spi.c **** 
2420:Drivers/STM32F1xx_HAL_Driver/Src/stm32f1xx_hal_spi.c ****     /* SPI Mode Fault error interrupt occurred -------------------------------*/
2421:Drivers/STM32F1xx_HAL_Driver/Src/stm32f1xx_hal_spi.c ****     if (SPI_CHECK_FLAG(itflag, SPI_FLAG_MODF) != RESET)
 4385              		.loc 1 2421 9
 4386 00e2 BB69     		ldr	r3, [r7, #24]
 4387 00e4 5B09     		lsrs	r3, r3, #5
 4388 00e6 03F00103 		and	r3, r3, #1
 4389              		.loc 1 2421 8
 4390 00ea 002B     		cmp	r3, #0
 4391 00ec 14D0     		beq	.L232
2422:Drivers/STM32F1xx_HAL_Driver/Src/stm32f1xx_hal_spi.c ****     {
2423:Drivers/STM32F1xx_HAL_Driver/Src/stm32f1xx_hal_spi.c ****       SET_BIT(hspi->ErrorCode, HAL_SPI_ERROR_MODF);
 4392              		.loc 1 2423 7
 4393 00ee 7B68     		ldr	r3, [r7, #4]
 4394 00f0 5B6D     		ldr	r3, [r3, #84]
 4395 00f2 43F00102 		orr	r2, r3, #1
 4396 00f6 7B68     		ldr	r3, [r7, #4]
 4397 00f8 5A65     		str	r2, [r3, #84]
 4398              	.LBB8:
2424:Drivers/STM32F1xx_HAL_Driver/Src/stm32f1xx_hal_spi.c ****       __HAL_SPI_CLEAR_MODFFLAG(hspi);
 4399              		.loc 1 2424 7
 4400 00fa 0023     		movs	r3, #0
 4401 00fc FB60     		str	r3, [r7, #12]
 4402 00fe 7B68     		ldr	r3, [r7, #4]
 4403 0100 1B68     		ldr	r3, [r3]
 4404 0102 9B68     		ldr	r3, [r3, #8]
 4405 0104 FB60     		str	r3, [r7, #12]
 4406 0106 7B68     		ldr	r3, [r7, #4]
 4407 0108 1B68     		ldr	r3, [r3]
 4408 010a 1A68     		ldr	r2, [r3]
 4409 010c 7B68     		ldr	r3, [r7, #4]
 4410 010e 1B68     		ldr	r3, [r3]
 4411 0110 22F04002 		bic	r2, r2, #64
 4412 0114 1A60     		str	r2, [r3]
 4413 0116 FB68     		ldr	r3, [r7, #12]
 4414              	.L232:
 4415              	.LBE8:
2425:Drivers/STM32F1xx_HAL_Driver/Src/stm32f1xx_hal_spi.c ****     }
2426:Drivers/STM32F1xx_HAL_Driver/Src/stm32f1xx_hal_spi.c **** 
2427:Drivers/STM32F1xx_HAL_Driver/Src/stm32f1xx_hal_spi.c ****     /* SPI Frame error interrupt occurred ------------------------------------*/
2428:Drivers/STM32F1xx_HAL_Driver/Src/stm32f1xx_hal_spi.c **** 
2429:Drivers/STM32F1xx_HAL_Driver/Src/stm32f1xx_hal_spi.c ****     if (hspi->ErrorCode != HAL_SPI_ERROR_NONE)
 4416              		.loc 1 2429 13
 4417 0118 7B68     		ldr	r3, [r7, #4]
 4418 011a 5B6D     		ldr	r3, [r3, #84]
 4419              		.loc 1 2429 8
 4420 011c 002B     		cmp	r3, #0
 4421 011e 50D0     		beq	.L238
2430:Drivers/STM32F1xx_HAL_Driver/Src/stm32f1xx_hal_spi.c ****     {
2431:Drivers/STM32F1xx_HAL_Driver/Src/stm32f1xx_hal_spi.c ****       /* Disable all interrupts */
ARM GAS  C:\Users\Alex\AppData\Local\Temp\ccfYuLQH.s 			page 121


2432:Drivers/STM32F1xx_HAL_Driver/Src/stm32f1xx_hal_spi.c ****       __HAL_SPI_DISABLE_IT(hspi, SPI_IT_RXNE | SPI_IT_TXE | SPI_IT_ERR);
 4422              		.loc 1 2432 7
 4423 0120 7B68     		ldr	r3, [r7, #4]
 4424 0122 1B68     		ldr	r3, [r3]
 4425 0124 5A68     		ldr	r2, [r3, #4]
 4426 0126 7B68     		ldr	r3, [r7, #4]
 4427 0128 1B68     		ldr	r3, [r3]
 4428 012a 22F0E002 		bic	r2, r2, #224
 4429 012e 5A60     		str	r2, [r3, #4]
2433:Drivers/STM32F1xx_HAL_Driver/Src/stm32f1xx_hal_spi.c **** 
2434:Drivers/STM32F1xx_HAL_Driver/Src/stm32f1xx_hal_spi.c ****       hspi->State = HAL_SPI_STATE_READY;
 4430              		.loc 1 2434 19
 4431 0130 7B68     		ldr	r3, [r7, #4]
 4432 0132 0122     		movs	r2, #1
 4433 0134 83F85120 		strb	r2, [r3, #81]
2435:Drivers/STM32F1xx_HAL_Driver/Src/stm32f1xx_hal_spi.c ****       /* Disable the SPI DMA requests if enabled */
2436:Drivers/STM32F1xx_HAL_Driver/Src/stm32f1xx_hal_spi.c ****       if ((HAL_IS_BIT_SET(itsource, SPI_CR2_TXDMAEN)) || (HAL_IS_BIT_SET(itsource, SPI_CR2_RXDMAEN)
 4434              		.loc 1 2436 12
 4435 0138 FB69     		ldr	r3, [r7, #28]
 4436 013a 03F00203 		and	r3, r3, #2
 4437              		.loc 1 2436 10
 4438 013e 002B     		cmp	r3, #0
 4439 0140 04D1     		bne	.L234
 4440              		.loc 1 2436 59 discriminator 1
 4441 0142 FB69     		ldr	r3, [r7, #28]
 4442 0144 03F00103 		and	r3, r3, #1
 4443              		.loc 1 2436 55 discriminator 1
 4444 0148 002B     		cmp	r3, #0
 4445 014a 34D0     		beq	.L235
 4446              	.L234:
2437:Drivers/STM32F1xx_HAL_Driver/Src/stm32f1xx_hal_spi.c ****       {
2438:Drivers/STM32F1xx_HAL_Driver/Src/stm32f1xx_hal_spi.c ****         CLEAR_BIT(hspi->Instance->CR2, (SPI_CR2_TXDMAEN | SPI_CR2_RXDMAEN));
 4447              		.loc 1 2438 9
 4448 014c 7B68     		ldr	r3, [r7, #4]
 4449 014e 1B68     		ldr	r3, [r3]
 4450 0150 5A68     		ldr	r2, [r3, #4]
 4451 0152 7B68     		ldr	r3, [r7, #4]
 4452 0154 1B68     		ldr	r3, [r3]
 4453 0156 22F00302 		bic	r2, r2, #3
 4454 015a 5A60     		str	r2, [r3, #4]
2439:Drivers/STM32F1xx_HAL_Driver/Src/stm32f1xx_hal_spi.c **** 
2440:Drivers/STM32F1xx_HAL_Driver/Src/stm32f1xx_hal_spi.c ****         /* Abort the SPI DMA Rx channel */
2441:Drivers/STM32F1xx_HAL_Driver/Src/stm32f1xx_hal_spi.c ****         if (hspi->hdmarx != NULL)
 4455              		.loc 1 2441 17
 4456 015c 7B68     		ldr	r3, [r7, #4]
 4457 015e DB6C     		ldr	r3, [r3, #76]
 4458              		.loc 1 2441 12
 4459 0160 002B     		cmp	r3, #0
 4460 0162 11D0     		beq	.L236
2442:Drivers/STM32F1xx_HAL_Driver/Src/stm32f1xx_hal_spi.c ****         {
2443:Drivers/STM32F1xx_HAL_Driver/Src/stm32f1xx_hal_spi.c ****           /* Set the SPI DMA Abort callback :
2444:Drivers/STM32F1xx_HAL_Driver/Src/stm32f1xx_hal_spi.c ****           will lead to call HAL_SPI_ErrorCallback() at end of DMA abort procedure */
2445:Drivers/STM32F1xx_HAL_Driver/Src/stm32f1xx_hal_spi.c ****           hspi->hdmarx->XferAbortCallback = SPI_DMAAbortOnError;
 4461              		.loc 1 2445 15
 4462 0164 7B68     		ldr	r3, [r7, #4]
 4463 0166 DB6C     		ldr	r3, [r3, #76]
 4464              		.loc 1 2445 43
ARM GAS  C:\Users\Alex\AppData\Local\Temp\ccfYuLQH.s 			page 122


 4465 0168 184A     		ldr	r2, .L240
 4466 016a 5A63     		str	r2, [r3, #52]
2446:Drivers/STM32F1xx_HAL_Driver/Src/stm32f1xx_hal_spi.c ****           if (HAL_OK != HAL_DMA_Abort_IT(hspi->hdmarx))
 4467              		.loc 1 2446 25
 4468 016c 7B68     		ldr	r3, [r7, #4]
 4469 016e DB6C     		ldr	r3, [r3, #76]
 4470 0170 1846     		mov	r0, r3
 4471 0172 FFF7FEFF 		bl	HAL_DMA_Abort_IT
 4472 0176 0346     		mov	r3, r0
 4473              		.loc 1 2446 14
 4474 0178 002B     		cmp	r3, #0
 4475 017a 05D0     		beq	.L236
2447:Drivers/STM32F1xx_HAL_Driver/Src/stm32f1xx_hal_spi.c ****           {
2448:Drivers/STM32F1xx_HAL_Driver/Src/stm32f1xx_hal_spi.c ****             SET_BIT(hspi->ErrorCode, HAL_SPI_ERROR_ABORT);
 4476              		.loc 1 2448 13
 4477 017c 7B68     		ldr	r3, [r7, #4]
 4478 017e 5B6D     		ldr	r3, [r3, #84]
 4479 0180 43F04002 		orr	r2, r3, #64
 4480 0184 7B68     		ldr	r3, [r7, #4]
 4481 0186 5A65     		str	r2, [r3, #84]
 4482              	.L236:
2449:Drivers/STM32F1xx_HAL_Driver/Src/stm32f1xx_hal_spi.c ****           }
2450:Drivers/STM32F1xx_HAL_Driver/Src/stm32f1xx_hal_spi.c ****         }
2451:Drivers/STM32F1xx_HAL_Driver/Src/stm32f1xx_hal_spi.c ****         /* Abort the SPI DMA Tx channel */
2452:Drivers/STM32F1xx_HAL_Driver/Src/stm32f1xx_hal_spi.c ****         if (hspi->hdmatx != NULL)
 4483              		.loc 1 2452 17
 4484 0188 7B68     		ldr	r3, [r7, #4]
 4485 018a 9B6C     		ldr	r3, [r3, #72]
 4486              		.loc 1 2452 12
 4487 018c 002B     		cmp	r3, #0
 4488 018e 16D0     		beq	.L239
2453:Drivers/STM32F1xx_HAL_Driver/Src/stm32f1xx_hal_spi.c ****         {
2454:Drivers/STM32F1xx_HAL_Driver/Src/stm32f1xx_hal_spi.c ****           /* Set the SPI DMA Abort callback :
2455:Drivers/STM32F1xx_HAL_Driver/Src/stm32f1xx_hal_spi.c ****           will lead to call HAL_SPI_ErrorCallback() at end of DMA abort procedure */
2456:Drivers/STM32F1xx_HAL_Driver/Src/stm32f1xx_hal_spi.c ****           hspi->hdmatx->XferAbortCallback = SPI_DMAAbortOnError;
 4489              		.loc 1 2456 15
 4490 0190 7B68     		ldr	r3, [r7, #4]
 4491 0192 9B6C     		ldr	r3, [r3, #72]
 4492              		.loc 1 2456 43
 4493 0194 0D4A     		ldr	r2, .L240
 4494 0196 5A63     		str	r2, [r3, #52]
2457:Drivers/STM32F1xx_HAL_Driver/Src/stm32f1xx_hal_spi.c ****           if (HAL_OK != HAL_DMA_Abort_IT(hspi->hdmatx))
 4495              		.loc 1 2457 25
 4496 0198 7B68     		ldr	r3, [r7, #4]
 4497 019a 9B6C     		ldr	r3, [r3, #72]
 4498 019c 1846     		mov	r0, r3
 4499 019e FFF7FEFF 		bl	HAL_DMA_Abort_IT
 4500 01a2 0346     		mov	r3, r0
 4501              		.loc 1 2457 14
 4502 01a4 002B     		cmp	r3, #0
 4503 01a6 0AD0     		beq	.L239
2458:Drivers/STM32F1xx_HAL_Driver/Src/stm32f1xx_hal_spi.c ****           {
2459:Drivers/STM32F1xx_HAL_Driver/Src/stm32f1xx_hal_spi.c ****             SET_BIT(hspi->ErrorCode, HAL_SPI_ERROR_ABORT);
 4504              		.loc 1 2459 13
 4505 01a8 7B68     		ldr	r3, [r7, #4]
 4506 01aa 5B6D     		ldr	r3, [r3, #84]
 4507 01ac 43F04002 		orr	r2, r3, #64
ARM GAS  C:\Users\Alex\AppData\Local\Temp\ccfYuLQH.s 			page 123


 4508 01b0 7B68     		ldr	r3, [r7, #4]
 4509 01b2 5A65     		str	r2, [r3, #84]
2452:Drivers/STM32F1xx_HAL_Driver/Src/stm32f1xx_hal_spi.c ****         {
 4510              		.loc 1 2452 12
 4511 01b4 03E0     		b	.L239
 4512              	.L235:
2460:Drivers/STM32F1xx_HAL_Driver/Src/stm32f1xx_hal_spi.c ****           }
2461:Drivers/STM32F1xx_HAL_Driver/Src/stm32f1xx_hal_spi.c ****         }
2462:Drivers/STM32F1xx_HAL_Driver/Src/stm32f1xx_hal_spi.c ****       }
2463:Drivers/STM32F1xx_HAL_Driver/Src/stm32f1xx_hal_spi.c ****       else
2464:Drivers/STM32F1xx_HAL_Driver/Src/stm32f1xx_hal_spi.c ****       {
2465:Drivers/STM32F1xx_HAL_Driver/Src/stm32f1xx_hal_spi.c ****         /* Call user error callback */
2466:Drivers/STM32F1xx_HAL_Driver/Src/stm32f1xx_hal_spi.c **** #if (USE_HAL_SPI_REGISTER_CALLBACKS == 1U)
2467:Drivers/STM32F1xx_HAL_Driver/Src/stm32f1xx_hal_spi.c ****         hspi->ErrorCallback(hspi);
2468:Drivers/STM32F1xx_HAL_Driver/Src/stm32f1xx_hal_spi.c **** #else
2469:Drivers/STM32F1xx_HAL_Driver/Src/stm32f1xx_hal_spi.c ****         HAL_SPI_ErrorCallback(hspi);
 4513              		.loc 1 2469 9
 4514 01b6 7868     		ldr	r0, [r7, #4]
 4515 01b8 FFF7FEFF 		bl	HAL_SPI_ErrorCallback
2470:Drivers/STM32F1xx_HAL_Driver/Src/stm32f1xx_hal_spi.c **** #endif /* USE_HAL_SPI_REGISTER_CALLBACKS */
2471:Drivers/STM32F1xx_HAL_Driver/Src/stm32f1xx_hal_spi.c ****       }
2472:Drivers/STM32F1xx_HAL_Driver/Src/stm32f1xx_hal_spi.c ****     }
2473:Drivers/STM32F1xx_HAL_Driver/Src/stm32f1xx_hal_spi.c ****     return;
 4516              		.loc 1 2473 5
 4517 01bc 00E0     		b	.L233
 4518              	.L239:
2452:Drivers/STM32F1xx_HAL_Driver/Src/stm32f1xx_hal_spi.c ****         {
 4519              		.loc 1 2452 12
 4520 01be 00BF     		nop
 4521              	.L233:
 4522              		.loc 1 2473 5
 4523 01c0 00BF     		nop
 4524              	.L238:
 4525 01c2 00BF     		nop
 4526              	.L225:
2474:Drivers/STM32F1xx_HAL_Driver/Src/stm32f1xx_hal_spi.c ****   }
2475:Drivers/STM32F1xx_HAL_Driver/Src/stm32f1xx_hal_spi.c **** }
 4527              		.loc 1 2475 1
 4528 01c4 2037     		adds	r7, r7, #32
 4529              	.LCFI99:
 4530              		.cfi_def_cfa_offset 8
 4531 01c6 BD46     		mov	sp, r7
 4532              	.LCFI100:
 4533              		.cfi_def_cfa_register 13
 4534              		@ sp needed
 4535 01c8 80BD     		pop	{r7, pc}
 4536              	.L241:
 4537 01ca 00BF     		.align	2
 4538              	.L240:
 4539 01cc 00000000 		.word	SPI_DMAAbortOnError
 4540              		.cfi_endproc
 4541              	.LFE83:
 4543              		.section	.text.HAL_SPI_TxCpltCallback,"ax",%progbits
 4544              		.align	1
 4545              		.weak	HAL_SPI_TxCpltCallback
 4546              		.syntax unified
 4547              		.thumb
ARM GAS  C:\Users\Alex\AppData\Local\Temp\ccfYuLQH.s 			page 124


 4548              		.thumb_func
 4549              		.fpu softvfp
 4551              	HAL_SPI_TxCpltCallback:
 4552              	.LFB84:
2476:Drivers/STM32F1xx_HAL_Driver/Src/stm32f1xx_hal_spi.c **** 
2477:Drivers/STM32F1xx_HAL_Driver/Src/stm32f1xx_hal_spi.c **** /**
2478:Drivers/STM32F1xx_HAL_Driver/Src/stm32f1xx_hal_spi.c ****   * @brief  Tx Transfer completed callback.
2479:Drivers/STM32F1xx_HAL_Driver/Src/stm32f1xx_hal_spi.c ****   * @param  hspi pointer to a SPI_HandleTypeDef structure that contains
2480:Drivers/STM32F1xx_HAL_Driver/Src/stm32f1xx_hal_spi.c ****   *               the configuration information for SPI module.
2481:Drivers/STM32F1xx_HAL_Driver/Src/stm32f1xx_hal_spi.c ****   * @retval None
2482:Drivers/STM32F1xx_HAL_Driver/Src/stm32f1xx_hal_spi.c ****   */
2483:Drivers/STM32F1xx_HAL_Driver/Src/stm32f1xx_hal_spi.c **** __weak void HAL_SPI_TxCpltCallback(SPI_HandleTypeDef *hspi)
2484:Drivers/STM32F1xx_HAL_Driver/Src/stm32f1xx_hal_spi.c **** {
 4553              		.loc 1 2484 1
 4554              		.cfi_startproc
 4555              		@ args = 0, pretend = 0, frame = 8
 4556              		@ frame_needed = 1, uses_anonymous_args = 0
 4557              		@ link register save eliminated.
 4558 0000 80B4     		push	{r7}
 4559              	.LCFI101:
 4560              		.cfi_def_cfa_offset 4
 4561              		.cfi_offset 7, -4
 4562 0002 83B0     		sub	sp, sp, #12
 4563              	.LCFI102:
 4564              		.cfi_def_cfa_offset 16
 4565 0004 00AF     		add	r7, sp, #0
 4566              	.LCFI103:
 4567              		.cfi_def_cfa_register 7
 4568 0006 7860     		str	r0, [r7, #4]
2485:Drivers/STM32F1xx_HAL_Driver/Src/stm32f1xx_hal_spi.c ****   /* Prevent unused argument(s) compilation warning */
2486:Drivers/STM32F1xx_HAL_Driver/Src/stm32f1xx_hal_spi.c ****   UNUSED(hspi);
2487:Drivers/STM32F1xx_HAL_Driver/Src/stm32f1xx_hal_spi.c **** 
2488:Drivers/STM32F1xx_HAL_Driver/Src/stm32f1xx_hal_spi.c ****   /* NOTE : This function should not be modified, when the callback is needed,
2489:Drivers/STM32F1xx_HAL_Driver/Src/stm32f1xx_hal_spi.c ****             the HAL_SPI_TxCpltCallback should be implemented in the user file
2490:Drivers/STM32F1xx_HAL_Driver/Src/stm32f1xx_hal_spi.c ****    */
2491:Drivers/STM32F1xx_HAL_Driver/Src/stm32f1xx_hal_spi.c **** }
 4569              		.loc 1 2491 1
 4570 0008 00BF     		nop
 4571 000a 0C37     		adds	r7, r7, #12
 4572              	.LCFI104:
 4573              		.cfi_def_cfa_offset 4
 4574 000c BD46     		mov	sp, r7
 4575              	.LCFI105:
 4576              		.cfi_def_cfa_register 13
 4577              		@ sp needed
 4578 000e 80BC     		pop	{r7}
 4579              	.LCFI106:
 4580              		.cfi_restore 7
 4581              		.cfi_def_cfa_offset 0
 4582 0010 7047     		bx	lr
 4583              		.cfi_endproc
 4584              	.LFE84:
 4586              		.section	.text.HAL_SPI_RxCpltCallback,"ax",%progbits
 4587              		.align	1
 4588              		.weak	HAL_SPI_RxCpltCallback
 4589              		.syntax unified
 4590              		.thumb
ARM GAS  C:\Users\Alex\AppData\Local\Temp\ccfYuLQH.s 			page 125


 4591              		.thumb_func
 4592              		.fpu softvfp
 4594              	HAL_SPI_RxCpltCallback:
 4595              	.LFB85:
2492:Drivers/STM32F1xx_HAL_Driver/Src/stm32f1xx_hal_spi.c **** 
2493:Drivers/STM32F1xx_HAL_Driver/Src/stm32f1xx_hal_spi.c **** /**
2494:Drivers/STM32F1xx_HAL_Driver/Src/stm32f1xx_hal_spi.c ****   * @brief  Rx Transfer completed callback.
2495:Drivers/STM32F1xx_HAL_Driver/Src/stm32f1xx_hal_spi.c ****   * @param  hspi pointer to a SPI_HandleTypeDef structure that contains
2496:Drivers/STM32F1xx_HAL_Driver/Src/stm32f1xx_hal_spi.c ****   *               the configuration information for SPI module.
2497:Drivers/STM32F1xx_HAL_Driver/Src/stm32f1xx_hal_spi.c ****   * @retval None
2498:Drivers/STM32F1xx_HAL_Driver/Src/stm32f1xx_hal_spi.c ****   */
2499:Drivers/STM32F1xx_HAL_Driver/Src/stm32f1xx_hal_spi.c **** __weak void HAL_SPI_RxCpltCallback(SPI_HandleTypeDef *hspi)
2500:Drivers/STM32F1xx_HAL_Driver/Src/stm32f1xx_hal_spi.c **** {
 4596              		.loc 1 2500 1
 4597              		.cfi_startproc
 4598              		@ args = 0, pretend = 0, frame = 8
 4599              		@ frame_needed = 1, uses_anonymous_args = 0
 4600              		@ link register save eliminated.
 4601 0000 80B4     		push	{r7}
 4602              	.LCFI107:
 4603              		.cfi_def_cfa_offset 4
 4604              		.cfi_offset 7, -4
 4605 0002 83B0     		sub	sp, sp, #12
 4606              	.LCFI108:
 4607              		.cfi_def_cfa_offset 16
 4608 0004 00AF     		add	r7, sp, #0
 4609              	.LCFI109:
 4610              		.cfi_def_cfa_register 7
 4611 0006 7860     		str	r0, [r7, #4]
2501:Drivers/STM32F1xx_HAL_Driver/Src/stm32f1xx_hal_spi.c ****   /* Prevent unused argument(s) compilation warning */
2502:Drivers/STM32F1xx_HAL_Driver/Src/stm32f1xx_hal_spi.c ****   UNUSED(hspi);
2503:Drivers/STM32F1xx_HAL_Driver/Src/stm32f1xx_hal_spi.c **** 
2504:Drivers/STM32F1xx_HAL_Driver/Src/stm32f1xx_hal_spi.c ****   /* NOTE : This function should not be modified, when the callback is needed,
2505:Drivers/STM32F1xx_HAL_Driver/Src/stm32f1xx_hal_spi.c ****             the HAL_SPI_RxCpltCallback should be implemented in the user file
2506:Drivers/STM32F1xx_HAL_Driver/Src/stm32f1xx_hal_spi.c ****    */
2507:Drivers/STM32F1xx_HAL_Driver/Src/stm32f1xx_hal_spi.c **** }
 4612              		.loc 1 2507 1
 4613 0008 00BF     		nop
 4614 000a 0C37     		adds	r7, r7, #12
 4615              	.LCFI110:
 4616              		.cfi_def_cfa_offset 4
 4617 000c BD46     		mov	sp, r7
 4618              	.LCFI111:
 4619              		.cfi_def_cfa_register 13
 4620              		@ sp needed
 4621 000e 80BC     		pop	{r7}
 4622              	.LCFI112:
 4623              		.cfi_restore 7
 4624              		.cfi_def_cfa_offset 0
 4625 0010 7047     		bx	lr
 4626              		.cfi_endproc
 4627              	.LFE85:
 4629              		.section	.text.HAL_SPI_TxRxCpltCallback,"ax",%progbits
 4630              		.align	1
 4631              		.weak	HAL_SPI_TxRxCpltCallback
 4632              		.syntax unified
 4633              		.thumb
ARM GAS  C:\Users\Alex\AppData\Local\Temp\ccfYuLQH.s 			page 126


 4634              		.thumb_func
 4635              		.fpu softvfp
 4637              	HAL_SPI_TxRxCpltCallback:
 4638              	.LFB86:
2508:Drivers/STM32F1xx_HAL_Driver/Src/stm32f1xx_hal_spi.c **** 
2509:Drivers/STM32F1xx_HAL_Driver/Src/stm32f1xx_hal_spi.c **** /**
2510:Drivers/STM32F1xx_HAL_Driver/Src/stm32f1xx_hal_spi.c ****   * @brief  Tx and Rx Transfer completed callback.
2511:Drivers/STM32F1xx_HAL_Driver/Src/stm32f1xx_hal_spi.c ****   * @param  hspi pointer to a SPI_HandleTypeDef structure that contains
2512:Drivers/STM32F1xx_HAL_Driver/Src/stm32f1xx_hal_spi.c ****   *               the configuration information for SPI module.
2513:Drivers/STM32F1xx_HAL_Driver/Src/stm32f1xx_hal_spi.c ****   * @retval None
2514:Drivers/STM32F1xx_HAL_Driver/Src/stm32f1xx_hal_spi.c ****   */
2515:Drivers/STM32F1xx_HAL_Driver/Src/stm32f1xx_hal_spi.c **** __weak void HAL_SPI_TxRxCpltCallback(SPI_HandleTypeDef *hspi)
2516:Drivers/STM32F1xx_HAL_Driver/Src/stm32f1xx_hal_spi.c **** {
 4639              		.loc 1 2516 1
 4640              		.cfi_startproc
 4641              		@ args = 0, pretend = 0, frame = 8
 4642              		@ frame_needed = 1, uses_anonymous_args = 0
 4643              		@ link register save eliminated.
 4644 0000 80B4     		push	{r7}
 4645              	.LCFI113:
 4646              		.cfi_def_cfa_offset 4
 4647              		.cfi_offset 7, -4
 4648 0002 83B0     		sub	sp, sp, #12
 4649              	.LCFI114:
 4650              		.cfi_def_cfa_offset 16
 4651 0004 00AF     		add	r7, sp, #0
 4652              	.LCFI115:
 4653              		.cfi_def_cfa_register 7
 4654 0006 7860     		str	r0, [r7, #4]
2517:Drivers/STM32F1xx_HAL_Driver/Src/stm32f1xx_hal_spi.c ****   /* Prevent unused argument(s) compilation warning */
2518:Drivers/STM32F1xx_HAL_Driver/Src/stm32f1xx_hal_spi.c ****   UNUSED(hspi);
2519:Drivers/STM32F1xx_HAL_Driver/Src/stm32f1xx_hal_spi.c **** 
2520:Drivers/STM32F1xx_HAL_Driver/Src/stm32f1xx_hal_spi.c ****   /* NOTE : This function should not be modified, when the callback is needed,
2521:Drivers/STM32F1xx_HAL_Driver/Src/stm32f1xx_hal_spi.c ****             the HAL_SPI_TxRxCpltCallback should be implemented in the user file
2522:Drivers/STM32F1xx_HAL_Driver/Src/stm32f1xx_hal_spi.c ****    */
2523:Drivers/STM32F1xx_HAL_Driver/Src/stm32f1xx_hal_spi.c **** }
 4655              		.loc 1 2523 1
 4656 0008 00BF     		nop
 4657 000a 0C37     		adds	r7, r7, #12
 4658              	.LCFI116:
 4659              		.cfi_def_cfa_offset 4
 4660 000c BD46     		mov	sp, r7
 4661              	.LCFI117:
 4662              		.cfi_def_cfa_register 13
 4663              		@ sp needed
 4664 000e 80BC     		pop	{r7}
 4665              	.LCFI118:
 4666              		.cfi_restore 7
 4667              		.cfi_def_cfa_offset 0
 4668 0010 7047     		bx	lr
 4669              		.cfi_endproc
 4670              	.LFE86:
 4672              		.section	.text.HAL_SPI_TxHalfCpltCallback,"ax",%progbits
 4673              		.align	1
 4674              		.weak	HAL_SPI_TxHalfCpltCallback
 4675              		.syntax unified
 4676              		.thumb
ARM GAS  C:\Users\Alex\AppData\Local\Temp\ccfYuLQH.s 			page 127


 4677              		.thumb_func
 4678              		.fpu softvfp
 4680              	HAL_SPI_TxHalfCpltCallback:
 4681              	.LFB87:
2524:Drivers/STM32F1xx_HAL_Driver/Src/stm32f1xx_hal_spi.c **** 
2525:Drivers/STM32F1xx_HAL_Driver/Src/stm32f1xx_hal_spi.c **** /**
2526:Drivers/STM32F1xx_HAL_Driver/Src/stm32f1xx_hal_spi.c ****   * @brief  Tx Half Transfer completed callback.
2527:Drivers/STM32F1xx_HAL_Driver/Src/stm32f1xx_hal_spi.c ****   * @param  hspi pointer to a SPI_HandleTypeDef structure that contains
2528:Drivers/STM32F1xx_HAL_Driver/Src/stm32f1xx_hal_spi.c ****   *               the configuration information for SPI module.
2529:Drivers/STM32F1xx_HAL_Driver/Src/stm32f1xx_hal_spi.c ****   * @retval None
2530:Drivers/STM32F1xx_HAL_Driver/Src/stm32f1xx_hal_spi.c ****   */
2531:Drivers/STM32F1xx_HAL_Driver/Src/stm32f1xx_hal_spi.c **** __weak void HAL_SPI_TxHalfCpltCallback(SPI_HandleTypeDef *hspi)
2532:Drivers/STM32F1xx_HAL_Driver/Src/stm32f1xx_hal_spi.c **** {
 4682              		.loc 1 2532 1
 4683              		.cfi_startproc
 4684              		@ args = 0, pretend = 0, frame = 8
 4685              		@ frame_needed = 1, uses_anonymous_args = 0
 4686              		@ link register save eliminated.
 4687 0000 80B4     		push	{r7}
 4688              	.LCFI119:
 4689              		.cfi_def_cfa_offset 4
 4690              		.cfi_offset 7, -4
 4691 0002 83B0     		sub	sp, sp, #12
 4692              	.LCFI120:
 4693              		.cfi_def_cfa_offset 16
 4694 0004 00AF     		add	r7, sp, #0
 4695              	.LCFI121:
 4696              		.cfi_def_cfa_register 7
 4697 0006 7860     		str	r0, [r7, #4]
2533:Drivers/STM32F1xx_HAL_Driver/Src/stm32f1xx_hal_spi.c ****   /* Prevent unused argument(s) compilation warning */
2534:Drivers/STM32F1xx_HAL_Driver/Src/stm32f1xx_hal_spi.c ****   UNUSED(hspi);
2535:Drivers/STM32F1xx_HAL_Driver/Src/stm32f1xx_hal_spi.c **** 
2536:Drivers/STM32F1xx_HAL_Driver/Src/stm32f1xx_hal_spi.c ****   /* NOTE : This function should not be modified, when the callback is needed,
2537:Drivers/STM32F1xx_HAL_Driver/Src/stm32f1xx_hal_spi.c ****             the HAL_SPI_TxHalfCpltCallback should be implemented in the user file
2538:Drivers/STM32F1xx_HAL_Driver/Src/stm32f1xx_hal_spi.c ****    */
2539:Drivers/STM32F1xx_HAL_Driver/Src/stm32f1xx_hal_spi.c **** }
 4698              		.loc 1 2539 1
 4699 0008 00BF     		nop
 4700 000a 0C37     		adds	r7, r7, #12
 4701              	.LCFI122:
 4702              		.cfi_def_cfa_offset 4
 4703 000c BD46     		mov	sp, r7
 4704              	.LCFI123:
 4705              		.cfi_def_cfa_register 13
 4706              		@ sp needed
 4707 000e 80BC     		pop	{r7}
 4708              	.LCFI124:
 4709              		.cfi_restore 7
 4710              		.cfi_def_cfa_offset 0
 4711 0010 7047     		bx	lr
 4712              		.cfi_endproc
 4713              	.LFE87:
 4715              		.section	.text.HAL_SPI_RxHalfCpltCallback,"ax",%progbits
 4716              		.align	1
 4717              		.weak	HAL_SPI_RxHalfCpltCallback
 4718              		.syntax unified
 4719              		.thumb
ARM GAS  C:\Users\Alex\AppData\Local\Temp\ccfYuLQH.s 			page 128


 4720              		.thumb_func
 4721              		.fpu softvfp
 4723              	HAL_SPI_RxHalfCpltCallback:
 4724              	.LFB88:
2540:Drivers/STM32F1xx_HAL_Driver/Src/stm32f1xx_hal_spi.c **** 
2541:Drivers/STM32F1xx_HAL_Driver/Src/stm32f1xx_hal_spi.c **** /**
2542:Drivers/STM32F1xx_HAL_Driver/Src/stm32f1xx_hal_spi.c ****   * @brief  Rx Half Transfer completed callback.
2543:Drivers/STM32F1xx_HAL_Driver/Src/stm32f1xx_hal_spi.c ****   * @param  hspi pointer to a SPI_HandleTypeDef structure that contains
2544:Drivers/STM32F1xx_HAL_Driver/Src/stm32f1xx_hal_spi.c ****   *               the configuration information for SPI module.
2545:Drivers/STM32F1xx_HAL_Driver/Src/stm32f1xx_hal_spi.c ****   * @retval None
2546:Drivers/STM32F1xx_HAL_Driver/Src/stm32f1xx_hal_spi.c ****   */
2547:Drivers/STM32F1xx_HAL_Driver/Src/stm32f1xx_hal_spi.c **** __weak void HAL_SPI_RxHalfCpltCallback(SPI_HandleTypeDef *hspi)
2548:Drivers/STM32F1xx_HAL_Driver/Src/stm32f1xx_hal_spi.c **** {
 4725              		.loc 1 2548 1
 4726              		.cfi_startproc
 4727              		@ args = 0, pretend = 0, frame = 8
 4728              		@ frame_needed = 1, uses_anonymous_args = 0
 4729              		@ link register save eliminated.
 4730 0000 80B4     		push	{r7}
 4731              	.LCFI125:
 4732              		.cfi_def_cfa_offset 4
 4733              		.cfi_offset 7, -4
 4734 0002 83B0     		sub	sp, sp, #12
 4735              	.LCFI126:
 4736              		.cfi_def_cfa_offset 16
 4737 0004 00AF     		add	r7, sp, #0
 4738              	.LCFI127:
 4739              		.cfi_def_cfa_register 7
 4740 0006 7860     		str	r0, [r7, #4]
2549:Drivers/STM32F1xx_HAL_Driver/Src/stm32f1xx_hal_spi.c ****   /* Prevent unused argument(s) compilation warning */
2550:Drivers/STM32F1xx_HAL_Driver/Src/stm32f1xx_hal_spi.c ****   UNUSED(hspi);
2551:Drivers/STM32F1xx_HAL_Driver/Src/stm32f1xx_hal_spi.c **** 
2552:Drivers/STM32F1xx_HAL_Driver/Src/stm32f1xx_hal_spi.c ****   /* NOTE : This function should not be modified, when the callback is needed,
2553:Drivers/STM32F1xx_HAL_Driver/Src/stm32f1xx_hal_spi.c ****             the HAL_SPI_RxHalfCpltCallback() should be implemented in the user file
2554:Drivers/STM32F1xx_HAL_Driver/Src/stm32f1xx_hal_spi.c ****    */
2555:Drivers/STM32F1xx_HAL_Driver/Src/stm32f1xx_hal_spi.c **** }
 4741              		.loc 1 2555 1
 4742 0008 00BF     		nop
 4743 000a 0C37     		adds	r7, r7, #12
 4744              	.LCFI128:
 4745              		.cfi_def_cfa_offset 4
 4746 000c BD46     		mov	sp, r7
 4747              	.LCFI129:
 4748              		.cfi_def_cfa_register 13
 4749              		@ sp needed
 4750 000e 80BC     		pop	{r7}
 4751              	.LCFI130:
 4752              		.cfi_restore 7
 4753              		.cfi_def_cfa_offset 0
 4754 0010 7047     		bx	lr
 4755              		.cfi_endproc
 4756              	.LFE88:
 4758              		.section	.text.HAL_SPI_TxRxHalfCpltCallback,"ax",%progbits
 4759              		.align	1
 4760              		.weak	HAL_SPI_TxRxHalfCpltCallback
 4761              		.syntax unified
 4762              		.thumb
ARM GAS  C:\Users\Alex\AppData\Local\Temp\ccfYuLQH.s 			page 129


 4763              		.thumb_func
 4764              		.fpu softvfp
 4766              	HAL_SPI_TxRxHalfCpltCallback:
 4767              	.LFB89:
2556:Drivers/STM32F1xx_HAL_Driver/Src/stm32f1xx_hal_spi.c **** 
2557:Drivers/STM32F1xx_HAL_Driver/Src/stm32f1xx_hal_spi.c **** /**
2558:Drivers/STM32F1xx_HAL_Driver/Src/stm32f1xx_hal_spi.c ****   * @brief  Tx and Rx Half Transfer callback.
2559:Drivers/STM32F1xx_HAL_Driver/Src/stm32f1xx_hal_spi.c ****   * @param  hspi pointer to a SPI_HandleTypeDef structure that contains
2560:Drivers/STM32F1xx_HAL_Driver/Src/stm32f1xx_hal_spi.c ****   *               the configuration information for SPI module.
2561:Drivers/STM32F1xx_HAL_Driver/Src/stm32f1xx_hal_spi.c ****   * @retval None
2562:Drivers/STM32F1xx_HAL_Driver/Src/stm32f1xx_hal_spi.c ****   */
2563:Drivers/STM32F1xx_HAL_Driver/Src/stm32f1xx_hal_spi.c **** __weak void HAL_SPI_TxRxHalfCpltCallback(SPI_HandleTypeDef *hspi)
2564:Drivers/STM32F1xx_HAL_Driver/Src/stm32f1xx_hal_spi.c **** {
 4768              		.loc 1 2564 1
 4769              		.cfi_startproc
 4770              		@ args = 0, pretend = 0, frame = 8
 4771              		@ frame_needed = 1, uses_anonymous_args = 0
 4772              		@ link register save eliminated.
 4773 0000 80B4     		push	{r7}
 4774              	.LCFI131:
 4775              		.cfi_def_cfa_offset 4
 4776              		.cfi_offset 7, -4
 4777 0002 83B0     		sub	sp, sp, #12
 4778              	.LCFI132:
 4779              		.cfi_def_cfa_offset 16
 4780 0004 00AF     		add	r7, sp, #0
 4781              	.LCFI133:
 4782              		.cfi_def_cfa_register 7
 4783 0006 7860     		str	r0, [r7, #4]
2565:Drivers/STM32F1xx_HAL_Driver/Src/stm32f1xx_hal_spi.c ****   /* Prevent unused argument(s) compilation warning */
2566:Drivers/STM32F1xx_HAL_Driver/Src/stm32f1xx_hal_spi.c ****   UNUSED(hspi);
2567:Drivers/STM32F1xx_HAL_Driver/Src/stm32f1xx_hal_spi.c **** 
2568:Drivers/STM32F1xx_HAL_Driver/Src/stm32f1xx_hal_spi.c ****   /* NOTE : This function should not be modified, when the callback is needed,
2569:Drivers/STM32F1xx_HAL_Driver/Src/stm32f1xx_hal_spi.c ****             the HAL_SPI_TxRxHalfCpltCallback() should be implemented in the user file
2570:Drivers/STM32F1xx_HAL_Driver/Src/stm32f1xx_hal_spi.c ****    */
2571:Drivers/STM32F1xx_HAL_Driver/Src/stm32f1xx_hal_spi.c **** }
 4784              		.loc 1 2571 1
 4785 0008 00BF     		nop
 4786 000a 0C37     		adds	r7, r7, #12
 4787              	.LCFI134:
 4788              		.cfi_def_cfa_offset 4
 4789 000c BD46     		mov	sp, r7
 4790              	.LCFI135:
 4791              		.cfi_def_cfa_register 13
 4792              		@ sp needed
 4793 000e 80BC     		pop	{r7}
 4794              	.LCFI136:
 4795              		.cfi_restore 7
 4796              		.cfi_def_cfa_offset 0
 4797 0010 7047     		bx	lr
 4798              		.cfi_endproc
 4799              	.LFE89:
 4801              		.section	.text.HAL_SPI_ErrorCallback,"ax",%progbits
 4802              		.align	1
 4803              		.weak	HAL_SPI_ErrorCallback
 4804              		.syntax unified
 4805              		.thumb
ARM GAS  C:\Users\Alex\AppData\Local\Temp\ccfYuLQH.s 			page 130


 4806              		.thumb_func
 4807              		.fpu softvfp
 4809              	HAL_SPI_ErrorCallback:
 4810              	.LFB90:
2572:Drivers/STM32F1xx_HAL_Driver/Src/stm32f1xx_hal_spi.c **** 
2573:Drivers/STM32F1xx_HAL_Driver/Src/stm32f1xx_hal_spi.c **** /**
2574:Drivers/STM32F1xx_HAL_Driver/Src/stm32f1xx_hal_spi.c ****   * @brief  SPI error callback.
2575:Drivers/STM32F1xx_HAL_Driver/Src/stm32f1xx_hal_spi.c ****   * @param  hspi pointer to a SPI_HandleTypeDef structure that contains
2576:Drivers/STM32F1xx_HAL_Driver/Src/stm32f1xx_hal_spi.c ****   *               the configuration information for SPI module.
2577:Drivers/STM32F1xx_HAL_Driver/Src/stm32f1xx_hal_spi.c ****   * @retval None
2578:Drivers/STM32F1xx_HAL_Driver/Src/stm32f1xx_hal_spi.c ****   */
2579:Drivers/STM32F1xx_HAL_Driver/Src/stm32f1xx_hal_spi.c **** __weak void HAL_SPI_ErrorCallback(SPI_HandleTypeDef *hspi)
2580:Drivers/STM32F1xx_HAL_Driver/Src/stm32f1xx_hal_spi.c **** {
 4811              		.loc 1 2580 1
 4812              		.cfi_startproc
 4813              		@ args = 0, pretend = 0, frame = 8
 4814              		@ frame_needed = 1, uses_anonymous_args = 0
 4815              		@ link register save eliminated.
 4816 0000 80B4     		push	{r7}
 4817              	.LCFI137:
 4818              		.cfi_def_cfa_offset 4
 4819              		.cfi_offset 7, -4
 4820 0002 83B0     		sub	sp, sp, #12
 4821              	.LCFI138:
 4822              		.cfi_def_cfa_offset 16
 4823 0004 00AF     		add	r7, sp, #0
 4824              	.LCFI139:
 4825              		.cfi_def_cfa_register 7
 4826 0006 7860     		str	r0, [r7, #4]
2581:Drivers/STM32F1xx_HAL_Driver/Src/stm32f1xx_hal_spi.c ****   /* Prevent unused argument(s) compilation warning */
2582:Drivers/STM32F1xx_HAL_Driver/Src/stm32f1xx_hal_spi.c ****   UNUSED(hspi);
2583:Drivers/STM32F1xx_HAL_Driver/Src/stm32f1xx_hal_spi.c **** 
2584:Drivers/STM32F1xx_HAL_Driver/Src/stm32f1xx_hal_spi.c ****   /* NOTE : This function should not be modified, when the callback is needed,
2585:Drivers/STM32F1xx_HAL_Driver/Src/stm32f1xx_hal_spi.c ****             the HAL_SPI_ErrorCallback should be implemented in the user file
2586:Drivers/STM32F1xx_HAL_Driver/Src/stm32f1xx_hal_spi.c ****    */
2587:Drivers/STM32F1xx_HAL_Driver/Src/stm32f1xx_hal_spi.c ****   /* NOTE : The ErrorCode parameter in the hspi handle is updated by the SPI processes
2588:Drivers/STM32F1xx_HAL_Driver/Src/stm32f1xx_hal_spi.c ****             and user can use HAL_SPI_GetError() API to check the latest error occurred
2589:Drivers/STM32F1xx_HAL_Driver/Src/stm32f1xx_hal_spi.c ****    */
2590:Drivers/STM32F1xx_HAL_Driver/Src/stm32f1xx_hal_spi.c **** }
 4827              		.loc 1 2590 1
 4828 0008 00BF     		nop
 4829 000a 0C37     		adds	r7, r7, #12
 4830              	.LCFI140:
 4831              		.cfi_def_cfa_offset 4
 4832 000c BD46     		mov	sp, r7
 4833              	.LCFI141:
 4834              		.cfi_def_cfa_register 13
 4835              		@ sp needed
 4836 000e 80BC     		pop	{r7}
 4837              	.LCFI142:
 4838              		.cfi_restore 7
 4839              		.cfi_def_cfa_offset 0
 4840 0010 7047     		bx	lr
 4841              		.cfi_endproc
 4842              	.LFE90:
 4844              		.section	.text.HAL_SPI_AbortCpltCallback,"ax",%progbits
 4845              		.align	1
ARM GAS  C:\Users\Alex\AppData\Local\Temp\ccfYuLQH.s 			page 131


 4846              		.weak	HAL_SPI_AbortCpltCallback
 4847              		.syntax unified
 4848              		.thumb
 4849              		.thumb_func
 4850              		.fpu softvfp
 4852              	HAL_SPI_AbortCpltCallback:
 4853              	.LFB91:
2591:Drivers/STM32F1xx_HAL_Driver/Src/stm32f1xx_hal_spi.c **** 
2592:Drivers/STM32F1xx_HAL_Driver/Src/stm32f1xx_hal_spi.c **** /**
2593:Drivers/STM32F1xx_HAL_Driver/Src/stm32f1xx_hal_spi.c ****   * @brief  SPI Abort Complete callback.
2594:Drivers/STM32F1xx_HAL_Driver/Src/stm32f1xx_hal_spi.c ****   * @param  hspi SPI handle.
2595:Drivers/STM32F1xx_HAL_Driver/Src/stm32f1xx_hal_spi.c ****   * @retval None
2596:Drivers/STM32F1xx_HAL_Driver/Src/stm32f1xx_hal_spi.c ****   */
2597:Drivers/STM32F1xx_HAL_Driver/Src/stm32f1xx_hal_spi.c **** __weak void HAL_SPI_AbortCpltCallback(SPI_HandleTypeDef *hspi)
2598:Drivers/STM32F1xx_HAL_Driver/Src/stm32f1xx_hal_spi.c **** {
 4854              		.loc 1 2598 1
 4855              		.cfi_startproc
 4856              		@ args = 0, pretend = 0, frame = 8
 4857              		@ frame_needed = 1, uses_anonymous_args = 0
 4858              		@ link register save eliminated.
 4859 0000 80B4     		push	{r7}
 4860              	.LCFI143:
 4861              		.cfi_def_cfa_offset 4
 4862              		.cfi_offset 7, -4
 4863 0002 83B0     		sub	sp, sp, #12
 4864              	.LCFI144:
 4865              		.cfi_def_cfa_offset 16
 4866 0004 00AF     		add	r7, sp, #0
 4867              	.LCFI145:
 4868              		.cfi_def_cfa_register 7
 4869 0006 7860     		str	r0, [r7, #4]
2599:Drivers/STM32F1xx_HAL_Driver/Src/stm32f1xx_hal_spi.c ****   /* Prevent unused argument(s) compilation warning */
2600:Drivers/STM32F1xx_HAL_Driver/Src/stm32f1xx_hal_spi.c ****   UNUSED(hspi);
2601:Drivers/STM32F1xx_HAL_Driver/Src/stm32f1xx_hal_spi.c **** 
2602:Drivers/STM32F1xx_HAL_Driver/Src/stm32f1xx_hal_spi.c ****   /* NOTE : This function should not be modified, when the callback is needed,
2603:Drivers/STM32F1xx_HAL_Driver/Src/stm32f1xx_hal_spi.c ****             the HAL_SPI_AbortCpltCallback can be implemented in the user file.
2604:Drivers/STM32F1xx_HAL_Driver/Src/stm32f1xx_hal_spi.c ****    */
2605:Drivers/STM32F1xx_HAL_Driver/Src/stm32f1xx_hal_spi.c **** }
 4870              		.loc 1 2605 1
 4871 0008 00BF     		nop
 4872 000a 0C37     		adds	r7, r7, #12
 4873              	.LCFI146:
 4874              		.cfi_def_cfa_offset 4
 4875 000c BD46     		mov	sp, r7
 4876              	.LCFI147:
 4877              		.cfi_def_cfa_register 13
 4878              		@ sp needed
 4879 000e 80BC     		pop	{r7}
 4880              	.LCFI148:
 4881              		.cfi_restore 7
 4882              		.cfi_def_cfa_offset 0
 4883 0010 7047     		bx	lr
 4884              		.cfi_endproc
 4885              	.LFE91:
 4887              		.section	.text.HAL_SPI_GetState,"ax",%progbits
 4888              		.align	1
 4889              		.global	HAL_SPI_GetState
ARM GAS  C:\Users\Alex\AppData\Local\Temp\ccfYuLQH.s 			page 132


 4890              		.syntax unified
 4891              		.thumb
 4892              		.thumb_func
 4893              		.fpu softvfp
 4895              	HAL_SPI_GetState:
 4896              	.LFB92:
2606:Drivers/STM32F1xx_HAL_Driver/Src/stm32f1xx_hal_spi.c **** 
2607:Drivers/STM32F1xx_HAL_Driver/Src/stm32f1xx_hal_spi.c **** /**
2608:Drivers/STM32F1xx_HAL_Driver/Src/stm32f1xx_hal_spi.c ****   * @}
2609:Drivers/STM32F1xx_HAL_Driver/Src/stm32f1xx_hal_spi.c ****   */
2610:Drivers/STM32F1xx_HAL_Driver/Src/stm32f1xx_hal_spi.c **** 
2611:Drivers/STM32F1xx_HAL_Driver/Src/stm32f1xx_hal_spi.c **** /** @defgroup SPI_Exported_Functions_Group3 Peripheral State and Errors functions
2612:Drivers/STM32F1xx_HAL_Driver/Src/stm32f1xx_hal_spi.c ****   * @brief   SPI control functions
2613:Drivers/STM32F1xx_HAL_Driver/Src/stm32f1xx_hal_spi.c ****   *
2614:Drivers/STM32F1xx_HAL_Driver/Src/stm32f1xx_hal_spi.c **** @verbatim
2615:Drivers/STM32F1xx_HAL_Driver/Src/stm32f1xx_hal_spi.c ****  ===============================================================================
2616:Drivers/STM32F1xx_HAL_Driver/Src/stm32f1xx_hal_spi.c ****                       ##### Peripheral State and Errors functions #####
2617:Drivers/STM32F1xx_HAL_Driver/Src/stm32f1xx_hal_spi.c ****  ===============================================================================
2618:Drivers/STM32F1xx_HAL_Driver/Src/stm32f1xx_hal_spi.c ****     [..]
2619:Drivers/STM32F1xx_HAL_Driver/Src/stm32f1xx_hal_spi.c ****     This subsection provides a set of functions allowing to control the SPI.
2620:Drivers/STM32F1xx_HAL_Driver/Src/stm32f1xx_hal_spi.c ****      (+) HAL_SPI_GetState() API can be helpful to check in run-time the state of the SPI peripheral
2621:Drivers/STM32F1xx_HAL_Driver/Src/stm32f1xx_hal_spi.c ****      (+) HAL_SPI_GetError() check in run-time Errors occurring during communication
2622:Drivers/STM32F1xx_HAL_Driver/Src/stm32f1xx_hal_spi.c **** @endverbatim
2623:Drivers/STM32F1xx_HAL_Driver/Src/stm32f1xx_hal_spi.c ****   * @{
2624:Drivers/STM32F1xx_HAL_Driver/Src/stm32f1xx_hal_spi.c ****   */
2625:Drivers/STM32F1xx_HAL_Driver/Src/stm32f1xx_hal_spi.c **** 
2626:Drivers/STM32F1xx_HAL_Driver/Src/stm32f1xx_hal_spi.c **** /**
2627:Drivers/STM32F1xx_HAL_Driver/Src/stm32f1xx_hal_spi.c ****   * @brief  Return the SPI handle state.
2628:Drivers/STM32F1xx_HAL_Driver/Src/stm32f1xx_hal_spi.c ****   * @param  hspi pointer to a SPI_HandleTypeDef structure that contains
2629:Drivers/STM32F1xx_HAL_Driver/Src/stm32f1xx_hal_spi.c ****   *               the configuration information for SPI module.
2630:Drivers/STM32F1xx_HAL_Driver/Src/stm32f1xx_hal_spi.c ****   * @retval SPI state
2631:Drivers/STM32F1xx_HAL_Driver/Src/stm32f1xx_hal_spi.c ****   */
2632:Drivers/STM32F1xx_HAL_Driver/Src/stm32f1xx_hal_spi.c **** HAL_SPI_StateTypeDef HAL_SPI_GetState(SPI_HandleTypeDef *hspi)
2633:Drivers/STM32F1xx_HAL_Driver/Src/stm32f1xx_hal_spi.c **** {
 4897              		.loc 1 2633 1
 4898              		.cfi_startproc
 4899              		@ args = 0, pretend = 0, frame = 8
 4900              		@ frame_needed = 1, uses_anonymous_args = 0
 4901              		@ link register save eliminated.
 4902 0000 80B4     		push	{r7}
 4903              	.LCFI149:
 4904              		.cfi_def_cfa_offset 4
 4905              		.cfi_offset 7, -4
 4906 0002 83B0     		sub	sp, sp, #12
 4907              	.LCFI150:
 4908              		.cfi_def_cfa_offset 16
 4909 0004 00AF     		add	r7, sp, #0
 4910              	.LCFI151:
 4911              		.cfi_def_cfa_register 7
 4912 0006 7860     		str	r0, [r7, #4]
2634:Drivers/STM32F1xx_HAL_Driver/Src/stm32f1xx_hal_spi.c ****   /* Return SPI handle state */
2635:Drivers/STM32F1xx_HAL_Driver/Src/stm32f1xx_hal_spi.c ****   return hspi->State;
 4913              		.loc 1 2635 14
 4914 0008 7B68     		ldr	r3, [r7, #4]
 4915 000a 93F85130 		ldrb	r3, [r3, #81]
 4916 000e DBB2     		uxtb	r3, r3
2636:Drivers/STM32F1xx_HAL_Driver/Src/stm32f1xx_hal_spi.c **** }
ARM GAS  C:\Users\Alex\AppData\Local\Temp\ccfYuLQH.s 			page 133


 4917              		.loc 1 2636 1
 4918 0010 1846     		mov	r0, r3
 4919 0012 0C37     		adds	r7, r7, #12
 4920              	.LCFI152:
 4921              		.cfi_def_cfa_offset 4
 4922 0014 BD46     		mov	sp, r7
 4923              	.LCFI153:
 4924              		.cfi_def_cfa_register 13
 4925              		@ sp needed
 4926 0016 80BC     		pop	{r7}
 4927              	.LCFI154:
 4928              		.cfi_restore 7
 4929              		.cfi_def_cfa_offset 0
 4930 0018 7047     		bx	lr
 4931              		.cfi_endproc
 4932              	.LFE92:
 4934              		.section	.text.HAL_SPI_GetError,"ax",%progbits
 4935              		.align	1
 4936              		.global	HAL_SPI_GetError
 4937              		.syntax unified
 4938              		.thumb
 4939              		.thumb_func
 4940              		.fpu softvfp
 4942              	HAL_SPI_GetError:
 4943              	.LFB93:
2637:Drivers/STM32F1xx_HAL_Driver/Src/stm32f1xx_hal_spi.c **** 
2638:Drivers/STM32F1xx_HAL_Driver/Src/stm32f1xx_hal_spi.c **** /**
2639:Drivers/STM32F1xx_HAL_Driver/Src/stm32f1xx_hal_spi.c ****   * @brief  Return the SPI error code.
2640:Drivers/STM32F1xx_HAL_Driver/Src/stm32f1xx_hal_spi.c ****   * @param  hspi pointer to a SPI_HandleTypeDef structure that contains
2641:Drivers/STM32F1xx_HAL_Driver/Src/stm32f1xx_hal_spi.c ****   *               the configuration information for SPI module.
2642:Drivers/STM32F1xx_HAL_Driver/Src/stm32f1xx_hal_spi.c ****   * @retval SPI error code in bitmap format
2643:Drivers/STM32F1xx_HAL_Driver/Src/stm32f1xx_hal_spi.c ****   */
2644:Drivers/STM32F1xx_HAL_Driver/Src/stm32f1xx_hal_spi.c **** uint32_t HAL_SPI_GetError(SPI_HandleTypeDef *hspi)
2645:Drivers/STM32F1xx_HAL_Driver/Src/stm32f1xx_hal_spi.c **** {
 4944              		.loc 1 2645 1
 4945              		.cfi_startproc
 4946              		@ args = 0, pretend = 0, frame = 8
 4947              		@ frame_needed = 1, uses_anonymous_args = 0
 4948              		@ link register save eliminated.
 4949 0000 80B4     		push	{r7}
 4950              	.LCFI155:
 4951              		.cfi_def_cfa_offset 4
 4952              		.cfi_offset 7, -4
 4953 0002 83B0     		sub	sp, sp, #12
 4954              	.LCFI156:
 4955              		.cfi_def_cfa_offset 16
 4956 0004 00AF     		add	r7, sp, #0
 4957              	.LCFI157:
 4958              		.cfi_def_cfa_register 7
 4959 0006 7860     		str	r0, [r7, #4]
2646:Drivers/STM32F1xx_HAL_Driver/Src/stm32f1xx_hal_spi.c ****   /* Return SPI ErrorCode */
2647:Drivers/STM32F1xx_HAL_Driver/Src/stm32f1xx_hal_spi.c ****   return hspi->ErrorCode;
 4960              		.loc 1 2647 14
 4961 0008 7B68     		ldr	r3, [r7, #4]
 4962 000a 5B6D     		ldr	r3, [r3, #84]
2648:Drivers/STM32F1xx_HAL_Driver/Src/stm32f1xx_hal_spi.c **** }
 4963              		.loc 1 2648 1
ARM GAS  C:\Users\Alex\AppData\Local\Temp\ccfYuLQH.s 			page 134


 4964 000c 1846     		mov	r0, r3
 4965 000e 0C37     		adds	r7, r7, #12
 4966              	.LCFI158:
 4967              		.cfi_def_cfa_offset 4
 4968 0010 BD46     		mov	sp, r7
 4969              	.LCFI159:
 4970              		.cfi_def_cfa_register 13
 4971              		@ sp needed
 4972 0012 80BC     		pop	{r7}
 4973              	.LCFI160:
 4974              		.cfi_restore 7
 4975              		.cfi_def_cfa_offset 0
 4976 0014 7047     		bx	lr
 4977              		.cfi_endproc
 4978              	.LFE93:
 4980              		.section	.text.SPI_DMATransmitCplt,"ax",%progbits
 4981              		.align	1
 4982              		.syntax unified
 4983              		.thumb
 4984              		.thumb_func
 4985              		.fpu softvfp
 4987              	SPI_DMATransmitCplt:
 4988              	.LFB94:
2649:Drivers/STM32F1xx_HAL_Driver/Src/stm32f1xx_hal_spi.c **** 
2650:Drivers/STM32F1xx_HAL_Driver/Src/stm32f1xx_hal_spi.c **** /**
2651:Drivers/STM32F1xx_HAL_Driver/Src/stm32f1xx_hal_spi.c ****   * @}
2652:Drivers/STM32F1xx_HAL_Driver/Src/stm32f1xx_hal_spi.c ****   */
2653:Drivers/STM32F1xx_HAL_Driver/Src/stm32f1xx_hal_spi.c **** 
2654:Drivers/STM32F1xx_HAL_Driver/Src/stm32f1xx_hal_spi.c **** /**
2655:Drivers/STM32F1xx_HAL_Driver/Src/stm32f1xx_hal_spi.c ****   * @}
2656:Drivers/STM32F1xx_HAL_Driver/Src/stm32f1xx_hal_spi.c ****   */
2657:Drivers/STM32F1xx_HAL_Driver/Src/stm32f1xx_hal_spi.c **** 
2658:Drivers/STM32F1xx_HAL_Driver/Src/stm32f1xx_hal_spi.c **** /** @addtogroup SPI_Private_Functions
2659:Drivers/STM32F1xx_HAL_Driver/Src/stm32f1xx_hal_spi.c ****   * @brief   Private functions
2660:Drivers/STM32F1xx_HAL_Driver/Src/stm32f1xx_hal_spi.c ****   * @{
2661:Drivers/STM32F1xx_HAL_Driver/Src/stm32f1xx_hal_spi.c ****   */
2662:Drivers/STM32F1xx_HAL_Driver/Src/stm32f1xx_hal_spi.c **** 
2663:Drivers/STM32F1xx_HAL_Driver/Src/stm32f1xx_hal_spi.c **** /**
2664:Drivers/STM32F1xx_HAL_Driver/Src/stm32f1xx_hal_spi.c ****   * @brief  DMA SPI transmit process complete callback.
2665:Drivers/STM32F1xx_HAL_Driver/Src/stm32f1xx_hal_spi.c ****   * @param  hdma pointer to a DMA_HandleTypeDef structure that contains
2666:Drivers/STM32F1xx_HAL_Driver/Src/stm32f1xx_hal_spi.c ****   *               the configuration information for the specified DMA module.
2667:Drivers/STM32F1xx_HAL_Driver/Src/stm32f1xx_hal_spi.c ****   * @retval None
2668:Drivers/STM32F1xx_HAL_Driver/Src/stm32f1xx_hal_spi.c ****   */
2669:Drivers/STM32F1xx_HAL_Driver/Src/stm32f1xx_hal_spi.c **** static void SPI_DMATransmitCplt(DMA_HandleTypeDef *hdma)
2670:Drivers/STM32F1xx_HAL_Driver/Src/stm32f1xx_hal_spi.c **** {
 4989              		.loc 1 2670 1
 4990              		.cfi_startproc
 4991              		@ args = 0, pretend = 0, frame = 24
 4992              		@ frame_needed = 1, uses_anonymous_args = 0
 4993 0000 80B5     		push	{r7, lr}
 4994              	.LCFI161:
 4995              		.cfi_def_cfa_offset 8
 4996              		.cfi_offset 7, -8
 4997              		.cfi_offset 14, -4
 4998 0002 86B0     		sub	sp, sp, #24
 4999              	.LCFI162:
 5000              		.cfi_def_cfa_offset 32
ARM GAS  C:\Users\Alex\AppData\Local\Temp\ccfYuLQH.s 			page 135


 5001 0004 00AF     		add	r7, sp, #0
 5002              	.LCFI163:
 5003              		.cfi_def_cfa_register 7
 5004 0006 7860     		str	r0, [r7, #4]
2671:Drivers/STM32F1xx_HAL_Driver/Src/stm32f1xx_hal_spi.c ****   SPI_HandleTypeDef *hspi = (SPI_HandleTypeDef *)(((DMA_HandleTypeDef *)hdma)->Parent); /* Derogati
 5005              		.loc 1 2671 22
 5006 0008 7B68     		ldr	r3, [r7, #4]
 5007 000a 5B6A     		ldr	r3, [r3, #36]
 5008 000c 7B61     		str	r3, [r7, #20]
2672:Drivers/STM32F1xx_HAL_Driver/Src/stm32f1xx_hal_spi.c ****   uint32_t tickstart;
2673:Drivers/STM32F1xx_HAL_Driver/Src/stm32f1xx_hal_spi.c **** 
2674:Drivers/STM32F1xx_HAL_Driver/Src/stm32f1xx_hal_spi.c ****   /* Init tickstart for timeout management*/
2675:Drivers/STM32F1xx_HAL_Driver/Src/stm32f1xx_hal_spi.c ****   tickstart = HAL_GetTick();
 5009              		.loc 1 2675 15
 5010 000e FFF7FEFF 		bl	HAL_GetTick
 5011 0012 3861     		str	r0, [r7, #16]
2676:Drivers/STM32F1xx_HAL_Driver/Src/stm32f1xx_hal_spi.c **** 
2677:Drivers/STM32F1xx_HAL_Driver/Src/stm32f1xx_hal_spi.c ****   /* DMA Normal Mode */
2678:Drivers/STM32F1xx_HAL_Driver/Src/stm32f1xx_hal_spi.c ****   if ((hdma->Instance->CCR & DMA_CCR_CIRC) != DMA_CCR_CIRC)
 5012              		.loc 1 2678 12
 5013 0014 7B68     		ldr	r3, [r7, #4]
 5014 0016 1B68     		ldr	r3, [r3]
 5015              		.loc 1 2678 22
 5016 0018 1B68     		ldr	r3, [r3]
 5017              		.loc 1 2678 28
 5018 001a 03F02003 		and	r3, r3, #32
 5019              		.loc 1 2678 6
 5020 001e 202B     		cmp	r3, #32
 5021 0020 3BD0     		beq	.L255
2679:Drivers/STM32F1xx_HAL_Driver/Src/stm32f1xx_hal_spi.c ****   {
2680:Drivers/STM32F1xx_HAL_Driver/Src/stm32f1xx_hal_spi.c ****     /* Disable ERR interrupt */
2681:Drivers/STM32F1xx_HAL_Driver/Src/stm32f1xx_hal_spi.c ****     __HAL_SPI_DISABLE_IT(hspi, SPI_IT_ERR);
 5022              		.loc 1 2681 5
 5023 0022 7B69     		ldr	r3, [r7, #20]
 5024 0024 1B68     		ldr	r3, [r3]
 5025 0026 5A68     		ldr	r2, [r3, #4]
 5026 0028 7B69     		ldr	r3, [r7, #20]
 5027 002a 1B68     		ldr	r3, [r3]
 5028 002c 22F02002 		bic	r2, r2, #32
 5029 0030 5A60     		str	r2, [r3, #4]
2682:Drivers/STM32F1xx_HAL_Driver/Src/stm32f1xx_hal_spi.c **** 
2683:Drivers/STM32F1xx_HAL_Driver/Src/stm32f1xx_hal_spi.c ****     /* Disable Tx DMA Request */
2684:Drivers/STM32F1xx_HAL_Driver/Src/stm32f1xx_hal_spi.c ****     CLEAR_BIT(hspi->Instance->CR2, SPI_CR2_TXDMAEN);
 5030              		.loc 1 2684 5
 5031 0032 7B69     		ldr	r3, [r7, #20]
 5032 0034 1B68     		ldr	r3, [r3]
 5033 0036 5A68     		ldr	r2, [r3, #4]
 5034 0038 7B69     		ldr	r3, [r7, #20]
 5035 003a 1B68     		ldr	r3, [r3]
 5036 003c 22F00202 		bic	r2, r2, #2
 5037 0040 5A60     		str	r2, [r3, #4]
2685:Drivers/STM32F1xx_HAL_Driver/Src/stm32f1xx_hal_spi.c **** 
2686:Drivers/STM32F1xx_HAL_Driver/Src/stm32f1xx_hal_spi.c ****     /* Check the end of the transaction */
2687:Drivers/STM32F1xx_HAL_Driver/Src/stm32f1xx_hal_spi.c ****     if (SPI_EndRxTxTransaction(hspi, SPI_DEFAULT_TIMEOUT, tickstart) != HAL_OK)
 5038              		.loc 1 2687 9
 5039 0042 3A69     		ldr	r2, [r7, #16]
 5040 0044 6421     		movs	r1, #100
ARM GAS  C:\Users\Alex\AppData\Local\Temp\ccfYuLQH.s 			page 136


 5041 0046 7869     		ldr	r0, [r7, #20]
 5042 0048 FFF7FEFF 		bl	SPI_EndRxTxTransaction
 5043 004c 0346     		mov	r3, r0
 5044              		.loc 1 2687 8
 5045 004e 002B     		cmp	r3, #0
 5046 0050 05D0     		beq	.L256
2688:Drivers/STM32F1xx_HAL_Driver/Src/stm32f1xx_hal_spi.c ****     {
2689:Drivers/STM32F1xx_HAL_Driver/Src/stm32f1xx_hal_spi.c ****       SET_BIT(hspi->ErrorCode, HAL_SPI_ERROR_FLAG);
 5047              		.loc 1 2689 7
 5048 0052 7B69     		ldr	r3, [r7, #20]
 5049 0054 5B6D     		ldr	r3, [r3, #84]
 5050 0056 43F02002 		orr	r2, r3, #32
 5051 005a 7B69     		ldr	r3, [r7, #20]
 5052 005c 5A65     		str	r2, [r3, #84]
 5053              	.L256:
2690:Drivers/STM32F1xx_HAL_Driver/Src/stm32f1xx_hal_spi.c ****     }
2691:Drivers/STM32F1xx_HAL_Driver/Src/stm32f1xx_hal_spi.c **** 
2692:Drivers/STM32F1xx_HAL_Driver/Src/stm32f1xx_hal_spi.c ****     /* Clear overrun flag in 2 Lines communication mode because received data is not read */
2693:Drivers/STM32F1xx_HAL_Driver/Src/stm32f1xx_hal_spi.c ****     if (hspi->Init.Direction == SPI_DIRECTION_2LINES)
 5054              		.loc 1 2693 19
 5055 005e 7B69     		ldr	r3, [r7, #20]
 5056 0060 9B68     		ldr	r3, [r3, #8]
 5057              		.loc 1 2693 8
 5058 0062 002B     		cmp	r3, #0
 5059 0064 0AD1     		bne	.L257
 5060              	.LBB9:
2694:Drivers/STM32F1xx_HAL_Driver/Src/stm32f1xx_hal_spi.c ****     {
2695:Drivers/STM32F1xx_HAL_Driver/Src/stm32f1xx_hal_spi.c ****       __HAL_SPI_CLEAR_OVRFLAG(hspi);
 5061              		.loc 1 2695 7
 5062 0066 0023     		movs	r3, #0
 5063 0068 FB60     		str	r3, [r7, #12]
 5064 006a 7B69     		ldr	r3, [r7, #20]
 5065 006c 1B68     		ldr	r3, [r3]
 5066 006e DB68     		ldr	r3, [r3, #12]
 5067 0070 FB60     		str	r3, [r7, #12]
 5068 0072 7B69     		ldr	r3, [r7, #20]
 5069 0074 1B68     		ldr	r3, [r3]
 5070 0076 9B68     		ldr	r3, [r3, #8]
 5071 0078 FB60     		str	r3, [r7, #12]
 5072 007a FB68     		ldr	r3, [r7, #12]
 5073              	.L257:
 5074              	.LBE9:
2696:Drivers/STM32F1xx_HAL_Driver/Src/stm32f1xx_hal_spi.c ****     }
2697:Drivers/STM32F1xx_HAL_Driver/Src/stm32f1xx_hal_spi.c **** 
2698:Drivers/STM32F1xx_HAL_Driver/Src/stm32f1xx_hal_spi.c ****     hspi->TxXferCount = 0U;
 5075              		.loc 1 2698 23
 5076 007c 7B69     		ldr	r3, [r7, #20]
 5077 007e 0022     		movs	r2, #0
 5078 0080 DA86     		strh	r2, [r3, #54]	@ movhi
2699:Drivers/STM32F1xx_HAL_Driver/Src/stm32f1xx_hal_spi.c ****     hspi->State = HAL_SPI_STATE_READY;
 5079              		.loc 1 2699 17
 5080 0082 7B69     		ldr	r3, [r7, #20]
 5081 0084 0122     		movs	r2, #1
 5082 0086 83F85120 		strb	r2, [r3, #81]
2700:Drivers/STM32F1xx_HAL_Driver/Src/stm32f1xx_hal_spi.c **** 
2701:Drivers/STM32F1xx_HAL_Driver/Src/stm32f1xx_hal_spi.c ****     if (hspi->ErrorCode != HAL_SPI_ERROR_NONE)
 5083              		.loc 1 2701 13
ARM GAS  C:\Users\Alex\AppData\Local\Temp\ccfYuLQH.s 			page 137


 5084 008a 7B69     		ldr	r3, [r7, #20]
 5085 008c 5B6D     		ldr	r3, [r3, #84]
 5086              		.loc 1 2701 8
 5087 008e 002B     		cmp	r3, #0
 5088 0090 03D0     		beq	.L255
2702:Drivers/STM32F1xx_HAL_Driver/Src/stm32f1xx_hal_spi.c ****     {
2703:Drivers/STM32F1xx_HAL_Driver/Src/stm32f1xx_hal_spi.c ****       /* Call user error callback */
2704:Drivers/STM32F1xx_HAL_Driver/Src/stm32f1xx_hal_spi.c **** #if (USE_HAL_SPI_REGISTER_CALLBACKS == 1U)
2705:Drivers/STM32F1xx_HAL_Driver/Src/stm32f1xx_hal_spi.c ****       hspi->ErrorCallback(hspi);
2706:Drivers/STM32F1xx_HAL_Driver/Src/stm32f1xx_hal_spi.c **** #else
2707:Drivers/STM32F1xx_HAL_Driver/Src/stm32f1xx_hal_spi.c ****       HAL_SPI_ErrorCallback(hspi);
 5089              		.loc 1 2707 7
 5090 0092 7869     		ldr	r0, [r7, #20]
 5091 0094 FFF7FEFF 		bl	HAL_SPI_ErrorCallback
2708:Drivers/STM32F1xx_HAL_Driver/Src/stm32f1xx_hal_spi.c **** #endif /* USE_HAL_SPI_REGISTER_CALLBACKS */
2709:Drivers/STM32F1xx_HAL_Driver/Src/stm32f1xx_hal_spi.c ****       return;
 5092              		.loc 1 2709 7
 5093 0098 02E0     		b	.L254
 5094              	.L255:
2710:Drivers/STM32F1xx_HAL_Driver/Src/stm32f1xx_hal_spi.c ****     }
2711:Drivers/STM32F1xx_HAL_Driver/Src/stm32f1xx_hal_spi.c ****   }
2712:Drivers/STM32F1xx_HAL_Driver/Src/stm32f1xx_hal_spi.c ****   /* Call user Tx complete callback */
2713:Drivers/STM32F1xx_HAL_Driver/Src/stm32f1xx_hal_spi.c **** #if (USE_HAL_SPI_REGISTER_CALLBACKS == 1U)
2714:Drivers/STM32F1xx_HAL_Driver/Src/stm32f1xx_hal_spi.c ****   hspi->TxCpltCallback(hspi);
2715:Drivers/STM32F1xx_HAL_Driver/Src/stm32f1xx_hal_spi.c **** #else
2716:Drivers/STM32F1xx_HAL_Driver/Src/stm32f1xx_hal_spi.c ****   HAL_SPI_TxCpltCallback(hspi);
 5095              		.loc 1 2716 3
 5096 009a 7869     		ldr	r0, [r7, #20]
 5097 009c FFF7FEFF 		bl	HAL_SPI_TxCpltCallback
 5098              	.L254:
2717:Drivers/STM32F1xx_HAL_Driver/Src/stm32f1xx_hal_spi.c **** #endif /* USE_HAL_SPI_REGISTER_CALLBACKS */
2718:Drivers/STM32F1xx_HAL_Driver/Src/stm32f1xx_hal_spi.c **** }
 5099              		.loc 1 2718 1
 5100 00a0 1837     		adds	r7, r7, #24
 5101              	.LCFI164:
 5102              		.cfi_def_cfa_offset 8
 5103 00a2 BD46     		mov	sp, r7
 5104              	.LCFI165:
 5105              		.cfi_def_cfa_register 13
 5106              		@ sp needed
 5107 00a4 80BD     		pop	{r7, pc}
 5108              		.cfi_endproc
 5109              	.LFE94:
 5111              		.section	.text.SPI_DMAReceiveCplt,"ax",%progbits
 5112              		.align	1
 5113              		.syntax unified
 5114              		.thumb
 5115              		.thumb_func
 5116              		.fpu softvfp
 5118              	SPI_DMAReceiveCplt:
 5119              	.LFB95:
2719:Drivers/STM32F1xx_HAL_Driver/Src/stm32f1xx_hal_spi.c **** 
2720:Drivers/STM32F1xx_HAL_Driver/Src/stm32f1xx_hal_spi.c **** /**
2721:Drivers/STM32F1xx_HAL_Driver/Src/stm32f1xx_hal_spi.c ****   * @brief  DMA SPI receive process complete callback.
2722:Drivers/STM32F1xx_HAL_Driver/Src/stm32f1xx_hal_spi.c ****   * @param  hdma pointer to a DMA_HandleTypeDef structure that contains
2723:Drivers/STM32F1xx_HAL_Driver/Src/stm32f1xx_hal_spi.c ****   *               the configuration information for the specified DMA module.
2724:Drivers/STM32F1xx_HAL_Driver/Src/stm32f1xx_hal_spi.c ****   * @retval None
ARM GAS  C:\Users\Alex\AppData\Local\Temp\ccfYuLQH.s 			page 138


2725:Drivers/STM32F1xx_HAL_Driver/Src/stm32f1xx_hal_spi.c ****   */
2726:Drivers/STM32F1xx_HAL_Driver/Src/stm32f1xx_hal_spi.c **** static void SPI_DMAReceiveCplt(DMA_HandleTypeDef *hdma)
2727:Drivers/STM32F1xx_HAL_Driver/Src/stm32f1xx_hal_spi.c **** {
 5120              		.loc 1 2727 1
 5121              		.cfi_startproc
 5122              		@ args = 0, pretend = 0, frame = 16
 5123              		@ frame_needed = 1, uses_anonymous_args = 0
 5124 0000 80B5     		push	{r7, lr}
 5125              	.LCFI166:
 5126              		.cfi_def_cfa_offset 8
 5127              		.cfi_offset 7, -8
 5128              		.cfi_offset 14, -4
 5129 0002 84B0     		sub	sp, sp, #16
 5130              	.LCFI167:
 5131              		.cfi_def_cfa_offset 24
 5132 0004 00AF     		add	r7, sp, #0
 5133              	.LCFI168:
 5134              		.cfi_def_cfa_register 7
 5135 0006 7860     		str	r0, [r7, #4]
2728:Drivers/STM32F1xx_HAL_Driver/Src/stm32f1xx_hal_spi.c ****   SPI_HandleTypeDef *hspi = (SPI_HandleTypeDef *)(((DMA_HandleTypeDef *)hdma)->Parent); /* Derogati
 5136              		.loc 1 2728 22
 5137 0008 7B68     		ldr	r3, [r7, #4]
 5138 000a 5B6A     		ldr	r3, [r3, #36]
 5139 000c FB60     		str	r3, [r7, #12]
2729:Drivers/STM32F1xx_HAL_Driver/Src/stm32f1xx_hal_spi.c ****   uint32_t tickstart;
2730:Drivers/STM32F1xx_HAL_Driver/Src/stm32f1xx_hal_spi.c **** 
2731:Drivers/STM32F1xx_HAL_Driver/Src/stm32f1xx_hal_spi.c ****   /* Init tickstart for timeout management*/
2732:Drivers/STM32F1xx_HAL_Driver/Src/stm32f1xx_hal_spi.c ****   tickstart = HAL_GetTick();
 5140              		.loc 1 2732 15
 5141 000e FFF7FEFF 		bl	HAL_GetTick
 5142 0012 B860     		str	r0, [r7, #8]
2733:Drivers/STM32F1xx_HAL_Driver/Src/stm32f1xx_hal_spi.c **** 
2734:Drivers/STM32F1xx_HAL_Driver/Src/stm32f1xx_hal_spi.c ****   /* DMA Normal Mode */
2735:Drivers/STM32F1xx_HAL_Driver/Src/stm32f1xx_hal_spi.c ****   if ((hdma->Instance->CCR & DMA_CCR_CIRC) != DMA_CCR_CIRC)
 5143              		.loc 1 2735 12
 5144 0014 7B68     		ldr	r3, [r7, #4]
 5145 0016 1B68     		ldr	r3, [r3]
 5146              		.loc 1 2735 22
 5147 0018 1B68     		ldr	r3, [r3]
 5148              		.loc 1 2735 28
 5149 001a 03F02003 		and	r3, r3, #32
 5150              		.loc 1 2735 6
 5151 001e 202B     		cmp	r3, #32
 5152 0020 29D0     		beq	.L260
2736:Drivers/STM32F1xx_HAL_Driver/Src/stm32f1xx_hal_spi.c ****   {
2737:Drivers/STM32F1xx_HAL_Driver/Src/stm32f1xx_hal_spi.c ****     /* Disable ERR interrupt */
2738:Drivers/STM32F1xx_HAL_Driver/Src/stm32f1xx_hal_spi.c ****     __HAL_SPI_DISABLE_IT(hspi, SPI_IT_ERR);
 5153              		.loc 1 2738 5
 5154 0022 FB68     		ldr	r3, [r7, #12]
 5155 0024 1B68     		ldr	r3, [r3]
 5156 0026 5A68     		ldr	r2, [r3, #4]
 5157 0028 FB68     		ldr	r3, [r7, #12]
 5158 002a 1B68     		ldr	r3, [r3]
 5159 002c 22F02002 		bic	r2, r2, #32
 5160 0030 5A60     		str	r2, [r3, #4]
2739:Drivers/STM32F1xx_HAL_Driver/Src/stm32f1xx_hal_spi.c **** 
2740:Drivers/STM32F1xx_HAL_Driver/Src/stm32f1xx_hal_spi.c **** #if (USE_SPI_CRC != 0U)
ARM GAS  C:\Users\Alex\AppData\Local\Temp\ccfYuLQH.s 			page 139


2741:Drivers/STM32F1xx_HAL_Driver/Src/stm32f1xx_hal_spi.c ****     /* CRC handling */
2742:Drivers/STM32F1xx_HAL_Driver/Src/stm32f1xx_hal_spi.c ****     if (hspi->Init.CRCCalculation == SPI_CRCCALCULATION_ENABLE)
2743:Drivers/STM32F1xx_HAL_Driver/Src/stm32f1xx_hal_spi.c ****     {
2744:Drivers/STM32F1xx_HAL_Driver/Src/stm32f1xx_hal_spi.c ****       /* Wait until RXNE flag */
2745:Drivers/STM32F1xx_HAL_Driver/Src/stm32f1xx_hal_spi.c ****       if (SPI_WaitFlagStateUntilTimeout(hspi, SPI_FLAG_RXNE, SET, SPI_DEFAULT_TIMEOUT, tickstart) !
2746:Drivers/STM32F1xx_HAL_Driver/Src/stm32f1xx_hal_spi.c ****       {
2747:Drivers/STM32F1xx_HAL_Driver/Src/stm32f1xx_hal_spi.c ****         /* Error on the CRC reception */
2748:Drivers/STM32F1xx_HAL_Driver/Src/stm32f1xx_hal_spi.c ****         SET_BIT(hspi->ErrorCode, HAL_SPI_ERROR_CRC);
2749:Drivers/STM32F1xx_HAL_Driver/Src/stm32f1xx_hal_spi.c ****       }
2750:Drivers/STM32F1xx_HAL_Driver/Src/stm32f1xx_hal_spi.c ****       /* Read CRC */
2751:Drivers/STM32F1xx_HAL_Driver/Src/stm32f1xx_hal_spi.c ****       READ_REG(hspi->Instance->DR);
2752:Drivers/STM32F1xx_HAL_Driver/Src/stm32f1xx_hal_spi.c ****     }
2753:Drivers/STM32F1xx_HAL_Driver/Src/stm32f1xx_hal_spi.c **** #endif /* USE_SPI_CRC */
2754:Drivers/STM32F1xx_HAL_Driver/Src/stm32f1xx_hal_spi.c **** 
2755:Drivers/STM32F1xx_HAL_Driver/Src/stm32f1xx_hal_spi.c ****     /* Disable Rx/Tx DMA Request (done by default to handle the case master rx direction 2 lines) *
2756:Drivers/STM32F1xx_HAL_Driver/Src/stm32f1xx_hal_spi.c ****     CLEAR_BIT(hspi->Instance->CR2, SPI_CR2_TXDMAEN | SPI_CR2_RXDMAEN);
 5161              		.loc 1 2756 5
 5162 0032 FB68     		ldr	r3, [r7, #12]
 5163 0034 1B68     		ldr	r3, [r3]
 5164 0036 5A68     		ldr	r2, [r3, #4]
 5165 0038 FB68     		ldr	r3, [r7, #12]
 5166 003a 1B68     		ldr	r3, [r3]
 5167 003c 22F00302 		bic	r2, r2, #3
 5168 0040 5A60     		str	r2, [r3, #4]
2757:Drivers/STM32F1xx_HAL_Driver/Src/stm32f1xx_hal_spi.c **** 
2758:Drivers/STM32F1xx_HAL_Driver/Src/stm32f1xx_hal_spi.c ****     /* Check the end of the transaction */
2759:Drivers/STM32F1xx_HAL_Driver/Src/stm32f1xx_hal_spi.c ****     if (SPI_EndRxTransaction(hspi, SPI_DEFAULT_TIMEOUT, tickstart) != HAL_OK)
 5169              		.loc 1 2759 9
 5170 0042 BA68     		ldr	r2, [r7, #8]
 5171 0044 6421     		movs	r1, #100
 5172 0046 F868     		ldr	r0, [r7, #12]
 5173 0048 FFF7FEFF 		bl	SPI_EndRxTransaction
 5174 004c 0346     		mov	r3, r0
 5175              		.loc 1 2759 8
 5176 004e 002B     		cmp	r3, #0
 5177 0050 02D0     		beq	.L261
2760:Drivers/STM32F1xx_HAL_Driver/Src/stm32f1xx_hal_spi.c ****     {
2761:Drivers/STM32F1xx_HAL_Driver/Src/stm32f1xx_hal_spi.c ****       hspi->ErrorCode = HAL_SPI_ERROR_FLAG;
 5178              		.loc 1 2761 23
 5179 0052 FB68     		ldr	r3, [r7, #12]
 5180 0054 2022     		movs	r2, #32
 5181 0056 5A65     		str	r2, [r3, #84]
 5182              	.L261:
2762:Drivers/STM32F1xx_HAL_Driver/Src/stm32f1xx_hal_spi.c ****     }
2763:Drivers/STM32F1xx_HAL_Driver/Src/stm32f1xx_hal_spi.c **** 
2764:Drivers/STM32F1xx_HAL_Driver/Src/stm32f1xx_hal_spi.c ****     hspi->RxXferCount = 0U;
 5183              		.loc 1 2764 23
 5184 0058 FB68     		ldr	r3, [r7, #12]
 5185 005a 0022     		movs	r2, #0
 5186 005c DA87     		strh	r2, [r3, #62]	@ movhi
2765:Drivers/STM32F1xx_HAL_Driver/Src/stm32f1xx_hal_spi.c ****     hspi->State = HAL_SPI_STATE_READY;
 5187              		.loc 1 2765 17
 5188 005e FB68     		ldr	r3, [r7, #12]
 5189 0060 0122     		movs	r2, #1
 5190 0062 83F85120 		strb	r2, [r3, #81]
2766:Drivers/STM32F1xx_HAL_Driver/Src/stm32f1xx_hal_spi.c **** 
2767:Drivers/STM32F1xx_HAL_Driver/Src/stm32f1xx_hal_spi.c **** #if (USE_SPI_CRC != 0U)
ARM GAS  C:\Users\Alex\AppData\Local\Temp\ccfYuLQH.s 			page 140


2768:Drivers/STM32F1xx_HAL_Driver/Src/stm32f1xx_hal_spi.c ****     /* Check if CRC error occurred */
2769:Drivers/STM32F1xx_HAL_Driver/Src/stm32f1xx_hal_spi.c ****     if (__HAL_SPI_GET_FLAG(hspi, SPI_FLAG_CRCERR) != RESET)
2770:Drivers/STM32F1xx_HAL_Driver/Src/stm32f1xx_hal_spi.c ****     {
2771:Drivers/STM32F1xx_HAL_Driver/Src/stm32f1xx_hal_spi.c ****       /* Check if CRC error is valid or not (workaround to be applied or not) */
2772:Drivers/STM32F1xx_HAL_Driver/Src/stm32f1xx_hal_spi.c ****       if (SPI_ISCRCErrorValid(hspi) == SPI_VALID_CRC_ERROR)
2773:Drivers/STM32F1xx_HAL_Driver/Src/stm32f1xx_hal_spi.c ****       {
2774:Drivers/STM32F1xx_HAL_Driver/Src/stm32f1xx_hal_spi.c ****         SET_BIT(hspi->ErrorCode, HAL_SPI_ERROR_CRC);
2775:Drivers/STM32F1xx_HAL_Driver/Src/stm32f1xx_hal_spi.c **** 
2776:Drivers/STM32F1xx_HAL_Driver/Src/stm32f1xx_hal_spi.c ****         /* Reset CRC Calculation */
2777:Drivers/STM32F1xx_HAL_Driver/Src/stm32f1xx_hal_spi.c ****         SPI_RESET_CRC(hspi);
2778:Drivers/STM32F1xx_HAL_Driver/Src/stm32f1xx_hal_spi.c ****       }
2779:Drivers/STM32F1xx_HAL_Driver/Src/stm32f1xx_hal_spi.c ****       else
2780:Drivers/STM32F1xx_HAL_Driver/Src/stm32f1xx_hal_spi.c ****       {
2781:Drivers/STM32F1xx_HAL_Driver/Src/stm32f1xx_hal_spi.c ****         __HAL_SPI_CLEAR_CRCERRFLAG(hspi);
2782:Drivers/STM32F1xx_HAL_Driver/Src/stm32f1xx_hal_spi.c ****       }
2783:Drivers/STM32F1xx_HAL_Driver/Src/stm32f1xx_hal_spi.c ****     }
2784:Drivers/STM32F1xx_HAL_Driver/Src/stm32f1xx_hal_spi.c **** #endif /* USE_SPI_CRC */
2785:Drivers/STM32F1xx_HAL_Driver/Src/stm32f1xx_hal_spi.c **** 
2786:Drivers/STM32F1xx_HAL_Driver/Src/stm32f1xx_hal_spi.c ****     if (hspi->ErrorCode != HAL_SPI_ERROR_NONE)
 5191              		.loc 1 2786 13
 5192 0066 FB68     		ldr	r3, [r7, #12]
 5193 0068 5B6D     		ldr	r3, [r3, #84]
 5194              		.loc 1 2786 8
 5195 006a 002B     		cmp	r3, #0
 5196 006c 03D0     		beq	.L260
2787:Drivers/STM32F1xx_HAL_Driver/Src/stm32f1xx_hal_spi.c ****     {
2788:Drivers/STM32F1xx_HAL_Driver/Src/stm32f1xx_hal_spi.c ****       /* Call user error callback */
2789:Drivers/STM32F1xx_HAL_Driver/Src/stm32f1xx_hal_spi.c **** #if (USE_HAL_SPI_REGISTER_CALLBACKS == 1U)
2790:Drivers/STM32F1xx_HAL_Driver/Src/stm32f1xx_hal_spi.c ****       hspi->ErrorCallback(hspi);
2791:Drivers/STM32F1xx_HAL_Driver/Src/stm32f1xx_hal_spi.c **** #else
2792:Drivers/STM32F1xx_HAL_Driver/Src/stm32f1xx_hal_spi.c ****       HAL_SPI_ErrorCallback(hspi);
 5197              		.loc 1 2792 7
 5198 006e F868     		ldr	r0, [r7, #12]
 5199 0070 FFF7FEFF 		bl	HAL_SPI_ErrorCallback
2793:Drivers/STM32F1xx_HAL_Driver/Src/stm32f1xx_hal_spi.c **** #endif /* USE_HAL_SPI_REGISTER_CALLBACKS */
2794:Drivers/STM32F1xx_HAL_Driver/Src/stm32f1xx_hal_spi.c ****       return;
 5200              		.loc 1 2794 7
 5201 0074 02E0     		b	.L259
 5202              	.L260:
2795:Drivers/STM32F1xx_HAL_Driver/Src/stm32f1xx_hal_spi.c ****     }
2796:Drivers/STM32F1xx_HAL_Driver/Src/stm32f1xx_hal_spi.c ****   }
2797:Drivers/STM32F1xx_HAL_Driver/Src/stm32f1xx_hal_spi.c ****   /* Call user Rx complete callback */
2798:Drivers/STM32F1xx_HAL_Driver/Src/stm32f1xx_hal_spi.c **** #if (USE_HAL_SPI_REGISTER_CALLBACKS == 1U)
2799:Drivers/STM32F1xx_HAL_Driver/Src/stm32f1xx_hal_spi.c ****   hspi->RxCpltCallback(hspi);
2800:Drivers/STM32F1xx_HAL_Driver/Src/stm32f1xx_hal_spi.c **** #else
2801:Drivers/STM32F1xx_HAL_Driver/Src/stm32f1xx_hal_spi.c ****   HAL_SPI_RxCpltCallback(hspi);
 5203              		.loc 1 2801 3
 5204 0076 F868     		ldr	r0, [r7, #12]
 5205 0078 FFF7FEFF 		bl	HAL_SPI_RxCpltCallback
 5206              	.L259:
2802:Drivers/STM32F1xx_HAL_Driver/Src/stm32f1xx_hal_spi.c **** #endif /* USE_HAL_SPI_REGISTER_CALLBACKS */
2803:Drivers/STM32F1xx_HAL_Driver/Src/stm32f1xx_hal_spi.c **** }
 5207              		.loc 1 2803 1
 5208 007c 1037     		adds	r7, r7, #16
 5209              	.LCFI169:
 5210              		.cfi_def_cfa_offset 8
 5211 007e BD46     		mov	sp, r7
ARM GAS  C:\Users\Alex\AppData\Local\Temp\ccfYuLQH.s 			page 141


 5212              	.LCFI170:
 5213              		.cfi_def_cfa_register 13
 5214              		@ sp needed
 5215 0080 80BD     		pop	{r7, pc}
 5216              		.cfi_endproc
 5217              	.LFE95:
 5219              		.section	.text.SPI_DMATransmitReceiveCplt,"ax",%progbits
 5220              		.align	1
 5221              		.syntax unified
 5222              		.thumb
 5223              		.thumb_func
 5224              		.fpu softvfp
 5226              	SPI_DMATransmitReceiveCplt:
 5227              	.LFB96:
2804:Drivers/STM32F1xx_HAL_Driver/Src/stm32f1xx_hal_spi.c **** 
2805:Drivers/STM32F1xx_HAL_Driver/Src/stm32f1xx_hal_spi.c **** /**
2806:Drivers/STM32F1xx_HAL_Driver/Src/stm32f1xx_hal_spi.c ****   * @brief  DMA SPI transmit receive process complete callback.
2807:Drivers/STM32F1xx_HAL_Driver/Src/stm32f1xx_hal_spi.c ****   * @param  hdma pointer to a DMA_HandleTypeDef structure that contains
2808:Drivers/STM32F1xx_HAL_Driver/Src/stm32f1xx_hal_spi.c ****   *               the configuration information for the specified DMA module.
2809:Drivers/STM32F1xx_HAL_Driver/Src/stm32f1xx_hal_spi.c ****   * @retval None
2810:Drivers/STM32F1xx_HAL_Driver/Src/stm32f1xx_hal_spi.c ****   */
2811:Drivers/STM32F1xx_HAL_Driver/Src/stm32f1xx_hal_spi.c **** static void SPI_DMATransmitReceiveCplt(DMA_HandleTypeDef *hdma)
2812:Drivers/STM32F1xx_HAL_Driver/Src/stm32f1xx_hal_spi.c **** {
 5228              		.loc 1 2812 1
 5229              		.cfi_startproc
 5230              		@ args = 0, pretend = 0, frame = 16
 5231              		@ frame_needed = 1, uses_anonymous_args = 0
 5232 0000 80B5     		push	{r7, lr}
 5233              	.LCFI171:
 5234              		.cfi_def_cfa_offset 8
 5235              		.cfi_offset 7, -8
 5236              		.cfi_offset 14, -4
 5237 0002 84B0     		sub	sp, sp, #16
 5238              	.LCFI172:
 5239              		.cfi_def_cfa_offset 24
 5240 0004 00AF     		add	r7, sp, #0
 5241              	.LCFI173:
 5242              		.cfi_def_cfa_register 7
 5243 0006 7860     		str	r0, [r7, #4]
2813:Drivers/STM32F1xx_HAL_Driver/Src/stm32f1xx_hal_spi.c ****   SPI_HandleTypeDef *hspi = (SPI_HandleTypeDef *)(((DMA_HandleTypeDef *)hdma)->Parent); /* Derogati
 5244              		.loc 1 2813 22
 5245 0008 7B68     		ldr	r3, [r7, #4]
 5246 000a 5B6A     		ldr	r3, [r3, #36]
 5247 000c FB60     		str	r3, [r7, #12]
2814:Drivers/STM32F1xx_HAL_Driver/Src/stm32f1xx_hal_spi.c ****   uint32_t tickstart;
2815:Drivers/STM32F1xx_HAL_Driver/Src/stm32f1xx_hal_spi.c **** 
2816:Drivers/STM32F1xx_HAL_Driver/Src/stm32f1xx_hal_spi.c ****   /* Init tickstart for timeout management*/
2817:Drivers/STM32F1xx_HAL_Driver/Src/stm32f1xx_hal_spi.c ****   tickstart = HAL_GetTick();
 5248              		.loc 1 2817 15
 5249 000e FFF7FEFF 		bl	HAL_GetTick
 5250 0012 B860     		str	r0, [r7, #8]
2818:Drivers/STM32F1xx_HAL_Driver/Src/stm32f1xx_hal_spi.c **** 
2819:Drivers/STM32F1xx_HAL_Driver/Src/stm32f1xx_hal_spi.c ****   /* DMA Normal Mode */
2820:Drivers/STM32F1xx_HAL_Driver/Src/stm32f1xx_hal_spi.c ****   if ((hdma->Instance->CCR & DMA_CCR_CIRC) != DMA_CCR_CIRC)
 5251              		.loc 1 2820 12
 5252 0014 7B68     		ldr	r3, [r7, #4]
 5253 0016 1B68     		ldr	r3, [r3]
ARM GAS  C:\Users\Alex\AppData\Local\Temp\ccfYuLQH.s 			page 142


 5254              		.loc 1 2820 22
 5255 0018 1B68     		ldr	r3, [r3]
 5256              		.loc 1 2820 28
 5257 001a 03F02003 		and	r3, r3, #32
 5258              		.loc 1 2820 6
 5259 001e 202B     		cmp	r3, #32
 5260 0020 2FD0     		beq	.L264
2821:Drivers/STM32F1xx_HAL_Driver/Src/stm32f1xx_hal_spi.c ****   {
2822:Drivers/STM32F1xx_HAL_Driver/Src/stm32f1xx_hal_spi.c ****     /* Disable ERR interrupt */
2823:Drivers/STM32F1xx_HAL_Driver/Src/stm32f1xx_hal_spi.c ****     __HAL_SPI_DISABLE_IT(hspi, SPI_IT_ERR);
 5261              		.loc 1 2823 5
 5262 0022 FB68     		ldr	r3, [r7, #12]
 5263 0024 1B68     		ldr	r3, [r3]
 5264 0026 5A68     		ldr	r2, [r3, #4]
 5265 0028 FB68     		ldr	r3, [r7, #12]
 5266 002a 1B68     		ldr	r3, [r3]
 5267 002c 22F02002 		bic	r2, r2, #32
 5268 0030 5A60     		str	r2, [r3, #4]
2824:Drivers/STM32F1xx_HAL_Driver/Src/stm32f1xx_hal_spi.c **** 
2825:Drivers/STM32F1xx_HAL_Driver/Src/stm32f1xx_hal_spi.c **** #if (USE_SPI_CRC != 0U)
2826:Drivers/STM32F1xx_HAL_Driver/Src/stm32f1xx_hal_spi.c ****     /* CRC handling */
2827:Drivers/STM32F1xx_HAL_Driver/Src/stm32f1xx_hal_spi.c ****     if (hspi->Init.CRCCalculation == SPI_CRCCALCULATION_ENABLE)
2828:Drivers/STM32F1xx_HAL_Driver/Src/stm32f1xx_hal_spi.c ****     {
2829:Drivers/STM32F1xx_HAL_Driver/Src/stm32f1xx_hal_spi.c ****       /* Wait the CRC data */
2830:Drivers/STM32F1xx_HAL_Driver/Src/stm32f1xx_hal_spi.c ****       if (SPI_WaitFlagStateUntilTimeout(hspi, SPI_FLAG_RXNE, SET, SPI_DEFAULT_TIMEOUT, tickstart) !
2831:Drivers/STM32F1xx_HAL_Driver/Src/stm32f1xx_hal_spi.c ****       {
2832:Drivers/STM32F1xx_HAL_Driver/Src/stm32f1xx_hal_spi.c ****         SET_BIT(hspi->ErrorCode, HAL_SPI_ERROR_CRC);
2833:Drivers/STM32F1xx_HAL_Driver/Src/stm32f1xx_hal_spi.c ****       }
2834:Drivers/STM32F1xx_HAL_Driver/Src/stm32f1xx_hal_spi.c ****       /* Read CRC to Flush DR and RXNE flag */
2835:Drivers/STM32F1xx_HAL_Driver/Src/stm32f1xx_hal_spi.c ****       READ_REG(hspi->Instance->DR);
2836:Drivers/STM32F1xx_HAL_Driver/Src/stm32f1xx_hal_spi.c ****     }
2837:Drivers/STM32F1xx_HAL_Driver/Src/stm32f1xx_hal_spi.c **** #endif /* USE_SPI_CRC */
2838:Drivers/STM32F1xx_HAL_Driver/Src/stm32f1xx_hal_spi.c **** 
2839:Drivers/STM32F1xx_HAL_Driver/Src/stm32f1xx_hal_spi.c ****     /* Check the end of the transaction */
2840:Drivers/STM32F1xx_HAL_Driver/Src/stm32f1xx_hal_spi.c ****     if (SPI_EndRxTxTransaction(hspi, SPI_DEFAULT_TIMEOUT, tickstart) != HAL_OK)
 5269              		.loc 1 2840 9
 5270 0032 BA68     		ldr	r2, [r7, #8]
 5271 0034 6421     		movs	r1, #100
 5272 0036 F868     		ldr	r0, [r7, #12]
 5273 0038 FFF7FEFF 		bl	SPI_EndRxTxTransaction
 5274 003c 0346     		mov	r3, r0
 5275              		.loc 1 2840 8
 5276 003e 002B     		cmp	r3, #0
 5277 0040 05D0     		beq	.L265
2841:Drivers/STM32F1xx_HAL_Driver/Src/stm32f1xx_hal_spi.c ****     {
2842:Drivers/STM32F1xx_HAL_Driver/Src/stm32f1xx_hal_spi.c ****       SET_BIT(hspi->ErrorCode, HAL_SPI_ERROR_FLAG);
 5278              		.loc 1 2842 7
 5279 0042 FB68     		ldr	r3, [r7, #12]
 5280 0044 5B6D     		ldr	r3, [r3, #84]
 5281 0046 43F02002 		orr	r2, r3, #32
 5282 004a FB68     		ldr	r3, [r7, #12]
 5283 004c 5A65     		str	r2, [r3, #84]
 5284              	.L265:
2843:Drivers/STM32F1xx_HAL_Driver/Src/stm32f1xx_hal_spi.c ****     }
2844:Drivers/STM32F1xx_HAL_Driver/Src/stm32f1xx_hal_spi.c **** 
2845:Drivers/STM32F1xx_HAL_Driver/Src/stm32f1xx_hal_spi.c ****     /* Disable Rx/Tx DMA Request */
2846:Drivers/STM32F1xx_HAL_Driver/Src/stm32f1xx_hal_spi.c ****     CLEAR_BIT(hspi->Instance->CR2, SPI_CR2_TXDMAEN | SPI_CR2_RXDMAEN);
ARM GAS  C:\Users\Alex\AppData\Local\Temp\ccfYuLQH.s 			page 143


 5285              		.loc 1 2846 5
 5286 004e FB68     		ldr	r3, [r7, #12]
 5287 0050 1B68     		ldr	r3, [r3]
 5288 0052 5A68     		ldr	r2, [r3, #4]
 5289 0054 FB68     		ldr	r3, [r7, #12]
 5290 0056 1B68     		ldr	r3, [r3]
 5291 0058 22F00302 		bic	r2, r2, #3
 5292 005c 5A60     		str	r2, [r3, #4]
2847:Drivers/STM32F1xx_HAL_Driver/Src/stm32f1xx_hal_spi.c **** 
2848:Drivers/STM32F1xx_HAL_Driver/Src/stm32f1xx_hal_spi.c ****     hspi->TxXferCount = 0U;
 5293              		.loc 1 2848 23
 5294 005e FB68     		ldr	r3, [r7, #12]
 5295 0060 0022     		movs	r2, #0
 5296 0062 DA86     		strh	r2, [r3, #54]	@ movhi
2849:Drivers/STM32F1xx_HAL_Driver/Src/stm32f1xx_hal_spi.c ****     hspi->RxXferCount = 0U;
 5297              		.loc 1 2849 23
 5298 0064 FB68     		ldr	r3, [r7, #12]
 5299 0066 0022     		movs	r2, #0
 5300 0068 DA87     		strh	r2, [r3, #62]	@ movhi
2850:Drivers/STM32F1xx_HAL_Driver/Src/stm32f1xx_hal_spi.c ****     hspi->State = HAL_SPI_STATE_READY;
 5301              		.loc 1 2850 17
 5302 006a FB68     		ldr	r3, [r7, #12]
 5303 006c 0122     		movs	r2, #1
 5304 006e 83F85120 		strb	r2, [r3, #81]
2851:Drivers/STM32F1xx_HAL_Driver/Src/stm32f1xx_hal_spi.c **** 
2852:Drivers/STM32F1xx_HAL_Driver/Src/stm32f1xx_hal_spi.c **** #if (USE_SPI_CRC != 0U)
2853:Drivers/STM32F1xx_HAL_Driver/Src/stm32f1xx_hal_spi.c ****     /* Check if CRC error occurred */
2854:Drivers/STM32F1xx_HAL_Driver/Src/stm32f1xx_hal_spi.c ****     if (__HAL_SPI_GET_FLAG(hspi, SPI_FLAG_CRCERR) != RESET)
2855:Drivers/STM32F1xx_HAL_Driver/Src/stm32f1xx_hal_spi.c ****     {
2856:Drivers/STM32F1xx_HAL_Driver/Src/stm32f1xx_hal_spi.c ****       /* Check if CRC error is valid or not (workaround to be applied or not) */
2857:Drivers/STM32F1xx_HAL_Driver/Src/stm32f1xx_hal_spi.c ****       if (SPI_ISCRCErrorValid(hspi) == SPI_VALID_CRC_ERROR)
2858:Drivers/STM32F1xx_HAL_Driver/Src/stm32f1xx_hal_spi.c ****       {
2859:Drivers/STM32F1xx_HAL_Driver/Src/stm32f1xx_hal_spi.c ****         SET_BIT(hspi->ErrorCode, HAL_SPI_ERROR_CRC);
2860:Drivers/STM32F1xx_HAL_Driver/Src/stm32f1xx_hal_spi.c **** 
2861:Drivers/STM32F1xx_HAL_Driver/Src/stm32f1xx_hal_spi.c ****         /* Reset CRC Calculation */
2862:Drivers/STM32F1xx_HAL_Driver/Src/stm32f1xx_hal_spi.c ****         SPI_RESET_CRC(hspi);
2863:Drivers/STM32F1xx_HAL_Driver/Src/stm32f1xx_hal_spi.c ****       }
2864:Drivers/STM32F1xx_HAL_Driver/Src/stm32f1xx_hal_spi.c ****       else
2865:Drivers/STM32F1xx_HAL_Driver/Src/stm32f1xx_hal_spi.c ****       {
2866:Drivers/STM32F1xx_HAL_Driver/Src/stm32f1xx_hal_spi.c ****         __HAL_SPI_CLEAR_CRCERRFLAG(hspi);
2867:Drivers/STM32F1xx_HAL_Driver/Src/stm32f1xx_hal_spi.c ****       }
2868:Drivers/STM32F1xx_HAL_Driver/Src/stm32f1xx_hal_spi.c ****     }
2869:Drivers/STM32F1xx_HAL_Driver/Src/stm32f1xx_hal_spi.c **** #endif /* USE_SPI_CRC */
2870:Drivers/STM32F1xx_HAL_Driver/Src/stm32f1xx_hal_spi.c **** 
2871:Drivers/STM32F1xx_HAL_Driver/Src/stm32f1xx_hal_spi.c ****     if (hspi->ErrorCode != HAL_SPI_ERROR_NONE)
 5305              		.loc 1 2871 13
 5306 0072 FB68     		ldr	r3, [r7, #12]
 5307 0074 5B6D     		ldr	r3, [r3, #84]
 5308              		.loc 1 2871 8
 5309 0076 002B     		cmp	r3, #0
 5310 0078 03D0     		beq	.L264
2872:Drivers/STM32F1xx_HAL_Driver/Src/stm32f1xx_hal_spi.c ****     {
2873:Drivers/STM32F1xx_HAL_Driver/Src/stm32f1xx_hal_spi.c ****       /* Call user error callback */
2874:Drivers/STM32F1xx_HAL_Driver/Src/stm32f1xx_hal_spi.c **** #if (USE_HAL_SPI_REGISTER_CALLBACKS == 1U)
2875:Drivers/STM32F1xx_HAL_Driver/Src/stm32f1xx_hal_spi.c ****       hspi->ErrorCallback(hspi);
2876:Drivers/STM32F1xx_HAL_Driver/Src/stm32f1xx_hal_spi.c **** #else
2877:Drivers/STM32F1xx_HAL_Driver/Src/stm32f1xx_hal_spi.c ****       HAL_SPI_ErrorCallback(hspi);
ARM GAS  C:\Users\Alex\AppData\Local\Temp\ccfYuLQH.s 			page 144


 5311              		.loc 1 2877 7
 5312 007a F868     		ldr	r0, [r7, #12]
 5313 007c FFF7FEFF 		bl	HAL_SPI_ErrorCallback
2878:Drivers/STM32F1xx_HAL_Driver/Src/stm32f1xx_hal_spi.c **** #endif /* USE_HAL_SPI_REGISTER_CALLBACKS */
2879:Drivers/STM32F1xx_HAL_Driver/Src/stm32f1xx_hal_spi.c ****       return;
 5314              		.loc 1 2879 7
 5315 0080 02E0     		b	.L263
 5316              	.L264:
2880:Drivers/STM32F1xx_HAL_Driver/Src/stm32f1xx_hal_spi.c ****     }
2881:Drivers/STM32F1xx_HAL_Driver/Src/stm32f1xx_hal_spi.c ****   }
2882:Drivers/STM32F1xx_HAL_Driver/Src/stm32f1xx_hal_spi.c ****   /* Call user TxRx complete callback */
2883:Drivers/STM32F1xx_HAL_Driver/Src/stm32f1xx_hal_spi.c **** #if (USE_HAL_SPI_REGISTER_CALLBACKS == 1U)
2884:Drivers/STM32F1xx_HAL_Driver/Src/stm32f1xx_hal_spi.c ****   hspi->TxRxCpltCallback(hspi);
2885:Drivers/STM32F1xx_HAL_Driver/Src/stm32f1xx_hal_spi.c **** #else
2886:Drivers/STM32F1xx_HAL_Driver/Src/stm32f1xx_hal_spi.c ****   HAL_SPI_TxRxCpltCallback(hspi);
 5317              		.loc 1 2886 3
 5318 0082 F868     		ldr	r0, [r7, #12]
 5319 0084 FFF7FEFF 		bl	HAL_SPI_TxRxCpltCallback
 5320              	.L263:
2887:Drivers/STM32F1xx_HAL_Driver/Src/stm32f1xx_hal_spi.c **** #endif /* USE_HAL_SPI_REGISTER_CALLBACKS */
2888:Drivers/STM32F1xx_HAL_Driver/Src/stm32f1xx_hal_spi.c **** }
 5321              		.loc 1 2888 1
 5322 0088 1037     		adds	r7, r7, #16
 5323              	.LCFI174:
 5324              		.cfi_def_cfa_offset 8
 5325 008a BD46     		mov	sp, r7
 5326              	.LCFI175:
 5327              		.cfi_def_cfa_register 13
 5328              		@ sp needed
 5329 008c 80BD     		pop	{r7, pc}
 5330              		.cfi_endproc
 5331              	.LFE96:
 5333              		.section	.text.SPI_DMAHalfTransmitCplt,"ax",%progbits
 5334              		.align	1
 5335              		.syntax unified
 5336              		.thumb
 5337              		.thumb_func
 5338              		.fpu softvfp
 5340              	SPI_DMAHalfTransmitCplt:
 5341              	.LFB97:
2889:Drivers/STM32F1xx_HAL_Driver/Src/stm32f1xx_hal_spi.c **** 
2890:Drivers/STM32F1xx_HAL_Driver/Src/stm32f1xx_hal_spi.c **** /**
2891:Drivers/STM32F1xx_HAL_Driver/Src/stm32f1xx_hal_spi.c ****   * @brief  DMA SPI half transmit process complete callback.
2892:Drivers/STM32F1xx_HAL_Driver/Src/stm32f1xx_hal_spi.c ****   * @param  hdma pointer to a DMA_HandleTypeDef structure that contains
2893:Drivers/STM32F1xx_HAL_Driver/Src/stm32f1xx_hal_spi.c ****   *               the configuration information for the specified DMA module.
2894:Drivers/STM32F1xx_HAL_Driver/Src/stm32f1xx_hal_spi.c ****   * @retval None
2895:Drivers/STM32F1xx_HAL_Driver/Src/stm32f1xx_hal_spi.c ****   */
2896:Drivers/STM32F1xx_HAL_Driver/Src/stm32f1xx_hal_spi.c **** static void SPI_DMAHalfTransmitCplt(DMA_HandleTypeDef *hdma)
2897:Drivers/STM32F1xx_HAL_Driver/Src/stm32f1xx_hal_spi.c **** {
 5342              		.loc 1 2897 1
 5343              		.cfi_startproc
 5344              		@ args = 0, pretend = 0, frame = 16
 5345              		@ frame_needed = 1, uses_anonymous_args = 0
 5346 0000 80B5     		push	{r7, lr}
 5347              	.LCFI176:
 5348              		.cfi_def_cfa_offset 8
 5349              		.cfi_offset 7, -8
ARM GAS  C:\Users\Alex\AppData\Local\Temp\ccfYuLQH.s 			page 145


 5350              		.cfi_offset 14, -4
 5351 0002 84B0     		sub	sp, sp, #16
 5352              	.LCFI177:
 5353              		.cfi_def_cfa_offset 24
 5354 0004 00AF     		add	r7, sp, #0
 5355              	.LCFI178:
 5356              		.cfi_def_cfa_register 7
 5357 0006 7860     		str	r0, [r7, #4]
2898:Drivers/STM32F1xx_HAL_Driver/Src/stm32f1xx_hal_spi.c ****   SPI_HandleTypeDef *hspi = (SPI_HandleTypeDef *)(((DMA_HandleTypeDef *)hdma)->Parent); /* Derogati
 5358              		.loc 1 2898 22
 5359 0008 7B68     		ldr	r3, [r7, #4]
 5360 000a 5B6A     		ldr	r3, [r3, #36]
 5361 000c FB60     		str	r3, [r7, #12]
2899:Drivers/STM32F1xx_HAL_Driver/Src/stm32f1xx_hal_spi.c **** 
2900:Drivers/STM32F1xx_HAL_Driver/Src/stm32f1xx_hal_spi.c ****   /* Call user Tx half complete callback */
2901:Drivers/STM32F1xx_HAL_Driver/Src/stm32f1xx_hal_spi.c **** #if (USE_HAL_SPI_REGISTER_CALLBACKS == 1U)
2902:Drivers/STM32F1xx_HAL_Driver/Src/stm32f1xx_hal_spi.c ****   hspi->TxHalfCpltCallback(hspi);
2903:Drivers/STM32F1xx_HAL_Driver/Src/stm32f1xx_hal_spi.c **** #else
2904:Drivers/STM32F1xx_HAL_Driver/Src/stm32f1xx_hal_spi.c ****   HAL_SPI_TxHalfCpltCallback(hspi);
 5362              		.loc 1 2904 3
 5363 000e F868     		ldr	r0, [r7, #12]
 5364 0010 FFF7FEFF 		bl	HAL_SPI_TxHalfCpltCallback
2905:Drivers/STM32F1xx_HAL_Driver/Src/stm32f1xx_hal_spi.c **** #endif /* USE_HAL_SPI_REGISTER_CALLBACKS */
2906:Drivers/STM32F1xx_HAL_Driver/Src/stm32f1xx_hal_spi.c **** }
 5365              		.loc 1 2906 1
 5366 0014 00BF     		nop
 5367 0016 1037     		adds	r7, r7, #16
 5368              	.LCFI179:
 5369              		.cfi_def_cfa_offset 8
 5370 0018 BD46     		mov	sp, r7
 5371              	.LCFI180:
 5372              		.cfi_def_cfa_register 13
 5373              		@ sp needed
 5374 001a 80BD     		pop	{r7, pc}
 5375              		.cfi_endproc
 5376              	.LFE97:
 5378              		.section	.text.SPI_DMAHalfReceiveCplt,"ax",%progbits
 5379              		.align	1
 5380              		.syntax unified
 5381              		.thumb
 5382              		.thumb_func
 5383              		.fpu softvfp
 5385              	SPI_DMAHalfReceiveCplt:
 5386              	.LFB98:
2907:Drivers/STM32F1xx_HAL_Driver/Src/stm32f1xx_hal_spi.c **** 
2908:Drivers/STM32F1xx_HAL_Driver/Src/stm32f1xx_hal_spi.c **** /**
2909:Drivers/STM32F1xx_HAL_Driver/Src/stm32f1xx_hal_spi.c ****   * @brief  DMA SPI half receive process complete callback
2910:Drivers/STM32F1xx_HAL_Driver/Src/stm32f1xx_hal_spi.c ****   * @param  hdma pointer to a DMA_HandleTypeDef structure that contains
2911:Drivers/STM32F1xx_HAL_Driver/Src/stm32f1xx_hal_spi.c ****   *               the configuration information for the specified DMA module.
2912:Drivers/STM32F1xx_HAL_Driver/Src/stm32f1xx_hal_spi.c ****   * @retval None
2913:Drivers/STM32F1xx_HAL_Driver/Src/stm32f1xx_hal_spi.c ****   */
2914:Drivers/STM32F1xx_HAL_Driver/Src/stm32f1xx_hal_spi.c **** static void SPI_DMAHalfReceiveCplt(DMA_HandleTypeDef *hdma)
2915:Drivers/STM32F1xx_HAL_Driver/Src/stm32f1xx_hal_spi.c **** {
 5387              		.loc 1 2915 1
 5388              		.cfi_startproc
 5389              		@ args = 0, pretend = 0, frame = 16
 5390              		@ frame_needed = 1, uses_anonymous_args = 0
ARM GAS  C:\Users\Alex\AppData\Local\Temp\ccfYuLQH.s 			page 146


 5391 0000 80B5     		push	{r7, lr}
 5392              	.LCFI181:
 5393              		.cfi_def_cfa_offset 8
 5394              		.cfi_offset 7, -8
 5395              		.cfi_offset 14, -4
 5396 0002 84B0     		sub	sp, sp, #16
 5397              	.LCFI182:
 5398              		.cfi_def_cfa_offset 24
 5399 0004 00AF     		add	r7, sp, #0
 5400              	.LCFI183:
 5401              		.cfi_def_cfa_register 7
 5402 0006 7860     		str	r0, [r7, #4]
2916:Drivers/STM32F1xx_HAL_Driver/Src/stm32f1xx_hal_spi.c ****   SPI_HandleTypeDef *hspi = (SPI_HandleTypeDef *)(((DMA_HandleTypeDef *)hdma)->Parent); /* Derogati
 5403              		.loc 1 2916 22
 5404 0008 7B68     		ldr	r3, [r7, #4]
 5405 000a 5B6A     		ldr	r3, [r3, #36]
 5406 000c FB60     		str	r3, [r7, #12]
2917:Drivers/STM32F1xx_HAL_Driver/Src/stm32f1xx_hal_spi.c **** 
2918:Drivers/STM32F1xx_HAL_Driver/Src/stm32f1xx_hal_spi.c ****   /* Call user Rx half complete callback */
2919:Drivers/STM32F1xx_HAL_Driver/Src/stm32f1xx_hal_spi.c **** #if (USE_HAL_SPI_REGISTER_CALLBACKS == 1U)
2920:Drivers/STM32F1xx_HAL_Driver/Src/stm32f1xx_hal_spi.c ****   hspi->RxHalfCpltCallback(hspi);
2921:Drivers/STM32F1xx_HAL_Driver/Src/stm32f1xx_hal_spi.c **** #else
2922:Drivers/STM32F1xx_HAL_Driver/Src/stm32f1xx_hal_spi.c ****   HAL_SPI_RxHalfCpltCallback(hspi);
 5407              		.loc 1 2922 3
 5408 000e F868     		ldr	r0, [r7, #12]
 5409 0010 FFF7FEFF 		bl	HAL_SPI_RxHalfCpltCallback
2923:Drivers/STM32F1xx_HAL_Driver/Src/stm32f1xx_hal_spi.c **** #endif /* USE_HAL_SPI_REGISTER_CALLBACKS */
2924:Drivers/STM32F1xx_HAL_Driver/Src/stm32f1xx_hal_spi.c **** }
 5410              		.loc 1 2924 1
 5411 0014 00BF     		nop
 5412 0016 1037     		adds	r7, r7, #16
 5413              	.LCFI184:
 5414              		.cfi_def_cfa_offset 8
 5415 0018 BD46     		mov	sp, r7
 5416              	.LCFI185:
 5417              		.cfi_def_cfa_register 13
 5418              		@ sp needed
 5419 001a 80BD     		pop	{r7, pc}
 5420              		.cfi_endproc
 5421              	.LFE98:
 5423              		.section	.text.SPI_DMAHalfTransmitReceiveCplt,"ax",%progbits
 5424              		.align	1
 5425              		.syntax unified
 5426              		.thumb
 5427              		.thumb_func
 5428              		.fpu softvfp
 5430              	SPI_DMAHalfTransmitReceiveCplt:
 5431              	.LFB99:
2925:Drivers/STM32F1xx_HAL_Driver/Src/stm32f1xx_hal_spi.c **** 
2926:Drivers/STM32F1xx_HAL_Driver/Src/stm32f1xx_hal_spi.c **** /**
2927:Drivers/STM32F1xx_HAL_Driver/Src/stm32f1xx_hal_spi.c ****   * @brief  DMA SPI half transmit receive process complete callback.
2928:Drivers/STM32F1xx_HAL_Driver/Src/stm32f1xx_hal_spi.c ****   * @param  hdma pointer to a DMA_HandleTypeDef structure that contains
2929:Drivers/STM32F1xx_HAL_Driver/Src/stm32f1xx_hal_spi.c ****   *               the configuration information for the specified DMA module.
2930:Drivers/STM32F1xx_HAL_Driver/Src/stm32f1xx_hal_spi.c ****   * @retval None
2931:Drivers/STM32F1xx_HAL_Driver/Src/stm32f1xx_hal_spi.c ****   */
2932:Drivers/STM32F1xx_HAL_Driver/Src/stm32f1xx_hal_spi.c **** static void SPI_DMAHalfTransmitReceiveCplt(DMA_HandleTypeDef *hdma)
2933:Drivers/STM32F1xx_HAL_Driver/Src/stm32f1xx_hal_spi.c **** {
ARM GAS  C:\Users\Alex\AppData\Local\Temp\ccfYuLQH.s 			page 147


 5432              		.loc 1 2933 1
 5433              		.cfi_startproc
 5434              		@ args = 0, pretend = 0, frame = 16
 5435              		@ frame_needed = 1, uses_anonymous_args = 0
 5436 0000 80B5     		push	{r7, lr}
 5437              	.LCFI186:
 5438              		.cfi_def_cfa_offset 8
 5439              		.cfi_offset 7, -8
 5440              		.cfi_offset 14, -4
 5441 0002 84B0     		sub	sp, sp, #16
 5442              	.LCFI187:
 5443              		.cfi_def_cfa_offset 24
 5444 0004 00AF     		add	r7, sp, #0
 5445              	.LCFI188:
 5446              		.cfi_def_cfa_register 7
 5447 0006 7860     		str	r0, [r7, #4]
2934:Drivers/STM32F1xx_HAL_Driver/Src/stm32f1xx_hal_spi.c ****   SPI_HandleTypeDef *hspi = (SPI_HandleTypeDef *)(((DMA_HandleTypeDef *)hdma)->Parent); /* Derogati
 5448              		.loc 1 2934 22
 5449 0008 7B68     		ldr	r3, [r7, #4]
 5450 000a 5B6A     		ldr	r3, [r3, #36]
 5451 000c FB60     		str	r3, [r7, #12]
2935:Drivers/STM32F1xx_HAL_Driver/Src/stm32f1xx_hal_spi.c **** 
2936:Drivers/STM32F1xx_HAL_Driver/Src/stm32f1xx_hal_spi.c ****   /* Call user TxRx half complete callback */
2937:Drivers/STM32F1xx_HAL_Driver/Src/stm32f1xx_hal_spi.c **** #if (USE_HAL_SPI_REGISTER_CALLBACKS == 1U)
2938:Drivers/STM32F1xx_HAL_Driver/Src/stm32f1xx_hal_spi.c ****   hspi->TxRxHalfCpltCallback(hspi);
2939:Drivers/STM32F1xx_HAL_Driver/Src/stm32f1xx_hal_spi.c **** #else
2940:Drivers/STM32F1xx_HAL_Driver/Src/stm32f1xx_hal_spi.c ****   HAL_SPI_TxRxHalfCpltCallback(hspi);
 5452              		.loc 1 2940 3
 5453 000e F868     		ldr	r0, [r7, #12]
 5454 0010 FFF7FEFF 		bl	HAL_SPI_TxRxHalfCpltCallback
2941:Drivers/STM32F1xx_HAL_Driver/Src/stm32f1xx_hal_spi.c **** #endif /* USE_HAL_SPI_REGISTER_CALLBACKS */
2942:Drivers/STM32F1xx_HAL_Driver/Src/stm32f1xx_hal_spi.c **** }
 5455              		.loc 1 2942 1
 5456 0014 00BF     		nop
 5457 0016 1037     		adds	r7, r7, #16
 5458              	.LCFI189:
 5459              		.cfi_def_cfa_offset 8
 5460 0018 BD46     		mov	sp, r7
 5461              	.LCFI190:
 5462              		.cfi_def_cfa_register 13
 5463              		@ sp needed
 5464 001a 80BD     		pop	{r7, pc}
 5465              		.cfi_endproc
 5466              	.LFE99:
 5468              		.section	.text.SPI_DMAError,"ax",%progbits
 5469              		.align	1
 5470              		.syntax unified
 5471              		.thumb
 5472              		.thumb_func
 5473              		.fpu softvfp
 5475              	SPI_DMAError:
 5476              	.LFB100:
2943:Drivers/STM32F1xx_HAL_Driver/Src/stm32f1xx_hal_spi.c **** 
2944:Drivers/STM32F1xx_HAL_Driver/Src/stm32f1xx_hal_spi.c **** /**
2945:Drivers/STM32F1xx_HAL_Driver/Src/stm32f1xx_hal_spi.c ****   * @brief  DMA SPI communication error callback.
2946:Drivers/STM32F1xx_HAL_Driver/Src/stm32f1xx_hal_spi.c ****   * @param  hdma pointer to a DMA_HandleTypeDef structure that contains
2947:Drivers/STM32F1xx_HAL_Driver/Src/stm32f1xx_hal_spi.c ****   *               the configuration information for the specified DMA module.
ARM GAS  C:\Users\Alex\AppData\Local\Temp\ccfYuLQH.s 			page 148


2948:Drivers/STM32F1xx_HAL_Driver/Src/stm32f1xx_hal_spi.c ****   * @retval None
2949:Drivers/STM32F1xx_HAL_Driver/Src/stm32f1xx_hal_spi.c ****   */
2950:Drivers/STM32F1xx_HAL_Driver/Src/stm32f1xx_hal_spi.c **** static void SPI_DMAError(DMA_HandleTypeDef *hdma)
2951:Drivers/STM32F1xx_HAL_Driver/Src/stm32f1xx_hal_spi.c **** {
 5477              		.loc 1 2951 1
 5478              		.cfi_startproc
 5479              		@ args = 0, pretend = 0, frame = 16
 5480              		@ frame_needed = 1, uses_anonymous_args = 0
 5481 0000 80B5     		push	{r7, lr}
 5482              	.LCFI191:
 5483              		.cfi_def_cfa_offset 8
 5484              		.cfi_offset 7, -8
 5485              		.cfi_offset 14, -4
 5486 0002 84B0     		sub	sp, sp, #16
 5487              	.LCFI192:
 5488              		.cfi_def_cfa_offset 24
 5489 0004 00AF     		add	r7, sp, #0
 5490              	.LCFI193:
 5491              		.cfi_def_cfa_register 7
 5492 0006 7860     		str	r0, [r7, #4]
2952:Drivers/STM32F1xx_HAL_Driver/Src/stm32f1xx_hal_spi.c ****   SPI_HandleTypeDef *hspi = (SPI_HandleTypeDef *)(((DMA_HandleTypeDef *)hdma)->Parent); /* Derogati
 5493              		.loc 1 2952 22
 5494 0008 7B68     		ldr	r3, [r7, #4]
 5495 000a 5B6A     		ldr	r3, [r3, #36]
 5496 000c FB60     		str	r3, [r7, #12]
2953:Drivers/STM32F1xx_HAL_Driver/Src/stm32f1xx_hal_spi.c **** 
2954:Drivers/STM32F1xx_HAL_Driver/Src/stm32f1xx_hal_spi.c ****   /* Stop the disable DMA transfer on SPI side */
2955:Drivers/STM32F1xx_HAL_Driver/Src/stm32f1xx_hal_spi.c ****   CLEAR_BIT(hspi->Instance->CR2, SPI_CR2_TXDMAEN | SPI_CR2_RXDMAEN);
 5497              		.loc 1 2955 3
 5498 000e FB68     		ldr	r3, [r7, #12]
 5499 0010 1B68     		ldr	r3, [r3]
 5500 0012 5A68     		ldr	r2, [r3, #4]
 5501 0014 FB68     		ldr	r3, [r7, #12]
 5502 0016 1B68     		ldr	r3, [r3]
 5503 0018 22F00302 		bic	r2, r2, #3
 5504 001c 5A60     		str	r2, [r3, #4]
2956:Drivers/STM32F1xx_HAL_Driver/Src/stm32f1xx_hal_spi.c **** 
2957:Drivers/STM32F1xx_HAL_Driver/Src/stm32f1xx_hal_spi.c ****   SET_BIT(hspi->ErrorCode, HAL_SPI_ERROR_DMA);
 5505              		.loc 1 2957 3
 5506 001e FB68     		ldr	r3, [r7, #12]
 5507 0020 5B6D     		ldr	r3, [r3, #84]
 5508 0022 43F01002 		orr	r2, r3, #16
 5509 0026 FB68     		ldr	r3, [r7, #12]
 5510 0028 5A65     		str	r2, [r3, #84]
2958:Drivers/STM32F1xx_HAL_Driver/Src/stm32f1xx_hal_spi.c ****   hspi->State = HAL_SPI_STATE_READY;
 5511              		.loc 1 2958 15
 5512 002a FB68     		ldr	r3, [r7, #12]
 5513 002c 0122     		movs	r2, #1
 5514 002e 83F85120 		strb	r2, [r3, #81]
2959:Drivers/STM32F1xx_HAL_Driver/Src/stm32f1xx_hal_spi.c ****   /* Call user error callback */
2960:Drivers/STM32F1xx_HAL_Driver/Src/stm32f1xx_hal_spi.c **** #if (USE_HAL_SPI_REGISTER_CALLBACKS == 1U)
2961:Drivers/STM32F1xx_HAL_Driver/Src/stm32f1xx_hal_spi.c ****   hspi->ErrorCallback(hspi);
2962:Drivers/STM32F1xx_HAL_Driver/Src/stm32f1xx_hal_spi.c **** #else
2963:Drivers/STM32F1xx_HAL_Driver/Src/stm32f1xx_hal_spi.c ****   HAL_SPI_ErrorCallback(hspi);
 5515              		.loc 1 2963 3
 5516 0032 F868     		ldr	r0, [r7, #12]
 5517 0034 FFF7FEFF 		bl	HAL_SPI_ErrorCallback
ARM GAS  C:\Users\Alex\AppData\Local\Temp\ccfYuLQH.s 			page 149


2964:Drivers/STM32F1xx_HAL_Driver/Src/stm32f1xx_hal_spi.c **** #endif /* USE_HAL_SPI_REGISTER_CALLBACKS */
2965:Drivers/STM32F1xx_HAL_Driver/Src/stm32f1xx_hal_spi.c **** }
 5518              		.loc 1 2965 1
 5519 0038 00BF     		nop
 5520 003a 1037     		adds	r7, r7, #16
 5521              	.LCFI194:
 5522              		.cfi_def_cfa_offset 8
 5523 003c BD46     		mov	sp, r7
 5524              	.LCFI195:
 5525              		.cfi_def_cfa_register 13
 5526              		@ sp needed
 5527 003e 80BD     		pop	{r7, pc}
 5528              		.cfi_endproc
 5529              	.LFE100:
 5531              		.section	.text.SPI_DMAAbortOnError,"ax",%progbits
 5532              		.align	1
 5533              		.syntax unified
 5534              		.thumb
 5535              		.thumb_func
 5536              		.fpu softvfp
 5538              	SPI_DMAAbortOnError:
 5539              	.LFB101:
2966:Drivers/STM32F1xx_HAL_Driver/Src/stm32f1xx_hal_spi.c **** 
2967:Drivers/STM32F1xx_HAL_Driver/Src/stm32f1xx_hal_spi.c **** /**
2968:Drivers/STM32F1xx_HAL_Driver/Src/stm32f1xx_hal_spi.c ****   * @brief  DMA SPI communication abort callback, when initiated by HAL services on Error
2969:Drivers/STM32F1xx_HAL_Driver/Src/stm32f1xx_hal_spi.c ****   *         (To be called at end of DMA Abort procedure following error occurrence).
2970:Drivers/STM32F1xx_HAL_Driver/Src/stm32f1xx_hal_spi.c ****   * @param  hdma DMA handle.
2971:Drivers/STM32F1xx_HAL_Driver/Src/stm32f1xx_hal_spi.c ****   * @retval None
2972:Drivers/STM32F1xx_HAL_Driver/Src/stm32f1xx_hal_spi.c ****   */
2973:Drivers/STM32F1xx_HAL_Driver/Src/stm32f1xx_hal_spi.c **** static void SPI_DMAAbortOnError(DMA_HandleTypeDef *hdma)
2974:Drivers/STM32F1xx_HAL_Driver/Src/stm32f1xx_hal_spi.c **** {
 5540              		.loc 1 2974 1
 5541              		.cfi_startproc
 5542              		@ args = 0, pretend = 0, frame = 16
 5543              		@ frame_needed = 1, uses_anonymous_args = 0
 5544 0000 80B5     		push	{r7, lr}
 5545              	.LCFI196:
 5546              		.cfi_def_cfa_offset 8
 5547              		.cfi_offset 7, -8
 5548              		.cfi_offset 14, -4
 5549 0002 84B0     		sub	sp, sp, #16
 5550              	.LCFI197:
 5551              		.cfi_def_cfa_offset 24
 5552 0004 00AF     		add	r7, sp, #0
 5553              	.LCFI198:
 5554              		.cfi_def_cfa_register 7
 5555 0006 7860     		str	r0, [r7, #4]
2975:Drivers/STM32F1xx_HAL_Driver/Src/stm32f1xx_hal_spi.c ****   SPI_HandleTypeDef *hspi = (SPI_HandleTypeDef *)(((DMA_HandleTypeDef *)hdma)->Parent); /* Derogati
 5556              		.loc 1 2975 22
 5557 0008 7B68     		ldr	r3, [r7, #4]
 5558 000a 5B6A     		ldr	r3, [r3, #36]
 5559 000c FB60     		str	r3, [r7, #12]
2976:Drivers/STM32F1xx_HAL_Driver/Src/stm32f1xx_hal_spi.c ****   hspi->RxXferCount = 0U;
 5560              		.loc 1 2976 21
 5561 000e FB68     		ldr	r3, [r7, #12]
 5562 0010 0022     		movs	r2, #0
 5563 0012 DA87     		strh	r2, [r3, #62]	@ movhi
ARM GAS  C:\Users\Alex\AppData\Local\Temp\ccfYuLQH.s 			page 150


2977:Drivers/STM32F1xx_HAL_Driver/Src/stm32f1xx_hal_spi.c ****   hspi->TxXferCount = 0U;
 5564              		.loc 1 2977 21
 5565 0014 FB68     		ldr	r3, [r7, #12]
 5566 0016 0022     		movs	r2, #0
 5567 0018 DA86     		strh	r2, [r3, #54]	@ movhi
2978:Drivers/STM32F1xx_HAL_Driver/Src/stm32f1xx_hal_spi.c **** 
2979:Drivers/STM32F1xx_HAL_Driver/Src/stm32f1xx_hal_spi.c ****   /* Call user error callback */
2980:Drivers/STM32F1xx_HAL_Driver/Src/stm32f1xx_hal_spi.c **** #if (USE_HAL_SPI_REGISTER_CALLBACKS == 1U)
2981:Drivers/STM32F1xx_HAL_Driver/Src/stm32f1xx_hal_spi.c ****   hspi->ErrorCallback(hspi);
2982:Drivers/STM32F1xx_HAL_Driver/Src/stm32f1xx_hal_spi.c **** #else
2983:Drivers/STM32F1xx_HAL_Driver/Src/stm32f1xx_hal_spi.c ****   HAL_SPI_ErrorCallback(hspi);
 5568              		.loc 1 2983 3
 5569 001a F868     		ldr	r0, [r7, #12]
 5570 001c FFF7FEFF 		bl	HAL_SPI_ErrorCallback
2984:Drivers/STM32F1xx_HAL_Driver/Src/stm32f1xx_hal_spi.c **** #endif /* USE_HAL_SPI_REGISTER_CALLBACKS */
2985:Drivers/STM32F1xx_HAL_Driver/Src/stm32f1xx_hal_spi.c **** }
 5571              		.loc 1 2985 1
 5572 0020 00BF     		nop
 5573 0022 1037     		adds	r7, r7, #16
 5574              	.LCFI199:
 5575              		.cfi_def_cfa_offset 8
 5576 0024 BD46     		mov	sp, r7
 5577              	.LCFI200:
 5578              		.cfi_def_cfa_register 13
 5579              		@ sp needed
 5580 0026 80BD     		pop	{r7, pc}
 5581              		.cfi_endproc
 5582              	.LFE101:
 5584              		.section	.text.SPI_DMATxAbortCallback,"ax",%progbits
 5585              		.align	1
 5586              		.syntax unified
 5587              		.thumb
 5588              		.thumb_func
 5589              		.fpu softvfp
 5591              	SPI_DMATxAbortCallback:
 5592              	.LFB102:
2986:Drivers/STM32F1xx_HAL_Driver/Src/stm32f1xx_hal_spi.c **** 
2987:Drivers/STM32F1xx_HAL_Driver/Src/stm32f1xx_hal_spi.c **** /**
2988:Drivers/STM32F1xx_HAL_Driver/Src/stm32f1xx_hal_spi.c ****   * @brief  DMA SPI Tx communication abort callback, when initiated by user
2989:Drivers/STM32F1xx_HAL_Driver/Src/stm32f1xx_hal_spi.c ****   *         (To be called at end of DMA Tx Abort procedure following user abort request).
2990:Drivers/STM32F1xx_HAL_Driver/Src/stm32f1xx_hal_spi.c ****   * @note   When this callback is executed, User Abort complete call back is called only if no
2991:Drivers/STM32F1xx_HAL_Driver/Src/stm32f1xx_hal_spi.c ****   *         Abort still ongoing for Rx DMA Handle.
2992:Drivers/STM32F1xx_HAL_Driver/Src/stm32f1xx_hal_spi.c ****   * @param  hdma DMA handle.
2993:Drivers/STM32F1xx_HAL_Driver/Src/stm32f1xx_hal_spi.c ****   * @retval None
2994:Drivers/STM32F1xx_HAL_Driver/Src/stm32f1xx_hal_spi.c ****   */
2995:Drivers/STM32F1xx_HAL_Driver/Src/stm32f1xx_hal_spi.c **** static void SPI_DMATxAbortCallback(DMA_HandleTypeDef *hdma)
2996:Drivers/STM32F1xx_HAL_Driver/Src/stm32f1xx_hal_spi.c **** {
 5593              		.loc 1 2996 1
 5594              		.cfi_startproc
 5595              		@ args = 0, pretend = 0, frame = 24
 5596              		@ frame_needed = 1, uses_anonymous_args = 0
 5597 0000 80B5     		push	{r7, lr}
 5598              	.LCFI201:
 5599              		.cfi_def_cfa_offset 8
 5600              		.cfi_offset 7, -8
 5601              		.cfi_offset 14, -4
 5602 0002 86B0     		sub	sp, sp, #24
ARM GAS  C:\Users\Alex\AppData\Local\Temp\ccfYuLQH.s 			page 151


 5603              	.LCFI202:
 5604              		.cfi_def_cfa_offset 32
 5605 0004 00AF     		add	r7, sp, #0
 5606              	.LCFI203:
 5607              		.cfi_def_cfa_register 7
 5608 0006 7860     		str	r0, [r7, #4]
2997:Drivers/STM32F1xx_HAL_Driver/Src/stm32f1xx_hal_spi.c ****   SPI_HandleTypeDef *hspi = (SPI_HandleTypeDef *)(((DMA_HandleTypeDef *)hdma)->Parent); /* Derogati
 5609              		.loc 1 2997 22
 5610 0008 7B68     		ldr	r3, [r7, #4]
 5611 000a 5B6A     		ldr	r3, [r3, #36]
 5612 000c 7B61     		str	r3, [r7, #20]
2998:Drivers/STM32F1xx_HAL_Driver/Src/stm32f1xx_hal_spi.c ****   __IO uint32_t count;
2999:Drivers/STM32F1xx_HAL_Driver/Src/stm32f1xx_hal_spi.c **** 
3000:Drivers/STM32F1xx_HAL_Driver/Src/stm32f1xx_hal_spi.c ****   hspi->hdmatx->XferAbortCallback = NULL;
 5613              		.loc 1 3000 7
 5614 000e 7B69     		ldr	r3, [r7, #20]
 5615 0010 9B6C     		ldr	r3, [r3, #72]
 5616              		.loc 1 3000 35
 5617 0012 0022     		movs	r2, #0
 5618 0014 5A63     		str	r2, [r3, #52]
3001:Drivers/STM32F1xx_HAL_Driver/Src/stm32f1xx_hal_spi.c ****   count = SPI_DEFAULT_TIMEOUT * (SystemCoreClock / 24U / 1000U);
 5619              		.loc 1 3001 56
 5620 0016 294B     		ldr	r3, .L280
 5621 0018 1B68     		ldr	r3, [r3]
 5622 001a 294A     		ldr	r2, .L280+4
 5623 001c A2FB0323 		umull	r2, r3, r2, r3
 5624 0020 5B0A     		lsrs	r3, r3, #9
 5625              		.loc 1 3001 31
 5626 0022 6422     		movs	r2, #100
 5627 0024 02FB03F3 		mul	r3, r2, r3
 5628              		.loc 1 3001 9
 5629 0028 3B61     		str	r3, [r7, #16]
3002:Drivers/STM32F1xx_HAL_Driver/Src/stm32f1xx_hal_spi.c **** 
3003:Drivers/STM32F1xx_HAL_Driver/Src/stm32f1xx_hal_spi.c ****   /* Disable Tx DMA Request */
3004:Drivers/STM32F1xx_HAL_Driver/Src/stm32f1xx_hal_spi.c ****   CLEAR_BIT(hspi->Instance->CR2, SPI_CR2_TXDMAEN);
 5630              		.loc 1 3004 3
 5631 002a 7B69     		ldr	r3, [r7, #20]
 5632 002c 1B68     		ldr	r3, [r3]
 5633 002e 5A68     		ldr	r2, [r3, #4]
 5634 0030 7B69     		ldr	r3, [r7, #20]
 5635 0032 1B68     		ldr	r3, [r3]
 5636 0034 22F00202 		bic	r2, r2, #2
 5637 0038 5A60     		str	r2, [r3, #4]
 5638              	.L275:
3005:Drivers/STM32F1xx_HAL_Driver/Src/stm32f1xx_hal_spi.c **** 
3006:Drivers/STM32F1xx_HAL_Driver/Src/stm32f1xx_hal_spi.c ****   /* Wait until TXE flag is set */
3007:Drivers/STM32F1xx_HAL_Driver/Src/stm32f1xx_hal_spi.c ****   do
3008:Drivers/STM32F1xx_HAL_Driver/Src/stm32f1xx_hal_spi.c ****   {
3009:Drivers/STM32F1xx_HAL_Driver/Src/stm32f1xx_hal_spi.c ****     if (count == 0U)
 5639              		.loc 1 3009 15
 5640 003a 3B69     		ldr	r3, [r7, #16]
 5641              		.loc 1 3009 8
 5642 003c 002B     		cmp	r3, #0
 5643 003e 06D1     		bne	.L273
3010:Drivers/STM32F1xx_HAL_Driver/Src/stm32f1xx_hal_spi.c ****     {
3011:Drivers/STM32F1xx_HAL_Driver/Src/stm32f1xx_hal_spi.c ****       SET_BIT(hspi->ErrorCode, HAL_SPI_ERROR_ABORT);
 5644              		.loc 1 3011 7
ARM GAS  C:\Users\Alex\AppData\Local\Temp\ccfYuLQH.s 			page 152


 5645 0040 7B69     		ldr	r3, [r7, #20]
 5646 0042 5B6D     		ldr	r3, [r3, #84]
 5647 0044 43F04002 		orr	r2, r3, #64
 5648 0048 7B69     		ldr	r3, [r7, #20]
 5649 004a 5A65     		str	r2, [r3, #84]
3012:Drivers/STM32F1xx_HAL_Driver/Src/stm32f1xx_hal_spi.c ****       break;
 5650              		.loc 1 3012 7
 5651 004c 09E0     		b	.L274
 5652              	.L273:
3013:Drivers/STM32F1xx_HAL_Driver/Src/stm32f1xx_hal_spi.c ****     }
3014:Drivers/STM32F1xx_HAL_Driver/Src/stm32f1xx_hal_spi.c ****     count--;
 5653              		.loc 1 3014 10
 5654 004e 3B69     		ldr	r3, [r7, #16]
 5655 0050 013B     		subs	r3, r3, #1
 5656 0052 3B61     		str	r3, [r7, #16]
3015:Drivers/STM32F1xx_HAL_Driver/Src/stm32f1xx_hal_spi.c ****   } while ((hspi->Instance->SR & SPI_FLAG_TXE) == RESET);
 5657              		.loc 1 3015 17
 5658 0054 7B69     		ldr	r3, [r7, #20]
 5659 0056 1B68     		ldr	r3, [r3]
 5660              		.loc 1 3015 27
 5661 0058 9B68     		ldr	r3, [r3, #8]
 5662              		.loc 1 3015 32
 5663 005a 03F00203 		and	r3, r3, #2
 5664              		.loc 1 3015 3
 5665 005e 002B     		cmp	r3, #0
 5666 0060 EBD0     		beq	.L275
 5667              	.L274:
3016:Drivers/STM32F1xx_HAL_Driver/Src/stm32f1xx_hal_spi.c **** 
3017:Drivers/STM32F1xx_HAL_Driver/Src/stm32f1xx_hal_spi.c ****   /* Check if an Abort process is still ongoing */
3018:Drivers/STM32F1xx_HAL_Driver/Src/stm32f1xx_hal_spi.c ****   if (hspi->hdmarx != NULL)
 5668              		.loc 1 3018 11
 5669 0062 7B69     		ldr	r3, [r7, #20]
 5670 0064 DB6C     		ldr	r3, [r3, #76]
 5671              		.loc 1 3018 6
 5672 0066 002B     		cmp	r3, #0
 5673 0068 04D0     		beq	.L276
3019:Drivers/STM32F1xx_HAL_Driver/Src/stm32f1xx_hal_spi.c ****   {
3020:Drivers/STM32F1xx_HAL_Driver/Src/stm32f1xx_hal_spi.c ****     if (hspi->hdmarx->XferAbortCallback != NULL)
 5674              		.loc 1 3020 13
 5675 006a 7B69     		ldr	r3, [r7, #20]
 5676 006c DB6C     		ldr	r3, [r3, #76]
 5677              		.loc 1 3020 21
 5678 006e 5B6B     		ldr	r3, [r3, #52]
 5679              		.loc 1 3020 8
 5680 0070 002B     		cmp	r3, #0
 5681 0072 1FD1     		bne	.L279
 5682              	.L276:
3021:Drivers/STM32F1xx_HAL_Driver/Src/stm32f1xx_hal_spi.c ****     {
3022:Drivers/STM32F1xx_HAL_Driver/Src/stm32f1xx_hal_spi.c ****       return;
3023:Drivers/STM32F1xx_HAL_Driver/Src/stm32f1xx_hal_spi.c ****     }
3024:Drivers/STM32F1xx_HAL_Driver/Src/stm32f1xx_hal_spi.c ****   }
3025:Drivers/STM32F1xx_HAL_Driver/Src/stm32f1xx_hal_spi.c **** 
3026:Drivers/STM32F1xx_HAL_Driver/Src/stm32f1xx_hal_spi.c ****   /* No Abort process still ongoing : All DMA Stream/Channel are aborted, call user Abort Complete 
3027:Drivers/STM32F1xx_HAL_Driver/Src/stm32f1xx_hal_spi.c ****   hspi->RxXferCount = 0U;
 5683              		.loc 1 3027 21
 5684 0074 7B69     		ldr	r3, [r7, #20]
 5685 0076 0022     		movs	r2, #0
ARM GAS  C:\Users\Alex\AppData\Local\Temp\ccfYuLQH.s 			page 153


 5686 0078 DA87     		strh	r2, [r3, #62]	@ movhi
3028:Drivers/STM32F1xx_HAL_Driver/Src/stm32f1xx_hal_spi.c ****   hspi->TxXferCount = 0U;
 5687              		.loc 1 3028 21
 5688 007a 7B69     		ldr	r3, [r7, #20]
 5689 007c 0022     		movs	r2, #0
 5690 007e DA86     		strh	r2, [r3, #54]	@ movhi
3029:Drivers/STM32F1xx_HAL_Driver/Src/stm32f1xx_hal_spi.c **** 
3030:Drivers/STM32F1xx_HAL_Driver/Src/stm32f1xx_hal_spi.c ****   /* Check no error during Abort procedure */
3031:Drivers/STM32F1xx_HAL_Driver/Src/stm32f1xx_hal_spi.c ****   if (hspi->ErrorCode != HAL_SPI_ERROR_ABORT)
 5691              		.loc 1 3031 11
 5692 0080 7B69     		ldr	r3, [r7, #20]
 5693 0082 5B6D     		ldr	r3, [r3, #84]
 5694              		.loc 1 3031 6
 5695 0084 402B     		cmp	r3, #64
 5696 0086 02D0     		beq	.L278
3032:Drivers/STM32F1xx_HAL_Driver/Src/stm32f1xx_hal_spi.c ****   {
3033:Drivers/STM32F1xx_HAL_Driver/Src/stm32f1xx_hal_spi.c ****     /* Reset errorCode */
3034:Drivers/STM32F1xx_HAL_Driver/Src/stm32f1xx_hal_spi.c ****     hspi->ErrorCode = HAL_SPI_ERROR_NONE;
 5697              		.loc 1 3034 21
 5698 0088 7B69     		ldr	r3, [r7, #20]
 5699 008a 0022     		movs	r2, #0
 5700 008c 5A65     		str	r2, [r3, #84]
 5701              	.L278:
 5702              	.LBB10:
3035:Drivers/STM32F1xx_HAL_Driver/Src/stm32f1xx_hal_spi.c ****   }
3036:Drivers/STM32F1xx_HAL_Driver/Src/stm32f1xx_hal_spi.c **** 
3037:Drivers/STM32F1xx_HAL_Driver/Src/stm32f1xx_hal_spi.c ****   /* Clear the Error flags in the SR register */
3038:Drivers/STM32F1xx_HAL_Driver/Src/stm32f1xx_hal_spi.c ****   __HAL_SPI_CLEAR_OVRFLAG(hspi);
 5703              		.loc 1 3038 3
 5704 008e 0023     		movs	r3, #0
 5705 0090 FB60     		str	r3, [r7, #12]
 5706 0092 7B69     		ldr	r3, [r7, #20]
 5707 0094 1B68     		ldr	r3, [r3]
 5708 0096 DB68     		ldr	r3, [r3, #12]
 5709 0098 FB60     		str	r3, [r7, #12]
 5710 009a 7B69     		ldr	r3, [r7, #20]
 5711 009c 1B68     		ldr	r3, [r3]
 5712 009e 9B68     		ldr	r3, [r3, #8]
 5713 00a0 FB60     		str	r3, [r7, #12]
 5714 00a2 FB68     		ldr	r3, [r7, #12]
 5715              	.LBE10:
3039:Drivers/STM32F1xx_HAL_Driver/Src/stm32f1xx_hal_spi.c **** 
3040:Drivers/STM32F1xx_HAL_Driver/Src/stm32f1xx_hal_spi.c ****   /* Restore hspi->State to Ready */
3041:Drivers/STM32F1xx_HAL_Driver/Src/stm32f1xx_hal_spi.c ****   hspi->State  = HAL_SPI_STATE_READY;
 5716              		.loc 1 3041 16
 5717 00a4 7B69     		ldr	r3, [r7, #20]
 5718 00a6 0122     		movs	r2, #1
 5719 00a8 83F85120 		strb	r2, [r3, #81]
3042:Drivers/STM32F1xx_HAL_Driver/Src/stm32f1xx_hal_spi.c **** 
3043:Drivers/STM32F1xx_HAL_Driver/Src/stm32f1xx_hal_spi.c ****   /* Call user Abort complete callback */
3044:Drivers/STM32F1xx_HAL_Driver/Src/stm32f1xx_hal_spi.c **** #if (USE_HAL_SPI_REGISTER_CALLBACKS == 1U)
3045:Drivers/STM32F1xx_HAL_Driver/Src/stm32f1xx_hal_spi.c ****   hspi->AbortCpltCallback(hspi);
3046:Drivers/STM32F1xx_HAL_Driver/Src/stm32f1xx_hal_spi.c **** #else
3047:Drivers/STM32F1xx_HAL_Driver/Src/stm32f1xx_hal_spi.c ****   HAL_SPI_AbortCpltCallback(hspi);
 5720              		.loc 1 3047 3
 5721 00ac 7869     		ldr	r0, [r7, #20]
 5722 00ae FFF7FEFF 		bl	HAL_SPI_AbortCpltCallback
ARM GAS  C:\Users\Alex\AppData\Local\Temp\ccfYuLQH.s 			page 154


 5723 00b2 00E0     		b	.L272
 5724              	.L279:
3022:Drivers/STM32F1xx_HAL_Driver/Src/stm32f1xx_hal_spi.c ****     }
 5725              		.loc 1 3022 7
 5726 00b4 00BF     		nop
 5727              	.L272:
3048:Drivers/STM32F1xx_HAL_Driver/Src/stm32f1xx_hal_spi.c **** #endif /* USE_HAL_SPI_REGISTER_CALLBACKS */
3049:Drivers/STM32F1xx_HAL_Driver/Src/stm32f1xx_hal_spi.c **** }
 5728              		.loc 1 3049 1
 5729 00b6 1837     		adds	r7, r7, #24
 5730              	.LCFI204:
 5731              		.cfi_def_cfa_offset 8
 5732 00b8 BD46     		mov	sp, r7
 5733              	.LCFI205:
 5734              		.cfi_def_cfa_register 13
 5735              		@ sp needed
 5736 00ba 80BD     		pop	{r7, pc}
 5737              	.L281:
 5738              		.align	2
 5739              	.L280:
 5740 00bc 00000000 		.word	SystemCoreClock
 5741 00c0 F1197605 		.word	91625969
 5742              		.cfi_endproc
 5743              	.LFE102:
 5745              		.section	.text.SPI_DMARxAbortCallback,"ax",%progbits
 5746              		.align	1
 5747              		.syntax unified
 5748              		.thumb
 5749              		.thumb_func
 5750              		.fpu softvfp
 5752              	SPI_DMARxAbortCallback:
 5753              	.LFB103:
3050:Drivers/STM32F1xx_HAL_Driver/Src/stm32f1xx_hal_spi.c **** 
3051:Drivers/STM32F1xx_HAL_Driver/Src/stm32f1xx_hal_spi.c **** /**
3052:Drivers/STM32F1xx_HAL_Driver/Src/stm32f1xx_hal_spi.c ****   * @brief  DMA SPI Rx communication abort callback, when initiated by user
3053:Drivers/STM32F1xx_HAL_Driver/Src/stm32f1xx_hal_spi.c ****   *         (To be called at end of DMA Rx Abort procedure following user abort request).
3054:Drivers/STM32F1xx_HAL_Driver/Src/stm32f1xx_hal_spi.c ****   * @note   When this callback is executed, User Abort complete call back is called only if no
3055:Drivers/STM32F1xx_HAL_Driver/Src/stm32f1xx_hal_spi.c ****   *         Abort still ongoing for Tx DMA Handle.
3056:Drivers/STM32F1xx_HAL_Driver/Src/stm32f1xx_hal_spi.c ****   * @param  hdma DMA handle.
3057:Drivers/STM32F1xx_HAL_Driver/Src/stm32f1xx_hal_spi.c ****   * @retval None
3058:Drivers/STM32F1xx_HAL_Driver/Src/stm32f1xx_hal_spi.c ****   */
3059:Drivers/STM32F1xx_HAL_Driver/Src/stm32f1xx_hal_spi.c **** static void SPI_DMARxAbortCallback(DMA_HandleTypeDef *hdma)
3060:Drivers/STM32F1xx_HAL_Driver/Src/stm32f1xx_hal_spi.c **** {
 5754              		.loc 1 3060 1
 5755              		.cfi_startproc
 5756              		@ args = 0, pretend = 0, frame = 16
 5757              		@ frame_needed = 1, uses_anonymous_args = 0
 5758 0000 80B5     		push	{r7, lr}
 5759              	.LCFI206:
 5760              		.cfi_def_cfa_offset 8
 5761              		.cfi_offset 7, -8
 5762              		.cfi_offset 14, -4
 5763 0002 84B0     		sub	sp, sp, #16
 5764              	.LCFI207:
 5765              		.cfi_def_cfa_offset 24
 5766 0004 00AF     		add	r7, sp, #0
 5767              	.LCFI208:
ARM GAS  C:\Users\Alex\AppData\Local\Temp\ccfYuLQH.s 			page 155


 5768              		.cfi_def_cfa_register 7
 5769 0006 7860     		str	r0, [r7, #4]
3061:Drivers/STM32F1xx_HAL_Driver/Src/stm32f1xx_hal_spi.c ****   SPI_HandleTypeDef *hspi = (SPI_HandleTypeDef *)(((DMA_HandleTypeDef *)hdma)->Parent); /* Derogati
 5770              		.loc 1 3061 22
 5771 0008 7B68     		ldr	r3, [r7, #4]
 5772 000a 5B6A     		ldr	r3, [r3, #36]
 5773 000c FB60     		str	r3, [r7, #12]
3062:Drivers/STM32F1xx_HAL_Driver/Src/stm32f1xx_hal_spi.c **** 
3063:Drivers/STM32F1xx_HAL_Driver/Src/stm32f1xx_hal_spi.c ****   /* Disable SPI Peripheral */
3064:Drivers/STM32F1xx_HAL_Driver/Src/stm32f1xx_hal_spi.c ****   __HAL_SPI_DISABLE(hspi);
 5774              		.loc 1 3064 3
 5775 000e FB68     		ldr	r3, [r7, #12]
 5776 0010 1B68     		ldr	r3, [r3]
 5777 0012 1A68     		ldr	r2, [r3]
 5778 0014 FB68     		ldr	r3, [r7, #12]
 5779 0016 1B68     		ldr	r3, [r3]
 5780 0018 22F04002 		bic	r2, r2, #64
 5781 001c 1A60     		str	r2, [r3]
3065:Drivers/STM32F1xx_HAL_Driver/Src/stm32f1xx_hal_spi.c **** 
3066:Drivers/STM32F1xx_HAL_Driver/Src/stm32f1xx_hal_spi.c ****   hspi->hdmarx->XferAbortCallback = NULL;
 5782              		.loc 1 3066 7
 5783 001e FB68     		ldr	r3, [r7, #12]
 5784 0020 DB6C     		ldr	r3, [r3, #76]
 5785              		.loc 1 3066 35
 5786 0022 0022     		movs	r2, #0
 5787 0024 5A63     		str	r2, [r3, #52]
3067:Drivers/STM32F1xx_HAL_Driver/Src/stm32f1xx_hal_spi.c **** 
3068:Drivers/STM32F1xx_HAL_Driver/Src/stm32f1xx_hal_spi.c ****   /* Disable Rx DMA Request */
3069:Drivers/STM32F1xx_HAL_Driver/Src/stm32f1xx_hal_spi.c ****   CLEAR_BIT(hspi->Instance->CR2, SPI_CR2_RXDMAEN);
 5788              		.loc 1 3069 3
 5789 0026 FB68     		ldr	r3, [r7, #12]
 5790 0028 1B68     		ldr	r3, [r3]
 5791 002a 5A68     		ldr	r2, [r3, #4]
 5792 002c FB68     		ldr	r3, [r7, #12]
 5793 002e 1B68     		ldr	r3, [r3]
 5794 0030 22F00102 		bic	r2, r2, #1
 5795 0034 5A60     		str	r2, [r3, #4]
3070:Drivers/STM32F1xx_HAL_Driver/Src/stm32f1xx_hal_spi.c **** 
3071:Drivers/STM32F1xx_HAL_Driver/Src/stm32f1xx_hal_spi.c ****   /* Check Busy flag */
3072:Drivers/STM32F1xx_HAL_Driver/Src/stm32f1xx_hal_spi.c ****   if (SPI_EndRxTxTransaction(hspi, SPI_DEFAULT_TIMEOUT, HAL_GetTick()) != HAL_OK)
 5796              		.loc 1 3072 7
 5797 0036 FFF7FEFF 		bl	HAL_GetTick
 5798 003a 0346     		mov	r3, r0
 5799 003c 1A46     		mov	r2, r3
 5800 003e 6421     		movs	r1, #100
 5801 0040 F868     		ldr	r0, [r7, #12]
 5802 0042 FFF7FEFF 		bl	SPI_EndRxTxTransaction
 5803 0046 0346     		mov	r3, r0
 5804              		.loc 1 3072 6
 5805 0048 002B     		cmp	r3, #0
 5806 004a 05D0     		beq	.L283
3073:Drivers/STM32F1xx_HAL_Driver/Src/stm32f1xx_hal_spi.c ****   {
3074:Drivers/STM32F1xx_HAL_Driver/Src/stm32f1xx_hal_spi.c ****     SET_BIT(hspi->ErrorCode, HAL_SPI_ERROR_ABORT);
 5807              		.loc 1 3074 5
 5808 004c FB68     		ldr	r3, [r7, #12]
 5809 004e 5B6D     		ldr	r3, [r3, #84]
 5810 0050 43F04002 		orr	r2, r3, #64
ARM GAS  C:\Users\Alex\AppData\Local\Temp\ccfYuLQH.s 			page 156


 5811 0054 FB68     		ldr	r3, [r7, #12]
 5812 0056 5A65     		str	r2, [r3, #84]
 5813              	.L283:
3075:Drivers/STM32F1xx_HAL_Driver/Src/stm32f1xx_hal_spi.c ****   }
3076:Drivers/STM32F1xx_HAL_Driver/Src/stm32f1xx_hal_spi.c **** 
3077:Drivers/STM32F1xx_HAL_Driver/Src/stm32f1xx_hal_spi.c ****   /* Check if an Abort process is still ongoing */
3078:Drivers/STM32F1xx_HAL_Driver/Src/stm32f1xx_hal_spi.c ****   if (hspi->hdmatx != NULL)
 5814              		.loc 1 3078 11
 5815 0058 FB68     		ldr	r3, [r7, #12]
 5816 005a 9B6C     		ldr	r3, [r3, #72]
 5817              		.loc 1 3078 6
 5818 005c 002B     		cmp	r3, #0
 5819 005e 04D0     		beq	.L284
3079:Drivers/STM32F1xx_HAL_Driver/Src/stm32f1xx_hal_spi.c ****   {
3080:Drivers/STM32F1xx_HAL_Driver/Src/stm32f1xx_hal_spi.c ****     if (hspi->hdmatx->XferAbortCallback != NULL)
 5820              		.loc 1 3080 13
 5821 0060 FB68     		ldr	r3, [r7, #12]
 5822 0062 9B6C     		ldr	r3, [r3, #72]
 5823              		.loc 1 3080 21
 5824 0064 5B6B     		ldr	r3, [r3, #52]
 5825              		.loc 1 3080 8
 5826 0066 002B     		cmp	r3, #0
 5827 0068 1FD1     		bne	.L287
 5828              	.L284:
3081:Drivers/STM32F1xx_HAL_Driver/Src/stm32f1xx_hal_spi.c ****     {
3082:Drivers/STM32F1xx_HAL_Driver/Src/stm32f1xx_hal_spi.c ****       return;
3083:Drivers/STM32F1xx_HAL_Driver/Src/stm32f1xx_hal_spi.c ****     }
3084:Drivers/STM32F1xx_HAL_Driver/Src/stm32f1xx_hal_spi.c ****   }
3085:Drivers/STM32F1xx_HAL_Driver/Src/stm32f1xx_hal_spi.c **** 
3086:Drivers/STM32F1xx_HAL_Driver/Src/stm32f1xx_hal_spi.c ****   /* No Abort process still ongoing : All DMA Stream/Channel are aborted, call user Abort Complete 
3087:Drivers/STM32F1xx_HAL_Driver/Src/stm32f1xx_hal_spi.c ****   hspi->RxXferCount = 0U;
 5829              		.loc 1 3087 21
 5830 006a FB68     		ldr	r3, [r7, #12]
 5831 006c 0022     		movs	r2, #0
 5832 006e DA87     		strh	r2, [r3, #62]	@ movhi
3088:Drivers/STM32F1xx_HAL_Driver/Src/stm32f1xx_hal_spi.c ****   hspi->TxXferCount = 0U;
 5833              		.loc 1 3088 21
 5834 0070 FB68     		ldr	r3, [r7, #12]
 5835 0072 0022     		movs	r2, #0
 5836 0074 DA86     		strh	r2, [r3, #54]	@ movhi
3089:Drivers/STM32F1xx_HAL_Driver/Src/stm32f1xx_hal_spi.c **** 
3090:Drivers/STM32F1xx_HAL_Driver/Src/stm32f1xx_hal_spi.c ****   /* Check no error during Abort procedure */
3091:Drivers/STM32F1xx_HAL_Driver/Src/stm32f1xx_hal_spi.c ****   if (hspi->ErrorCode != HAL_SPI_ERROR_ABORT)
 5837              		.loc 1 3091 11
 5838 0076 FB68     		ldr	r3, [r7, #12]
 5839 0078 5B6D     		ldr	r3, [r3, #84]
 5840              		.loc 1 3091 6
 5841 007a 402B     		cmp	r3, #64
 5842 007c 02D0     		beq	.L286
3092:Drivers/STM32F1xx_HAL_Driver/Src/stm32f1xx_hal_spi.c ****   {
3093:Drivers/STM32F1xx_HAL_Driver/Src/stm32f1xx_hal_spi.c ****     /* Reset errorCode */
3094:Drivers/STM32F1xx_HAL_Driver/Src/stm32f1xx_hal_spi.c ****     hspi->ErrorCode = HAL_SPI_ERROR_NONE;
 5843              		.loc 1 3094 21
 5844 007e FB68     		ldr	r3, [r7, #12]
 5845 0080 0022     		movs	r2, #0
 5846 0082 5A65     		str	r2, [r3, #84]
 5847              	.L286:
ARM GAS  C:\Users\Alex\AppData\Local\Temp\ccfYuLQH.s 			page 157


 5848              	.LBB11:
3095:Drivers/STM32F1xx_HAL_Driver/Src/stm32f1xx_hal_spi.c ****   }
3096:Drivers/STM32F1xx_HAL_Driver/Src/stm32f1xx_hal_spi.c **** 
3097:Drivers/STM32F1xx_HAL_Driver/Src/stm32f1xx_hal_spi.c ****   /* Clear the Error flags in the SR register */
3098:Drivers/STM32F1xx_HAL_Driver/Src/stm32f1xx_hal_spi.c ****   __HAL_SPI_CLEAR_OVRFLAG(hspi);
 5849              		.loc 1 3098 3
 5850 0084 0023     		movs	r3, #0
 5851 0086 BB60     		str	r3, [r7, #8]
 5852 0088 FB68     		ldr	r3, [r7, #12]
 5853 008a 1B68     		ldr	r3, [r3]
 5854 008c DB68     		ldr	r3, [r3, #12]
 5855 008e BB60     		str	r3, [r7, #8]
 5856 0090 FB68     		ldr	r3, [r7, #12]
 5857 0092 1B68     		ldr	r3, [r3]
 5858 0094 9B68     		ldr	r3, [r3, #8]
 5859 0096 BB60     		str	r3, [r7, #8]
 5860 0098 BB68     		ldr	r3, [r7, #8]
 5861              	.LBE11:
3099:Drivers/STM32F1xx_HAL_Driver/Src/stm32f1xx_hal_spi.c **** 
3100:Drivers/STM32F1xx_HAL_Driver/Src/stm32f1xx_hal_spi.c ****   /* Restore hspi->State to Ready */
3101:Drivers/STM32F1xx_HAL_Driver/Src/stm32f1xx_hal_spi.c ****   hspi->State  = HAL_SPI_STATE_READY;
 5862              		.loc 1 3101 16
 5863 009a FB68     		ldr	r3, [r7, #12]
 5864 009c 0122     		movs	r2, #1
 5865 009e 83F85120 		strb	r2, [r3, #81]
3102:Drivers/STM32F1xx_HAL_Driver/Src/stm32f1xx_hal_spi.c **** 
3103:Drivers/STM32F1xx_HAL_Driver/Src/stm32f1xx_hal_spi.c ****   /* Call user Abort complete callback */
3104:Drivers/STM32F1xx_HAL_Driver/Src/stm32f1xx_hal_spi.c **** #if (USE_HAL_SPI_REGISTER_CALLBACKS == 1U)
3105:Drivers/STM32F1xx_HAL_Driver/Src/stm32f1xx_hal_spi.c ****   hspi->AbortCpltCallback(hspi);
3106:Drivers/STM32F1xx_HAL_Driver/Src/stm32f1xx_hal_spi.c **** #else
3107:Drivers/STM32F1xx_HAL_Driver/Src/stm32f1xx_hal_spi.c ****   HAL_SPI_AbortCpltCallback(hspi);
 5866              		.loc 1 3107 3
 5867 00a2 F868     		ldr	r0, [r7, #12]
 5868 00a4 FFF7FEFF 		bl	HAL_SPI_AbortCpltCallback
 5869 00a8 00E0     		b	.L282
 5870              	.L287:
3082:Drivers/STM32F1xx_HAL_Driver/Src/stm32f1xx_hal_spi.c ****     }
 5871              		.loc 1 3082 7
 5872 00aa 00BF     		nop
 5873              	.L282:
3108:Drivers/STM32F1xx_HAL_Driver/Src/stm32f1xx_hal_spi.c **** #endif /* USE_HAL_SPI_REGISTER_CALLBACKS */
3109:Drivers/STM32F1xx_HAL_Driver/Src/stm32f1xx_hal_spi.c **** }
 5874              		.loc 1 3109 1
 5875 00ac 1037     		adds	r7, r7, #16
 5876              	.LCFI209:
 5877              		.cfi_def_cfa_offset 8
 5878 00ae BD46     		mov	sp, r7
 5879              	.LCFI210:
 5880              		.cfi_def_cfa_register 13
 5881              		@ sp needed
 5882 00b0 80BD     		pop	{r7, pc}
 5883              		.cfi_endproc
 5884              	.LFE103:
 5886              		.section	.text.SPI_2linesRxISR_8BIT,"ax",%progbits
 5887              		.align	1
 5888              		.syntax unified
 5889              		.thumb
ARM GAS  C:\Users\Alex\AppData\Local\Temp\ccfYuLQH.s 			page 158


 5890              		.thumb_func
 5891              		.fpu softvfp
 5893              	SPI_2linesRxISR_8BIT:
 5894              	.LFB104:
3110:Drivers/STM32F1xx_HAL_Driver/Src/stm32f1xx_hal_spi.c **** 
3111:Drivers/STM32F1xx_HAL_Driver/Src/stm32f1xx_hal_spi.c **** /**
3112:Drivers/STM32F1xx_HAL_Driver/Src/stm32f1xx_hal_spi.c ****   * @brief  Rx 8-bit handler for Transmit and Receive in Interrupt mode.
3113:Drivers/STM32F1xx_HAL_Driver/Src/stm32f1xx_hal_spi.c ****   * @param  hspi pointer to a SPI_HandleTypeDef structure that contains
3114:Drivers/STM32F1xx_HAL_Driver/Src/stm32f1xx_hal_spi.c ****   *               the configuration information for SPI module.
3115:Drivers/STM32F1xx_HAL_Driver/Src/stm32f1xx_hal_spi.c ****   * @retval None
3116:Drivers/STM32F1xx_HAL_Driver/Src/stm32f1xx_hal_spi.c ****   */
3117:Drivers/STM32F1xx_HAL_Driver/Src/stm32f1xx_hal_spi.c **** static void SPI_2linesRxISR_8BIT(struct __SPI_HandleTypeDef *hspi)
3118:Drivers/STM32F1xx_HAL_Driver/Src/stm32f1xx_hal_spi.c **** {
 5895              		.loc 1 3118 1
 5896              		.cfi_startproc
 5897              		@ args = 0, pretend = 0, frame = 8
 5898              		@ frame_needed = 1, uses_anonymous_args = 0
 5899 0000 80B5     		push	{r7, lr}
 5900              	.LCFI211:
 5901              		.cfi_def_cfa_offset 8
 5902              		.cfi_offset 7, -8
 5903              		.cfi_offset 14, -4
 5904 0002 82B0     		sub	sp, sp, #8
 5905              	.LCFI212:
 5906              		.cfi_def_cfa_offset 16
 5907 0004 00AF     		add	r7, sp, #0
 5908              	.LCFI213:
 5909              		.cfi_def_cfa_register 7
 5910 0006 7860     		str	r0, [r7, #4]
3119:Drivers/STM32F1xx_HAL_Driver/Src/stm32f1xx_hal_spi.c ****   /* Receive data in 8bit mode */
3120:Drivers/STM32F1xx_HAL_Driver/Src/stm32f1xx_hal_spi.c ****   *hspi->pRxBuffPtr = *((__IO uint8_t *)&hspi->Instance->DR);
 5911              		.loc 1 3120 46
 5912 0008 7B68     		ldr	r3, [r7, #4]
 5913 000a 1B68     		ldr	r3, [r3]
 5914              		.loc 1 3120 41
 5915 000c 03F10C02 		add	r2, r3, #12
 5916              		.loc 1 3120 8
 5917 0010 7B68     		ldr	r3, [r7, #4]
 5918 0012 9B6B     		ldr	r3, [r3, #56]
 5919              		.loc 1 3120 23
 5920 0014 1278     		ldrb	r2, [r2]
 5921 0016 D2B2     		uxtb	r2, r2
 5922              		.loc 1 3120 21
 5923 0018 1A70     		strb	r2, [r3]
3121:Drivers/STM32F1xx_HAL_Driver/Src/stm32f1xx_hal_spi.c ****   hspi->pRxBuffPtr++;
 5924              		.loc 1 3121 7
 5925 001a 7B68     		ldr	r3, [r7, #4]
 5926 001c 9B6B     		ldr	r3, [r3, #56]
 5927              		.loc 1 3121 19
 5928 001e 5A1C     		adds	r2, r3, #1
 5929 0020 7B68     		ldr	r3, [r7, #4]
 5930 0022 9A63     		str	r2, [r3, #56]
3122:Drivers/STM32F1xx_HAL_Driver/Src/stm32f1xx_hal_spi.c ****   hspi->RxXferCount--;
 5931              		.loc 1 3122 7
 5932 0024 7B68     		ldr	r3, [r7, #4]
 5933 0026 DB8F     		ldrh	r3, [r3, #62]	@ movhi
 5934 0028 9BB2     		uxth	r3, r3
ARM GAS  C:\Users\Alex\AppData\Local\Temp\ccfYuLQH.s 			page 159


 5935              		.loc 1 3122 20
 5936 002a 013B     		subs	r3, r3, #1
 5937 002c 9AB2     		uxth	r2, r3
 5938 002e 7B68     		ldr	r3, [r7, #4]
 5939 0030 DA87     		strh	r2, [r3, #62]	@ movhi
3123:Drivers/STM32F1xx_HAL_Driver/Src/stm32f1xx_hal_spi.c **** 
3124:Drivers/STM32F1xx_HAL_Driver/Src/stm32f1xx_hal_spi.c ****   /* Check end of the reception */
3125:Drivers/STM32F1xx_HAL_Driver/Src/stm32f1xx_hal_spi.c ****   if (hspi->RxXferCount == 0U)
 5940              		.loc 1 3125 11
 5941 0032 7B68     		ldr	r3, [r7, #4]
 5942 0034 DB8F     		ldrh	r3, [r3, #62]	@ movhi
 5943 0036 9BB2     		uxth	r3, r3
 5944              		.loc 1 3125 6
 5945 0038 002B     		cmp	r3, #0
 5946 003a 0FD1     		bne	.L290
3126:Drivers/STM32F1xx_HAL_Driver/Src/stm32f1xx_hal_spi.c ****   {
3127:Drivers/STM32F1xx_HAL_Driver/Src/stm32f1xx_hal_spi.c **** #if (USE_SPI_CRC != 0U)
3128:Drivers/STM32F1xx_HAL_Driver/Src/stm32f1xx_hal_spi.c ****     if (hspi->Init.CRCCalculation == SPI_CRCCALCULATION_ENABLE)
3129:Drivers/STM32F1xx_HAL_Driver/Src/stm32f1xx_hal_spi.c ****     {
3130:Drivers/STM32F1xx_HAL_Driver/Src/stm32f1xx_hal_spi.c ****       hspi->RxISR =  SPI_2linesRxISR_8BITCRC;
3131:Drivers/STM32F1xx_HAL_Driver/Src/stm32f1xx_hal_spi.c ****       return;
3132:Drivers/STM32F1xx_HAL_Driver/Src/stm32f1xx_hal_spi.c ****     }
3133:Drivers/STM32F1xx_HAL_Driver/Src/stm32f1xx_hal_spi.c **** #endif /* USE_SPI_CRC */
3134:Drivers/STM32F1xx_HAL_Driver/Src/stm32f1xx_hal_spi.c **** 
3135:Drivers/STM32F1xx_HAL_Driver/Src/stm32f1xx_hal_spi.c ****     /* Disable RXNE  and ERR interrupt */
3136:Drivers/STM32F1xx_HAL_Driver/Src/stm32f1xx_hal_spi.c ****     __HAL_SPI_DISABLE_IT(hspi, (SPI_IT_RXNE | SPI_IT_ERR));
 5947              		.loc 1 3136 5
 5948 003c 7B68     		ldr	r3, [r7, #4]
 5949 003e 1B68     		ldr	r3, [r3]
 5950 0040 5A68     		ldr	r2, [r3, #4]
 5951 0042 7B68     		ldr	r3, [r7, #4]
 5952 0044 1B68     		ldr	r3, [r3]
 5953 0046 22F06002 		bic	r2, r2, #96
 5954 004a 5A60     		str	r2, [r3, #4]
3137:Drivers/STM32F1xx_HAL_Driver/Src/stm32f1xx_hal_spi.c **** 
3138:Drivers/STM32F1xx_HAL_Driver/Src/stm32f1xx_hal_spi.c ****     if (hspi->TxXferCount == 0U)
 5955              		.loc 1 3138 13
 5956 004c 7B68     		ldr	r3, [r7, #4]
 5957 004e DB8E     		ldrh	r3, [r3, #54]	@ movhi
 5958 0050 9BB2     		uxth	r3, r3
 5959              		.loc 1 3138 8
 5960 0052 002B     		cmp	r3, #0
 5961 0054 02D1     		bne	.L290
3139:Drivers/STM32F1xx_HAL_Driver/Src/stm32f1xx_hal_spi.c ****     {
3140:Drivers/STM32F1xx_HAL_Driver/Src/stm32f1xx_hal_spi.c ****       SPI_CloseRxTx_ISR(hspi);
 5962              		.loc 1 3140 7
 5963 0056 7868     		ldr	r0, [r7, #4]
 5964 0058 FFF7FEFF 		bl	SPI_CloseRxTx_ISR
 5965              	.L290:
3141:Drivers/STM32F1xx_HAL_Driver/Src/stm32f1xx_hal_spi.c ****     }
3142:Drivers/STM32F1xx_HAL_Driver/Src/stm32f1xx_hal_spi.c ****   }
3143:Drivers/STM32F1xx_HAL_Driver/Src/stm32f1xx_hal_spi.c **** }
 5966              		.loc 1 3143 1
 5967 005c 00BF     		nop
 5968 005e 0837     		adds	r7, r7, #8
 5969              	.LCFI214:
 5970              		.cfi_def_cfa_offset 8
ARM GAS  C:\Users\Alex\AppData\Local\Temp\ccfYuLQH.s 			page 160


 5971 0060 BD46     		mov	sp, r7
 5972              	.LCFI215:
 5973              		.cfi_def_cfa_register 13
 5974              		@ sp needed
 5975 0062 80BD     		pop	{r7, pc}
 5976              		.cfi_endproc
 5977              	.LFE104:
 5979              		.section	.text.SPI_2linesTxISR_8BIT,"ax",%progbits
 5980              		.align	1
 5981              		.syntax unified
 5982              		.thumb
 5983              		.thumb_func
 5984              		.fpu softvfp
 5986              	SPI_2linesTxISR_8BIT:
 5987              	.LFB105:
3144:Drivers/STM32F1xx_HAL_Driver/Src/stm32f1xx_hal_spi.c **** 
3145:Drivers/STM32F1xx_HAL_Driver/Src/stm32f1xx_hal_spi.c **** #if (USE_SPI_CRC != 0U)
3146:Drivers/STM32F1xx_HAL_Driver/Src/stm32f1xx_hal_spi.c **** /**
3147:Drivers/STM32F1xx_HAL_Driver/Src/stm32f1xx_hal_spi.c ****   * @brief  Rx 8-bit handler for Transmit and Receive in Interrupt mode.
3148:Drivers/STM32F1xx_HAL_Driver/Src/stm32f1xx_hal_spi.c ****   * @param  hspi pointer to a SPI_HandleTypeDef structure that contains
3149:Drivers/STM32F1xx_HAL_Driver/Src/stm32f1xx_hal_spi.c ****   *               the configuration information for SPI module.
3150:Drivers/STM32F1xx_HAL_Driver/Src/stm32f1xx_hal_spi.c ****   * @retval None
3151:Drivers/STM32F1xx_HAL_Driver/Src/stm32f1xx_hal_spi.c ****   */
3152:Drivers/STM32F1xx_HAL_Driver/Src/stm32f1xx_hal_spi.c **** static void SPI_2linesRxISR_8BITCRC(struct __SPI_HandleTypeDef *hspi)
3153:Drivers/STM32F1xx_HAL_Driver/Src/stm32f1xx_hal_spi.c **** {
3154:Drivers/STM32F1xx_HAL_Driver/Src/stm32f1xx_hal_spi.c ****   /* Read 8bit CRC to flush Data Regsiter */
3155:Drivers/STM32F1xx_HAL_Driver/Src/stm32f1xx_hal_spi.c ****   READ_REG(*(__IO uint8_t *)&hspi->Instance->DR);
3156:Drivers/STM32F1xx_HAL_Driver/Src/stm32f1xx_hal_spi.c **** 
3157:Drivers/STM32F1xx_HAL_Driver/Src/stm32f1xx_hal_spi.c ****   /* Disable RXNE and ERR interrupt */
3158:Drivers/STM32F1xx_HAL_Driver/Src/stm32f1xx_hal_spi.c ****   __HAL_SPI_DISABLE_IT(hspi, (SPI_IT_RXNE | SPI_IT_ERR));
3159:Drivers/STM32F1xx_HAL_Driver/Src/stm32f1xx_hal_spi.c **** 
3160:Drivers/STM32F1xx_HAL_Driver/Src/stm32f1xx_hal_spi.c ****   if (hspi->TxXferCount == 0U)
3161:Drivers/STM32F1xx_HAL_Driver/Src/stm32f1xx_hal_spi.c ****   {
3162:Drivers/STM32F1xx_HAL_Driver/Src/stm32f1xx_hal_spi.c ****     SPI_CloseRxTx_ISR(hspi);
3163:Drivers/STM32F1xx_HAL_Driver/Src/stm32f1xx_hal_spi.c ****   }
3164:Drivers/STM32F1xx_HAL_Driver/Src/stm32f1xx_hal_spi.c **** }
3165:Drivers/STM32F1xx_HAL_Driver/Src/stm32f1xx_hal_spi.c **** #endif /* USE_SPI_CRC */
3166:Drivers/STM32F1xx_HAL_Driver/Src/stm32f1xx_hal_spi.c **** 
3167:Drivers/STM32F1xx_HAL_Driver/Src/stm32f1xx_hal_spi.c **** /**
3168:Drivers/STM32F1xx_HAL_Driver/Src/stm32f1xx_hal_spi.c ****   * @brief  Tx 8-bit handler for Transmit and Receive in Interrupt mode.
3169:Drivers/STM32F1xx_HAL_Driver/Src/stm32f1xx_hal_spi.c ****   * @param  hspi pointer to a SPI_HandleTypeDef structure that contains
3170:Drivers/STM32F1xx_HAL_Driver/Src/stm32f1xx_hal_spi.c ****   *               the configuration information for SPI module.
3171:Drivers/STM32F1xx_HAL_Driver/Src/stm32f1xx_hal_spi.c ****   * @retval None
3172:Drivers/STM32F1xx_HAL_Driver/Src/stm32f1xx_hal_spi.c ****   */
3173:Drivers/STM32F1xx_HAL_Driver/Src/stm32f1xx_hal_spi.c **** static void SPI_2linesTxISR_8BIT(struct __SPI_HandleTypeDef *hspi)
3174:Drivers/STM32F1xx_HAL_Driver/Src/stm32f1xx_hal_spi.c **** {
 5988              		.loc 1 3174 1
 5989              		.cfi_startproc
 5990              		@ args = 0, pretend = 0, frame = 8
 5991              		@ frame_needed = 1, uses_anonymous_args = 0
 5992 0000 80B5     		push	{r7, lr}
 5993              	.LCFI216:
 5994              		.cfi_def_cfa_offset 8
 5995              		.cfi_offset 7, -8
 5996              		.cfi_offset 14, -4
 5997 0002 82B0     		sub	sp, sp, #8
 5998              	.LCFI217:
ARM GAS  C:\Users\Alex\AppData\Local\Temp\ccfYuLQH.s 			page 161


 5999              		.cfi_def_cfa_offset 16
 6000 0004 00AF     		add	r7, sp, #0
 6001              	.LCFI218:
 6002              		.cfi_def_cfa_register 7
 6003 0006 7860     		str	r0, [r7, #4]
3175:Drivers/STM32F1xx_HAL_Driver/Src/stm32f1xx_hal_spi.c ****   *(__IO uint8_t *)&hspi->Instance->DR = (*hspi->pTxBuffPtr);
 6004              		.loc 1 3175 48
 6005 0008 7B68     		ldr	r3, [r7, #4]
 6006 000a 1A6B     		ldr	r2, [r3, #48]
 6007              		.loc 1 3175 25
 6008 000c 7B68     		ldr	r3, [r7, #4]
 6009 000e 1B68     		ldr	r3, [r3]
 6010              		.loc 1 3175 20
 6011 0010 0C33     		adds	r3, r3, #12
 6012              		.loc 1 3175 43
 6013 0012 1278     		ldrb	r2, [r2]	@ zero_extendqisi2
 6014              		.loc 1 3175 40
 6015 0014 1A70     		strb	r2, [r3]
3176:Drivers/STM32F1xx_HAL_Driver/Src/stm32f1xx_hal_spi.c ****   hspi->pTxBuffPtr++;
 6016              		.loc 1 3176 7
 6017 0016 7B68     		ldr	r3, [r7, #4]
 6018 0018 1B6B     		ldr	r3, [r3, #48]
 6019              		.loc 1 3176 19
 6020 001a 5A1C     		adds	r2, r3, #1
 6021 001c 7B68     		ldr	r3, [r7, #4]
 6022 001e 1A63     		str	r2, [r3, #48]
3177:Drivers/STM32F1xx_HAL_Driver/Src/stm32f1xx_hal_spi.c ****   hspi->TxXferCount--;
 6023              		.loc 1 3177 7
 6024 0020 7B68     		ldr	r3, [r7, #4]
 6025 0022 DB8E     		ldrh	r3, [r3, #54]	@ movhi
 6026 0024 9BB2     		uxth	r3, r3
 6027              		.loc 1 3177 20
 6028 0026 013B     		subs	r3, r3, #1
 6029 0028 9AB2     		uxth	r2, r3
 6030 002a 7B68     		ldr	r3, [r7, #4]
 6031 002c DA86     		strh	r2, [r3, #54]	@ movhi
3178:Drivers/STM32F1xx_HAL_Driver/Src/stm32f1xx_hal_spi.c **** 
3179:Drivers/STM32F1xx_HAL_Driver/Src/stm32f1xx_hal_spi.c ****   /* Check the end of the transmission */
3180:Drivers/STM32F1xx_HAL_Driver/Src/stm32f1xx_hal_spi.c ****   if (hspi->TxXferCount == 0U)
 6032              		.loc 1 3180 11
 6033 002e 7B68     		ldr	r3, [r7, #4]
 6034 0030 DB8E     		ldrh	r3, [r3, #54]	@ movhi
 6035 0032 9BB2     		uxth	r3, r3
 6036              		.loc 1 3180 6
 6037 0034 002B     		cmp	r3, #0
 6038 0036 0FD1     		bne	.L293
3181:Drivers/STM32F1xx_HAL_Driver/Src/stm32f1xx_hal_spi.c ****   {
3182:Drivers/STM32F1xx_HAL_Driver/Src/stm32f1xx_hal_spi.c **** #if (USE_SPI_CRC != 0U)
3183:Drivers/STM32F1xx_HAL_Driver/Src/stm32f1xx_hal_spi.c ****     if (hspi->Init.CRCCalculation == SPI_CRCCALCULATION_ENABLE)
3184:Drivers/STM32F1xx_HAL_Driver/Src/stm32f1xx_hal_spi.c ****     {
3185:Drivers/STM32F1xx_HAL_Driver/Src/stm32f1xx_hal_spi.c ****       /* Set CRC Next Bit to send CRC */
3186:Drivers/STM32F1xx_HAL_Driver/Src/stm32f1xx_hal_spi.c ****       SET_BIT(hspi->Instance->CR1, SPI_CR1_CRCNEXT);
3187:Drivers/STM32F1xx_HAL_Driver/Src/stm32f1xx_hal_spi.c ****       /* Disable TXE interrupt */
3188:Drivers/STM32F1xx_HAL_Driver/Src/stm32f1xx_hal_spi.c ****       __HAL_SPI_DISABLE_IT(hspi, SPI_IT_TXE);
3189:Drivers/STM32F1xx_HAL_Driver/Src/stm32f1xx_hal_spi.c ****       return;
3190:Drivers/STM32F1xx_HAL_Driver/Src/stm32f1xx_hal_spi.c ****     }
3191:Drivers/STM32F1xx_HAL_Driver/Src/stm32f1xx_hal_spi.c **** #endif /* USE_SPI_CRC */
ARM GAS  C:\Users\Alex\AppData\Local\Temp\ccfYuLQH.s 			page 162


3192:Drivers/STM32F1xx_HAL_Driver/Src/stm32f1xx_hal_spi.c **** 
3193:Drivers/STM32F1xx_HAL_Driver/Src/stm32f1xx_hal_spi.c ****     /* Disable TXE interrupt */
3194:Drivers/STM32F1xx_HAL_Driver/Src/stm32f1xx_hal_spi.c ****     __HAL_SPI_DISABLE_IT(hspi, SPI_IT_TXE);
 6039              		.loc 1 3194 5
 6040 0038 7B68     		ldr	r3, [r7, #4]
 6041 003a 1B68     		ldr	r3, [r3]
 6042 003c 5A68     		ldr	r2, [r3, #4]
 6043 003e 7B68     		ldr	r3, [r7, #4]
 6044 0040 1B68     		ldr	r3, [r3]
 6045 0042 22F08002 		bic	r2, r2, #128
 6046 0046 5A60     		str	r2, [r3, #4]
3195:Drivers/STM32F1xx_HAL_Driver/Src/stm32f1xx_hal_spi.c **** 
3196:Drivers/STM32F1xx_HAL_Driver/Src/stm32f1xx_hal_spi.c ****     if (hspi->RxXferCount == 0U)
 6047              		.loc 1 3196 13
 6048 0048 7B68     		ldr	r3, [r7, #4]
 6049 004a DB8F     		ldrh	r3, [r3, #62]	@ movhi
 6050 004c 9BB2     		uxth	r3, r3
 6051              		.loc 1 3196 8
 6052 004e 002B     		cmp	r3, #0
 6053 0050 02D1     		bne	.L293
3197:Drivers/STM32F1xx_HAL_Driver/Src/stm32f1xx_hal_spi.c ****     {
3198:Drivers/STM32F1xx_HAL_Driver/Src/stm32f1xx_hal_spi.c ****       SPI_CloseRxTx_ISR(hspi);
 6054              		.loc 1 3198 7
 6055 0052 7868     		ldr	r0, [r7, #4]
 6056 0054 FFF7FEFF 		bl	SPI_CloseRxTx_ISR
 6057              	.L293:
3199:Drivers/STM32F1xx_HAL_Driver/Src/stm32f1xx_hal_spi.c ****     }
3200:Drivers/STM32F1xx_HAL_Driver/Src/stm32f1xx_hal_spi.c ****   }
3201:Drivers/STM32F1xx_HAL_Driver/Src/stm32f1xx_hal_spi.c **** }
 6058              		.loc 1 3201 1
 6059 0058 00BF     		nop
 6060 005a 0837     		adds	r7, r7, #8
 6061              	.LCFI219:
 6062              		.cfi_def_cfa_offset 8
 6063 005c BD46     		mov	sp, r7
 6064              	.LCFI220:
 6065              		.cfi_def_cfa_register 13
 6066              		@ sp needed
 6067 005e 80BD     		pop	{r7, pc}
 6068              		.cfi_endproc
 6069              	.LFE105:
 6071              		.section	.text.SPI_2linesRxISR_16BIT,"ax",%progbits
 6072              		.align	1
 6073              		.syntax unified
 6074              		.thumb
 6075              		.thumb_func
 6076              		.fpu softvfp
 6078              	SPI_2linesRxISR_16BIT:
 6079              	.LFB106:
3202:Drivers/STM32F1xx_HAL_Driver/Src/stm32f1xx_hal_spi.c **** 
3203:Drivers/STM32F1xx_HAL_Driver/Src/stm32f1xx_hal_spi.c **** /**
3204:Drivers/STM32F1xx_HAL_Driver/Src/stm32f1xx_hal_spi.c ****   * @brief  Rx 16-bit handler for Transmit and Receive in Interrupt mode.
3205:Drivers/STM32F1xx_HAL_Driver/Src/stm32f1xx_hal_spi.c ****   * @param  hspi pointer to a SPI_HandleTypeDef structure that contains
3206:Drivers/STM32F1xx_HAL_Driver/Src/stm32f1xx_hal_spi.c ****   *               the configuration information for SPI module.
3207:Drivers/STM32F1xx_HAL_Driver/Src/stm32f1xx_hal_spi.c ****   * @retval None
3208:Drivers/STM32F1xx_HAL_Driver/Src/stm32f1xx_hal_spi.c ****   */
3209:Drivers/STM32F1xx_HAL_Driver/Src/stm32f1xx_hal_spi.c **** static void SPI_2linesRxISR_16BIT(struct __SPI_HandleTypeDef *hspi)
ARM GAS  C:\Users\Alex\AppData\Local\Temp\ccfYuLQH.s 			page 163


3210:Drivers/STM32F1xx_HAL_Driver/Src/stm32f1xx_hal_spi.c **** {
 6080              		.loc 1 3210 1
 6081              		.cfi_startproc
 6082              		@ args = 0, pretend = 0, frame = 8
 6083              		@ frame_needed = 1, uses_anonymous_args = 0
 6084 0000 80B5     		push	{r7, lr}
 6085              	.LCFI221:
 6086              		.cfi_def_cfa_offset 8
 6087              		.cfi_offset 7, -8
 6088              		.cfi_offset 14, -4
 6089 0002 82B0     		sub	sp, sp, #8
 6090              	.LCFI222:
 6091              		.cfi_def_cfa_offset 16
 6092 0004 00AF     		add	r7, sp, #0
 6093              	.LCFI223:
 6094              		.cfi_def_cfa_register 7
 6095 0006 7860     		str	r0, [r7, #4]
3211:Drivers/STM32F1xx_HAL_Driver/Src/stm32f1xx_hal_spi.c ****   /* Receive data in 16 Bit mode */
3212:Drivers/STM32F1xx_HAL_Driver/Src/stm32f1xx_hal_spi.c ****   *((uint16_t *)hspi->pRxBuffPtr) = (uint16_t)(hspi->Instance->DR);
 6096              		.loc 1 3212 52
 6097 0008 7B68     		ldr	r3, [r7, #4]
 6098 000a 1B68     		ldr	r3, [r3]
 6099              		.loc 1 3212 62
 6100 000c DA68     		ldr	r2, [r3, #12]
 6101              		.loc 1 3212 21
 6102 000e 7B68     		ldr	r3, [r7, #4]
 6103 0010 9B6B     		ldr	r3, [r3, #56]
 6104              		.loc 1 3212 37
 6105 0012 92B2     		uxth	r2, r2
 6106              		.loc 1 3212 35
 6107 0014 1A80     		strh	r2, [r3]	@ movhi
3213:Drivers/STM32F1xx_HAL_Driver/Src/stm32f1xx_hal_spi.c ****   hspi->pRxBuffPtr += sizeof(uint16_t);
 6108              		.loc 1 3213 20
 6109 0016 7B68     		ldr	r3, [r7, #4]
 6110 0018 9B6B     		ldr	r3, [r3, #56]
 6111 001a 9A1C     		adds	r2, r3, #2
 6112 001c 7B68     		ldr	r3, [r7, #4]
 6113 001e 9A63     		str	r2, [r3, #56]
3214:Drivers/STM32F1xx_HAL_Driver/Src/stm32f1xx_hal_spi.c ****   hspi->RxXferCount--;
 6114              		.loc 1 3214 7
 6115 0020 7B68     		ldr	r3, [r7, #4]
 6116 0022 DB8F     		ldrh	r3, [r3, #62]	@ movhi
 6117 0024 9BB2     		uxth	r3, r3
 6118              		.loc 1 3214 20
 6119 0026 013B     		subs	r3, r3, #1
 6120 0028 9AB2     		uxth	r2, r3
 6121 002a 7B68     		ldr	r3, [r7, #4]
 6122 002c DA87     		strh	r2, [r3, #62]	@ movhi
3215:Drivers/STM32F1xx_HAL_Driver/Src/stm32f1xx_hal_spi.c **** 
3216:Drivers/STM32F1xx_HAL_Driver/Src/stm32f1xx_hal_spi.c ****   if (hspi->RxXferCount == 0U)
 6123              		.loc 1 3216 11
 6124 002e 7B68     		ldr	r3, [r7, #4]
 6125 0030 DB8F     		ldrh	r3, [r3, #62]	@ movhi
 6126 0032 9BB2     		uxth	r3, r3
 6127              		.loc 1 3216 6
 6128 0034 002B     		cmp	r3, #0
 6129 0036 0FD1     		bne	.L296
ARM GAS  C:\Users\Alex\AppData\Local\Temp\ccfYuLQH.s 			page 164


3217:Drivers/STM32F1xx_HAL_Driver/Src/stm32f1xx_hal_spi.c ****   {
3218:Drivers/STM32F1xx_HAL_Driver/Src/stm32f1xx_hal_spi.c **** #if (USE_SPI_CRC != 0U)
3219:Drivers/STM32F1xx_HAL_Driver/Src/stm32f1xx_hal_spi.c ****     if (hspi->Init.CRCCalculation == SPI_CRCCALCULATION_ENABLE)
3220:Drivers/STM32F1xx_HAL_Driver/Src/stm32f1xx_hal_spi.c ****     {
3221:Drivers/STM32F1xx_HAL_Driver/Src/stm32f1xx_hal_spi.c ****       hspi->RxISR =  SPI_2linesRxISR_16BITCRC;
3222:Drivers/STM32F1xx_HAL_Driver/Src/stm32f1xx_hal_spi.c ****       return;
3223:Drivers/STM32F1xx_HAL_Driver/Src/stm32f1xx_hal_spi.c ****     }
3224:Drivers/STM32F1xx_HAL_Driver/Src/stm32f1xx_hal_spi.c **** #endif /* USE_SPI_CRC */
3225:Drivers/STM32F1xx_HAL_Driver/Src/stm32f1xx_hal_spi.c **** 
3226:Drivers/STM32F1xx_HAL_Driver/Src/stm32f1xx_hal_spi.c ****     /* Disable RXNE interrupt */
3227:Drivers/STM32F1xx_HAL_Driver/Src/stm32f1xx_hal_spi.c ****     __HAL_SPI_DISABLE_IT(hspi, SPI_IT_RXNE);
 6130              		.loc 1 3227 5
 6131 0038 7B68     		ldr	r3, [r7, #4]
 6132 003a 1B68     		ldr	r3, [r3]
 6133 003c 5A68     		ldr	r2, [r3, #4]
 6134 003e 7B68     		ldr	r3, [r7, #4]
 6135 0040 1B68     		ldr	r3, [r3]
 6136 0042 22F04002 		bic	r2, r2, #64
 6137 0046 5A60     		str	r2, [r3, #4]
3228:Drivers/STM32F1xx_HAL_Driver/Src/stm32f1xx_hal_spi.c **** 
3229:Drivers/STM32F1xx_HAL_Driver/Src/stm32f1xx_hal_spi.c ****     if (hspi->TxXferCount == 0U)
 6138              		.loc 1 3229 13
 6139 0048 7B68     		ldr	r3, [r7, #4]
 6140 004a DB8E     		ldrh	r3, [r3, #54]	@ movhi
 6141 004c 9BB2     		uxth	r3, r3
 6142              		.loc 1 3229 8
 6143 004e 002B     		cmp	r3, #0
 6144 0050 02D1     		bne	.L296
3230:Drivers/STM32F1xx_HAL_Driver/Src/stm32f1xx_hal_spi.c ****     {
3231:Drivers/STM32F1xx_HAL_Driver/Src/stm32f1xx_hal_spi.c ****       SPI_CloseRxTx_ISR(hspi);
 6145              		.loc 1 3231 7
 6146 0052 7868     		ldr	r0, [r7, #4]
 6147 0054 FFF7FEFF 		bl	SPI_CloseRxTx_ISR
 6148              	.L296:
3232:Drivers/STM32F1xx_HAL_Driver/Src/stm32f1xx_hal_spi.c ****     }
3233:Drivers/STM32F1xx_HAL_Driver/Src/stm32f1xx_hal_spi.c ****   }
3234:Drivers/STM32F1xx_HAL_Driver/Src/stm32f1xx_hal_spi.c **** }
 6149              		.loc 1 3234 1
 6150 0058 00BF     		nop
 6151 005a 0837     		adds	r7, r7, #8
 6152              	.LCFI224:
 6153              		.cfi_def_cfa_offset 8
 6154 005c BD46     		mov	sp, r7
 6155              	.LCFI225:
 6156              		.cfi_def_cfa_register 13
 6157              		@ sp needed
 6158 005e 80BD     		pop	{r7, pc}
 6159              		.cfi_endproc
 6160              	.LFE106:
 6162              		.section	.text.SPI_2linesTxISR_16BIT,"ax",%progbits
 6163              		.align	1
 6164              		.syntax unified
 6165              		.thumb
 6166              		.thumb_func
 6167              		.fpu softvfp
 6169              	SPI_2linesTxISR_16BIT:
 6170              	.LFB107:
ARM GAS  C:\Users\Alex\AppData\Local\Temp\ccfYuLQH.s 			page 165


3235:Drivers/STM32F1xx_HAL_Driver/Src/stm32f1xx_hal_spi.c **** 
3236:Drivers/STM32F1xx_HAL_Driver/Src/stm32f1xx_hal_spi.c **** #if (USE_SPI_CRC != 0U)
3237:Drivers/STM32F1xx_HAL_Driver/Src/stm32f1xx_hal_spi.c **** /**
3238:Drivers/STM32F1xx_HAL_Driver/Src/stm32f1xx_hal_spi.c ****   * @brief  Manage the CRC 16-bit receive for Transmit and Receive in Interrupt mode.
3239:Drivers/STM32F1xx_HAL_Driver/Src/stm32f1xx_hal_spi.c ****   * @param  hspi pointer to a SPI_HandleTypeDef structure that contains
3240:Drivers/STM32F1xx_HAL_Driver/Src/stm32f1xx_hal_spi.c ****   *               the configuration information for SPI module.
3241:Drivers/STM32F1xx_HAL_Driver/Src/stm32f1xx_hal_spi.c ****   * @retval None
3242:Drivers/STM32F1xx_HAL_Driver/Src/stm32f1xx_hal_spi.c ****   */
3243:Drivers/STM32F1xx_HAL_Driver/Src/stm32f1xx_hal_spi.c **** static void SPI_2linesRxISR_16BITCRC(struct __SPI_HandleTypeDef *hspi)
3244:Drivers/STM32F1xx_HAL_Driver/Src/stm32f1xx_hal_spi.c **** {
3245:Drivers/STM32F1xx_HAL_Driver/Src/stm32f1xx_hal_spi.c ****   /* Read 16bit CRC to flush Data Regsiter */
3246:Drivers/STM32F1xx_HAL_Driver/Src/stm32f1xx_hal_spi.c ****   READ_REG(hspi->Instance->DR);
3247:Drivers/STM32F1xx_HAL_Driver/Src/stm32f1xx_hal_spi.c **** 
3248:Drivers/STM32F1xx_HAL_Driver/Src/stm32f1xx_hal_spi.c ****   /* Disable RXNE interrupt */
3249:Drivers/STM32F1xx_HAL_Driver/Src/stm32f1xx_hal_spi.c ****   __HAL_SPI_DISABLE_IT(hspi, SPI_IT_RXNE);
3250:Drivers/STM32F1xx_HAL_Driver/Src/stm32f1xx_hal_spi.c **** 
3251:Drivers/STM32F1xx_HAL_Driver/Src/stm32f1xx_hal_spi.c ****   SPI_CloseRxTx_ISR(hspi);
3252:Drivers/STM32F1xx_HAL_Driver/Src/stm32f1xx_hal_spi.c **** }
3253:Drivers/STM32F1xx_HAL_Driver/Src/stm32f1xx_hal_spi.c **** #endif /* USE_SPI_CRC */
3254:Drivers/STM32F1xx_HAL_Driver/Src/stm32f1xx_hal_spi.c **** 
3255:Drivers/STM32F1xx_HAL_Driver/Src/stm32f1xx_hal_spi.c **** /**
3256:Drivers/STM32F1xx_HAL_Driver/Src/stm32f1xx_hal_spi.c ****   * @brief  Tx 16-bit handler for Transmit and Receive in Interrupt mode.
3257:Drivers/STM32F1xx_HAL_Driver/Src/stm32f1xx_hal_spi.c ****   * @param  hspi pointer to a SPI_HandleTypeDef structure that contains
3258:Drivers/STM32F1xx_HAL_Driver/Src/stm32f1xx_hal_spi.c ****   *               the configuration information for SPI module.
3259:Drivers/STM32F1xx_HAL_Driver/Src/stm32f1xx_hal_spi.c ****   * @retval None
3260:Drivers/STM32F1xx_HAL_Driver/Src/stm32f1xx_hal_spi.c ****   */
3261:Drivers/STM32F1xx_HAL_Driver/Src/stm32f1xx_hal_spi.c **** static void SPI_2linesTxISR_16BIT(struct __SPI_HandleTypeDef *hspi)
3262:Drivers/STM32F1xx_HAL_Driver/Src/stm32f1xx_hal_spi.c **** {
 6171              		.loc 1 3262 1
 6172              		.cfi_startproc
 6173              		@ args = 0, pretend = 0, frame = 8
 6174              		@ frame_needed = 1, uses_anonymous_args = 0
 6175 0000 80B5     		push	{r7, lr}
 6176              	.LCFI226:
 6177              		.cfi_def_cfa_offset 8
 6178              		.cfi_offset 7, -8
 6179              		.cfi_offset 14, -4
 6180 0002 82B0     		sub	sp, sp, #8
 6181              	.LCFI227:
 6182              		.cfi_def_cfa_offset 16
 6183 0004 00AF     		add	r7, sp, #0
 6184              	.LCFI228:
 6185              		.cfi_def_cfa_register 7
 6186 0006 7860     		str	r0, [r7, #4]
3263:Drivers/STM32F1xx_HAL_Driver/Src/stm32f1xx_hal_spi.c ****   /* Transmit data in 16 Bit mode */
3264:Drivers/STM32F1xx_HAL_Driver/Src/stm32f1xx_hal_spi.c ****   hspi->Instance->DR = *((uint16_t *)hspi->pTxBuffPtr);
 6187              		.loc 1 3264 42
 6188 0008 7B68     		ldr	r3, [r7, #4]
 6189 000a 1B6B     		ldr	r3, [r3, #48]
 6190              		.loc 1 3264 24
 6191 000c 1A88     		ldrh	r2, [r3]
 6192              		.loc 1 3264 7
 6193 000e 7B68     		ldr	r3, [r7, #4]
 6194 0010 1B68     		ldr	r3, [r3]
 6195              		.loc 1 3264 22
 6196 0012 DA60     		str	r2, [r3, #12]
3265:Drivers/STM32F1xx_HAL_Driver/Src/stm32f1xx_hal_spi.c ****   hspi->pTxBuffPtr += sizeof(uint16_t);
ARM GAS  C:\Users\Alex\AppData\Local\Temp\ccfYuLQH.s 			page 166


 6197              		.loc 1 3265 20
 6198 0014 7B68     		ldr	r3, [r7, #4]
 6199 0016 1B6B     		ldr	r3, [r3, #48]
 6200 0018 9A1C     		adds	r2, r3, #2
 6201 001a 7B68     		ldr	r3, [r7, #4]
 6202 001c 1A63     		str	r2, [r3, #48]
3266:Drivers/STM32F1xx_HAL_Driver/Src/stm32f1xx_hal_spi.c ****   hspi->TxXferCount--;
 6203              		.loc 1 3266 7
 6204 001e 7B68     		ldr	r3, [r7, #4]
 6205 0020 DB8E     		ldrh	r3, [r3, #54]	@ movhi
 6206 0022 9BB2     		uxth	r3, r3
 6207              		.loc 1 3266 20
 6208 0024 013B     		subs	r3, r3, #1
 6209 0026 9AB2     		uxth	r2, r3
 6210 0028 7B68     		ldr	r3, [r7, #4]
 6211 002a DA86     		strh	r2, [r3, #54]	@ movhi
3267:Drivers/STM32F1xx_HAL_Driver/Src/stm32f1xx_hal_spi.c **** 
3268:Drivers/STM32F1xx_HAL_Driver/Src/stm32f1xx_hal_spi.c ****   /* Enable CRC Transmission */
3269:Drivers/STM32F1xx_HAL_Driver/Src/stm32f1xx_hal_spi.c ****   if (hspi->TxXferCount == 0U)
 6212              		.loc 1 3269 11
 6213 002c 7B68     		ldr	r3, [r7, #4]
 6214 002e DB8E     		ldrh	r3, [r3, #54]	@ movhi
 6215 0030 9BB2     		uxth	r3, r3
 6216              		.loc 1 3269 6
 6217 0032 002B     		cmp	r3, #0
 6218 0034 0FD1     		bne	.L299
3270:Drivers/STM32F1xx_HAL_Driver/Src/stm32f1xx_hal_spi.c ****   {
3271:Drivers/STM32F1xx_HAL_Driver/Src/stm32f1xx_hal_spi.c **** #if (USE_SPI_CRC != 0U)
3272:Drivers/STM32F1xx_HAL_Driver/Src/stm32f1xx_hal_spi.c ****     if (hspi->Init.CRCCalculation == SPI_CRCCALCULATION_ENABLE)
3273:Drivers/STM32F1xx_HAL_Driver/Src/stm32f1xx_hal_spi.c ****     {
3274:Drivers/STM32F1xx_HAL_Driver/Src/stm32f1xx_hal_spi.c ****       /* Set CRC Next Bit to send CRC */
3275:Drivers/STM32F1xx_HAL_Driver/Src/stm32f1xx_hal_spi.c ****       SET_BIT(hspi->Instance->CR1, SPI_CR1_CRCNEXT);
3276:Drivers/STM32F1xx_HAL_Driver/Src/stm32f1xx_hal_spi.c ****       /* Disable TXE interrupt */
3277:Drivers/STM32F1xx_HAL_Driver/Src/stm32f1xx_hal_spi.c ****       __HAL_SPI_DISABLE_IT(hspi, SPI_IT_TXE);
3278:Drivers/STM32F1xx_HAL_Driver/Src/stm32f1xx_hal_spi.c ****       return;
3279:Drivers/STM32F1xx_HAL_Driver/Src/stm32f1xx_hal_spi.c ****     }
3280:Drivers/STM32F1xx_HAL_Driver/Src/stm32f1xx_hal_spi.c **** #endif /* USE_SPI_CRC */
3281:Drivers/STM32F1xx_HAL_Driver/Src/stm32f1xx_hal_spi.c **** 
3282:Drivers/STM32F1xx_HAL_Driver/Src/stm32f1xx_hal_spi.c ****     /* Disable TXE interrupt */
3283:Drivers/STM32F1xx_HAL_Driver/Src/stm32f1xx_hal_spi.c ****     __HAL_SPI_DISABLE_IT(hspi, SPI_IT_TXE);
 6219              		.loc 1 3283 5
 6220 0036 7B68     		ldr	r3, [r7, #4]
 6221 0038 1B68     		ldr	r3, [r3]
 6222 003a 5A68     		ldr	r2, [r3, #4]
 6223 003c 7B68     		ldr	r3, [r7, #4]
 6224 003e 1B68     		ldr	r3, [r3]
 6225 0040 22F08002 		bic	r2, r2, #128
 6226 0044 5A60     		str	r2, [r3, #4]
3284:Drivers/STM32F1xx_HAL_Driver/Src/stm32f1xx_hal_spi.c **** 
3285:Drivers/STM32F1xx_HAL_Driver/Src/stm32f1xx_hal_spi.c ****     if (hspi->RxXferCount == 0U)
 6227              		.loc 1 3285 13
 6228 0046 7B68     		ldr	r3, [r7, #4]
 6229 0048 DB8F     		ldrh	r3, [r3, #62]	@ movhi
 6230 004a 9BB2     		uxth	r3, r3
 6231              		.loc 1 3285 8
 6232 004c 002B     		cmp	r3, #0
 6233 004e 02D1     		bne	.L299
ARM GAS  C:\Users\Alex\AppData\Local\Temp\ccfYuLQH.s 			page 167


3286:Drivers/STM32F1xx_HAL_Driver/Src/stm32f1xx_hal_spi.c ****     {
3287:Drivers/STM32F1xx_HAL_Driver/Src/stm32f1xx_hal_spi.c ****       SPI_CloseRxTx_ISR(hspi);
 6234              		.loc 1 3287 7
 6235 0050 7868     		ldr	r0, [r7, #4]
 6236 0052 FFF7FEFF 		bl	SPI_CloseRxTx_ISR
 6237              	.L299:
3288:Drivers/STM32F1xx_HAL_Driver/Src/stm32f1xx_hal_spi.c ****     }
3289:Drivers/STM32F1xx_HAL_Driver/Src/stm32f1xx_hal_spi.c ****   }
3290:Drivers/STM32F1xx_HAL_Driver/Src/stm32f1xx_hal_spi.c **** }
 6238              		.loc 1 3290 1
 6239 0056 00BF     		nop
 6240 0058 0837     		adds	r7, r7, #8
 6241              	.LCFI229:
 6242              		.cfi_def_cfa_offset 8
 6243 005a BD46     		mov	sp, r7
 6244              	.LCFI230:
 6245              		.cfi_def_cfa_register 13
 6246              		@ sp needed
 6247 005c 80BD     		pop	{r7, pc}
 6248              		.cfi_endproc
 6249              	.LFE107:
 6251              		.section	.text.SPI_RxISR_8BIT,"ax",%progbits
 6252              		.align	1
 6253              		.syntax unified
 6254              		.thumb
 6255              		.thumb_func
 6256              		.fpu softvfp
 6258              	SPI_RxISR_8BIT:
 6259              	.LFB108:
3291:Drivers/STM32F1xx_HAL_Driver/Src/stm32f1xx_hal_spi.c **** 
3292:Drivers/STM32F1xx_HAL_Driver/Src/stm32f1xx_hal_spi.c **** #if (USE_SPI_CRC != 0U)
3293:Drivers/STM32F1xx_HAL_Driver/Src/stm32f1xx_hal_spi.c **** /**
3294:Drivers/STM32F1xx_HAL_Driver/Src/stm32f1xx_hal_spi.c ****   * @brief  Manage the CRC 8-bit receive in Interrupt context.
3295:Drivers/STM32F1xx_HAL_Driver/Src/stm32f1xx_hal_spi.c ****   * @param  hspi pointer to a SPI_HandleTypeDef structure that contains
3296:Drivers/STM32F1xx_HAL_Driver/Src/stm32f1xx_hal_spi.c ****   *               the configuration information for SPI module.
3297:Drivers/STM32F1xx_HAL_Driver/Src/stm32f1xx_hal_spi.c ****   * @retval None
3298:Drivers/STM32F1xx_HAL_Driver/Src/stm32f1xx_hal_spi.c ****   */
3299:Drivers/STM32F1xx_HAL_Driver/Src/stm32f1xx_hal_spi.c **** static void SPI_RxISR_8BITCRC(struct __SPI_HandleTypeDef *hspi)
3300:Drivers/STM32F1xx_HAL_Driver/Src/stm32f1xx_hal_spi.c **** {
3301:Drivers/STM32F1xx_HAL_Driver/Src/stm32f1xx_hal_spi.c ****   /* Read 8bit CRC to flush Data Register */
3302:Drivers/STM32F1xx_HAL_Driver/Src/stm32f1xx_hal_spi.c ****   READ_REG(*(__IO uint8_t *)&hspi->Instance->DR);
3303:Drivers/STM32F1xx_HAL_Driver/Src/stm32f1xx_hal_spi.c **** 
3304:Drivers/STM32F1xx_HAL_Driver/Src/stm32f1xx_hal_spi.c ****   SPI_CloseRx_ISR(hspi);
3305:Drivers/STM32F1xx_HAL_Driver/Src/stm32f1xx_hal_spi.c **** }
3306:Drivers/STM32F1xx_HAL_Driver/Src/stm32f1xx_hal_spi.c **** #endif /* USE_SPI_CRC */
3307:Drivers/STM32F1xx_HAL_Driver/Src/stm32f1xx_hal_spi.c **** 
3308:Drivers/STM32F1xx_HAL_Driver/Src/stm32f1xx_hal_spi.c **** /**
3309:Drivers/STM32F1xx_HAL_Driver/Src/stm32f1xx_hal_spi.c ****   * @brief  Manage the receive 8-bit in Interrupt context.
3310:Drivers/STM32F1xx_HAL_Driver/Src/stm32f1xx_hal_spi.c ****   * @param  hspi pointer to a SPI_HandleTypeDef structure that contains
3311:Drivers/STM32F1xx_HAL_Driver/Src/stm32f1xx_hal_spi.c ****   *               the configuration information for SPI module.
3312:Drivers/STM32F1xx_HAL_Driver/Src/stm32f1xx_hal_spi.c ****   * @retval None
3313:Drivers/STM32F1xx_HAL_Driver/Src/stm32f1xx_hal_spi.c ****   */
3314:Drivers/STM32F1xx_HAL_Driver/Src/stm32f1xx_hal_spi.c **** static void SPI_RxISR_8BIT(struct __SPI_HandleTypeDef *hspi)
3315:Drivers/STM32F1xx_HAL_Driver/Src/stm32f1xx_hal_spi.c **** {
 6260              		.loc 1 3315 1
 6261              		.cfi_startproc
 6262              		@ args = 0, pretend = 0, frame = 8
ARM GAS  C:\Users\Alex\AppData\Local\Temp\ccfYuLQH.s 			page 168


 6263              		@ frame_needed = 1, uses_anonymous_args = 0
 6264 0000 80B5     		push	{r7, lr}
 6265              	.LCFI231:
 6266              		.cfi_def_cfa_offset 8
 6267              		.cfi_offset 7, -8
 6268              		.cfi_offset 14, -4
 6269 0002 82B0     		sub	sp, sp, #8
 6270              	.LCFI232:
 6271              		.cfi_def_cfa_offset 16
 6272 0004 00AF     		add	r7, sp, #0
 6273              	.LCFI233:
 6274              		.cfi_def_cfa_register 7
 6275 0006 7860     		str	r0, [r7, #4]
3316:Drivers/STM32F1xx_HAL_Driver/Src/stm32f1xx_hal_spi.c ****   *hspi->pRxBuffPtr = (*(__IO uint8_t *)&hspi->Instance->DR);
 6276              		.loc 1 3316 46
 6277 0008 7B68     		ldr	r3, [r7, #4]
 6278 000a 1B68     		ldr	r3, [r3]
 6279              		.loc 1 3316 41
 6280 000c 03F10C02 		add	r2, r3, #12
 6281              		.loc 1 3316 8
 6282 0010 7B68     		ldr	r3, [r7, #4]
 6283 0012 9B6B     		ldr	r3, [r3, #56]
 6284              		.loc 1 3316 24
 6285 0014 1278     		ldrb	r2, [r2]
 6286 0016 D2B2     		uxtb	r2, r2
 6287              		.loc 1 3316 21
 6288 0018 1A70     		strb	r2, [r3]
3317:Drivers/STM32F1xx_HAL_Driver/Src/stm32f1xx_hal_spi.c ****   hspi->pRxBuffPtr++;
 6289              		.loc 1 3317 7
 6290 001a 7B68     		ldr	r3, [r7, #4]
 6291 001c 9B6B     		ldr	r3, [r3, #56]
 6292              		.loc 1 3317 19
 6293 001e 5A1C     		adds	r2, r3, #1
 6294 0020 7B68     		ldr	r3, [r7, #4]
 6295 0022 9A63     		str	r2, [r3, #56]
3318:Drivers/STM32F1xx_HAL_Driver/Src/stm32f1xx_hal_spi.c ****   hspi->RxXferCount--;
 6296              		.loc 1 3318 7
 6297 0024 7B68     		ldr	r3, [r7, #4]
 6298 0026 DB8F     		ldrh	r3, [r3, #62]	@ movhi
 6299 0028 9BB2     		uxth	r3, r3
 6300              		.loc 1 3318 20
 6301 002a 013B     		subs	r3, r3, #1
 6302 002c 9AB2     		uxth	r2, r3
 6303 002e 7B68     		ldr	r3, [r7, #4]
 6304 0030 DA87     		strh	r2, [r3, #62]	@ movhi
3319:Drivers/STM32F1xx_HAL_Driver/Src/stm32f1xx_hal_spi.c **** 
3320:Drivers/STM32F1xx_HAL_Driver/Src/stm32f1xx_hal_spi.c **** #if (USE_SPI_CRC != 0U)
3321:Drivers/STM32F1xx_HAL_Driver/Src/stm32f1xx_hal_spi.c ****   /* Enable CRC Transmission */
3322:Drivers/STM32F1xx_HAL_Driver/Src/stm32f1xx_hal_spi.c ****   if ((hspi->RxXferCount == 1U) && (hspi->Init.CRCCalculation == SPI_CRCCALCULATION_ENABLE))
3323:Drivers/STM32F1xx_HAL_Driver/Src/stm32f1xx_hal_spi.c ****   {
3324:Drivers/STM32F1xx_HAL_Driver/Src/stm32f1xx_hal_spi.c ****     SET_BIT(hspi->Instance->CR1, SPI_CR1_CRCNEXT);
3325:Drivers/STM32F1xx_HAL_Driver/Src/stm32f1xx_hal_spi.c ****   }
3326:Drivers/STM32F1xx_HAL_Driver/Src/stm32f1xx_hal_spi.c ****   /* Check if CRCNEXT is well reseted by hardware */
3327:Drivers/STM32F1xx_HAL_Driver/Src/stm32f1xx_hal_spi.c ****   if (READ_BIT(hspi->Instance->CR1, SPI_CR1_CRCNEXT))
3328:Drivers/STM32F1xx_HAL_Driver/Src/stm32f1xx_hal_spi.c ****   {
3329:Drivers/STM32F1xx_HAL_Driver/Src/stm32f1xx_hal_spi.c ****     /* Workaround to force CRCNEXT bit to zero in case of CRCNEXT is not reset automatically by har
3330:Drivers/STM32F1xx_HAL_Driver/Src/stm32f1xx_hal_spi.c ****     CLEAR_BIT(hspi->Instance->CR1, SPI_CR1_CRCNEXT);
ARM GAS  C:\Users\Alex\AppData\Local\Temp\ccfYuLQH.s 			page 169


3331:Drivers/STM32F1xx_HAL_Driver/Src/stm32f1xx_hal_spi.c ****   }
3332:Drivers/STM32F1xx_HAL_Driver/Src/stm32f1xx_hal_spi.c **** 
3333:Drivers/STM32F1xx_HAL_Driver/Src/stm32f1xx_hal_spi.c **** #endif /* USE_SPI_CRC */
3334:Drivers/STM32F1xx_HAL_Driver/Src/stm32f1xx_hal_spi.c **** 
3335:Drivers/STM32F1xx_HAL_Driver/Src/stm32f1xx_hal_spi.c ****   if (hspi->RxXferCount == 0U)
 6305              		.loc 1 3335 11
 6306 0032 7B68     		ldr	r3, [r7, #4]
 6307 0034 DB8F     		ldrh	r3, [r3, #62]	@ movhi
 6308 0036 9BB2     		uxth	r3, r3
 6309              		.loc 1 3335 6
 6310 0038 002B     		cmp	r3, #0
 6311 003a 02D1     		bne	.L302
3336:Drivers/STM32F1xx_HAL_Driver/Src/stm32f1xx_hal_spi.c ****   {
3337:Drivers/STM32F1xx_HAL_Driver/Src/stm32f1xx_hal_spi.c **** #if (USE_SPI_CRC != 0U)
3338:Drivers/STM32F1xx_HAL_Driver/Src/stm32f1xx_hal_spi.c ****     if (hspi->Init.CRCCalculation == SPI_CRCCALCULATION_ENABLE)
3339:Drivers/STM32F1xx_HAL_Driver/Src/stm32f1xx_hal_spi.c ****     {
3340:Drivers/STM32F1xx_HAL_Driver/Src/stm32f1xx_hal_spi.c ****       hspi->RxISR =  SPI_RxISR_8BITCRC;
3341:Drivers/STM32F1xx_HAL_Driver/Src/stm32f1xx_hal_spi.c ****       return;
3342:Drivers/STM32F1xx_HAL_Driver/Src/stm32f1xx_hal_spi.c ****     }
3343:Drivers/STM32F1xx_HAL_Driver/Src/stm32f1xx_hal_spi.c **** #endif /* USE_SPI_CRC */
3344:Drivers/STM32F1xx_HAL_Driver/Src/stm32f1xx_hal_spi.c ****     SPI_CloseRx_ISR(hspi);
 6312              		.loc 1 3344 5
 6313 003c 7868     		ldr	r0, [r7, #4]
 6314 003e FFF7FEFF 		bl	SPI_CloseRx_ISR
 6315              	.L302:
3345:Drivers/STM32F1xx_HAL_Driver/Src/stm32f1xx_hal_spi.c ****   }
3346:Drivers/STM32F1xx_HAL_Driver/Src/stm32f1xx_hal_spi.c **** }
 6316              		.loc 1 3346 1
 6317 0042 00BF     		nop
 6318 0044 0837     		adds	r7, r7, #8
 6319              	.LCFI234:
 6320              		.cfi_def_cfa_offset 8
 6321 0046 BD46     		mov	sp, r7
 6322              	.LCFI235:
 6323              		.cfi_def_cfa_register 13
 6324              		@ sp needed
 6325 0048 80BD     		pop	{r7, pc}
 6326              		.cfi_endproc
 6327              	.LFE108:
 6329              		.section	.text.SPI_RxISR_16BIT,"ax",%progbits
 6330              		.align	1
 6331              		.syntax unified
 6332              		.thumb
 6333              		.thumb_func
 6334              		.fpu softvfp
 6336              	SPI_RxISR_16BIT:
 6337              	.LFB109:
3347:Drivers/STM32F1xx_HAL_Driver/Src/stm32f1xx_hal_spi.c **** 
3348:Drivers/STM32F1xx_HAL_Driver/Src/stm32f1xx_hal_spi.c **** #if (USE_SPI_CRC != 0U)
3349:Drivers/STM32F1xx_HAL_Driver/Src/stm32f1xx_hal_spi.c **** /**
3350:Drivers/STM32F1xx_HAL_Driver/Src/stm32f1xx_hal_spi.c ****   * @brief  Manage the CRC 16-bit receive in Interrupt context.
3351:Drivers/STM32F1xx_HAL_Driver/Src/stm32f1xx_hal_spi.c ****   * @param  hspi pointer to a SPI_HandleTypeDef structure that contains
3352:Drivers/STM32F1xx_HAL_Driver/Src/stm32f1xx_hal_spi.c ****   *               the configuration information for SPI module.
3353:Drivers/STM32F1xx_HAL_Driver/Src/stm32f1xx_hal_spi.c ****   * @retval None
3354:Drivers/STM32F1xx_HAL_Driver/Src/stm32f1xx_hal_spi.c ****   */
3355:Drivers/STM32F1xx_HAL_Driver/Src/stm32f1xx_hal_spi.c **** static void SPI_RxISR_16BITCRC(struct __SPI_HandleTypeDef *hspi)
3356:Drivers/STM32F1xx_HAL_Driver/Src/stm32f1xx_hal_spi.c **** {
ARM GAS  C:\Users\Alex\AppData\Local\Temp\ccfYuLQH.s 			page 170


3357:Drivers/STM32F1xx_HAL_Driver/Src/stm32f1xx_hal_spi.c ****   /* Read 16bit CRC to flush Data Register */
3358:Drivers/STM32F1xx_HAL_Driver/Src/stm32f1xx_hal_spi.c ****   READ_REG(hspi->Instance->DR);
3359:Drivers/STM32F1xx_HAL_Driver/Src/stm32f1xx_hal_spi.c **** 
3360:Drivers/STM32F1xx_HAL_Driver/Src/stm32f1xx_hal_spi.c ****   /* Disable RXNE and ERR interrupt */
3361:Drivers/STM32F1xx_HAL_Driver/Src/stm32f1xx_hal_spi.c ****   __HAL_SPI_DISABLE_IT(hspi, (SPI_IT_RXNE | SPI_IT_ERR));
3362:Drivers/STM32F1xx_HAL_Driver/Src/stm32f1xx_hal_spi.c **** 
3363:Drivers/STM32F1xx_HAL_Driver/Src/stm32f1xx_hal_spi.c ****   SPI_CloseRx_ISR(hspi);
3364:Drivers/STM32F1xx_HAL_Driver/Src/stm32f1xx_hal_spi.c **** }
3365:Drivers/STM32F1xx_HAL_Driver/Src/stm32f1xx_hal_spi.c **** #endif /* USE_SPI_CRC */
3366:Drivers/STM32F1xx_HAL_Driver/Src/stm32f1xx_hal_spi.c **** 
3367:Drivers/STM32F1xx_HAL_Driver/Src/stm32f1xx_hal_spi.c **** /**
3368:Drivers/STM32F1xx_HAL_Driver/Src/stm32f1xx_hal_spi.c ****   * @brief  Manage the 16-bit receive in Interrupt context.
3369:Drivers/STM32F1xx_HAL_Driver/Src/stm32f1xx_hal_spi.c ****   * @param  hspi pointer to a SPI_HandleTypeDef structure that contains
3370:Drivers/STM32F1xx_HAL_Driver/Src/stm32f1xx_hal_spi.c ****   *               the configuration information for SPI module.
3371:Drivers/STM32F1xx_HAL_Driver/Src/stm32f1xx_hal_spi.c ****   * @retval None
3372:Drivers/STM32F1xx_HAL_Driver/Src/stm32f1xx_hal_spi.c ****   */
3373:Drivers/STM32F1xx_HAL_Driver/Src/stm32f1xx_hal_spi.c **** static void SPI_RxISR_16BIT(struct __SPI_HandleTypeDef *hspi)
3374:Drivers/STM32F1xx_HAL_Driver/Src/stm32f1xx_hal_spi.c **** {
 6338              		.loc 1 3374 1
 6339              		.cfi_startproc
 6340              		@ args = 0, pretend = 0, frame = 8
 6341              		@ frame_needed = 1, uses_anonymous_args = 0
 6342 0000 80B5     		push	{r7, lr}
 6343              	.LCFI236:
 6344              		.cfi_def_cfa_offset 8
 6345              		.cfi_offset 7, -8
 6346              		.cfi_offset 14, -4
 6347 0002 82B0     		sub	sp, sp, #8
 6348              	.LCFI237:
 6349              		.cfi_def_cfa_offset 16
 6350 0004 00AF     		add	r7, sp, #0
 6351              	.LCFI238:
 6352              		.cfi_def_cfa_register 7
 6353 0006 7860     		str	r0, [r7, #4]
3375:Drivers/STM32F1xx_HAL_Driver/Src/stm32f1xx_hal_spi.c ****   *((uint16_t *)hspi->pRxBuffPtr) = (uint16_t)(hspi->Instance->DR);
 6354              		.loc 1 3375 52
 6355 0008 7B68     		ldr	r3, [r7, #4]
 6356 000a 1B68     		ldr	r3, [r3]
 6357              		.loc 1 3375 62
 6358 000c DA68     		ldr	r2, [r3, #12]
 6359              		.loc 1 3375 21
 6360 000e 7B68     		ldr	r3, [r7, #4]
 6361 0010 9B6B     		ldr	r3, [r3, #56]
 6362              		.loc 1 3375 37
 6363 0012 92B2     		uxth	r2, r2
 6364              		.loc 1 3375 35
 6365 0014 1A80     		strh	r2, [r3]	@ movhi
3376:Drivers/STM32F1xx_HAL_Driver/Src/stm32f1xx_hal_spi.c ****   hspi->pRxBuffPtr += sizeof(uint16_t);
 6366              		.loc 1 3376 20
 6367 0016 7B68     		ldr	r3, [r7, #4]
 6368 0018 9B6B     		ldr	r3, [r3, #56]
 6369 001a 9A1C     		adds	r2, r3, #2
 6370 001c 7B68     		ldr	r3, [r7, #4]
 6371 001e 9A63     		str	r2, [r3, #56]
3377:Drivers/STM32F1xx_HAL_Driver/Src/stm32f1xx_hal_spi.c ****   hspi->RxXferCount--;
 6372              		.loc 1 3377 7
 6373 0020 7B68     		ldr	r3, [r7, #4]
ARM GAS  C:\Users\Alex\AppData\Local\Temp\ccfYuLQH.s 			page 171


 6374 0022 DB8F     		ldrh	r3, [r3, #62]	@ movhi
 6375 0024 9BB2     		uxth	r3, r3
 6376              		.loc 1 3377 20
 6377 0026 013B     		subs	r3, r3, #1
 6378 0028 9AB2     		uxth	r2, r3
 6379 002a 7B68     		ldr	r3, [r7, #4]
 6380 002c DA87     		strh	r2, [r3, #62]	@ movhi
3378:Drivers/STM32F1xx_HAL_Driver/Src/stm32f1xx_hal_spi.c **** 
3379:Drivers/STM32F1xx_HAL_Driver/Src/stm32f1xx_hal_spi.c **** #if (USE_SPI_CRC != 0U)
3380:Drivers/STM32F1xx_HAL_Driver/Src/stm32f1xx_hal_spi.c ****   /* Enable CRC Transmission */
3381:Drivers/STM32F1xx_HAL_Driver/Src/stm32f1xx_hal_spi.c ****   if ((hspi->RxXferCount == 1U) && (hspi->Init.CRCCalculation == SPI_CRCCALCULATION_ENABLE))
3382:Drivers/STM32F1xx_HAL_Driver/Src/stm32f1xx_hal_spi.c ****   {
3383:Drivers/STM32F1xx_HAL_Driver/Src/stm32f1xx_hal_spi.c ****     SET_BIT(hspi->Instance->CR1, SPI_CR1_CRCNEXT);
3384:Drivers/STM32F1xx_HAL_Driver/Src/stm32f1xx_hal_spi.c ****   }
3385:Drivers/STM32F1xx_HAL_Driver/Src/stm32f1xx_hal_spi.c ****   /* Check if CRCNEXT is well reseted by hardware */
3386:Drivers/STM32F1xx_HAL_Driver/Src/stm32f1xx_hal_spi.c ****   if (READ_BIT(hspi->Instance->CR1, SPI_CR1_CRCNEXT))
3387:Drivers/STM32F1xx_HAL_Driver/Src/stm32f1xx_hal_spi.c ****   {
3388:Drivers/STM32F1xx_HAL_Driver/Src/stm32f1xx_hal_spi.c ****     /* Workaround to force CRCNEXT bit to zero in case of CRCNEXT is not reset automatically by har
3389:Drivers/STM32F1xx_HAL_Driver/Src/stm32f1xx_hal_spi.c ****     CLEAR_BIT(hspi->Instance->CR1, SPI_CR1_CRCNEXT);
3390:Drivers/STM32F1xx_HAL_Driver/Src/stm32f1xx_hal_spi.c ****   }
3391:Drivers/STM32F1xx_HAL_Driver/Src/stm32f1xx_hal_spi.c **** 
3392:Drivers/STM32F1xx_HAL_Driver/Src/stm32f1xx_hal_spi.c **** #endif /* USE_SPI_CRC */
3393:Drivers/STM32F1xx_HAL_Driver/Src/stm32f1xx_hal_spi.c **** 
3394:Drivers/STM32F1xx_HAL_Driver/Src/stm32f1xx_hal_spi.c ****   if (hspi->RxXferCount == 0U)
 6381              		.loc 1 3394 11
 6382 002e 7B68     		ldr	r3, [r7, #4]
 6383 0030 DB8F     		ldrh	r3, [r3, #62]	@ movhi
 6384 0032 9BB2     		uxth	r3, r3
 6385              		.loc 1 3394 6
 6386 0034 002B     		cmp	r3, #0
 6387 0036 02D1     		bne	.L305
3395:Drivers/STM32F1xx_HAL_Driver/Src/stm32f1xx_hal_spi.c ****   {
3396:Drivers/STM32F1xx_HAL_Driver/Src/stm32f1xx_hal_spi.c **** #if (USE_SPI_CRC != 0U)
3397:Drivers/STM32F1xx_HAL_Driver/Src/stm32f1xx_hal_spi.c ****     if (hspi->Init.CRCCalculation == SPI_CRCCALCULATION_ENABLE)
3398:Drivers/STM32F1xx_HAL_Driver/Src/stm32f1xx_hal_spi.c ****     {
3399:Drivers/STM32F1xx_HAL_Driver/Src/stm32f1xx_hal_spi.c ****       hspi->RxISR = SPI_RxISR_16BITCRC;
3400:Drivers/STM32F1xx_HAL_Driver/Src/stm32f1xx_hal_spi.c ****       return;
3401:Drivers/STM32F1xx_HAL_Driver/Src/stm32f1xx_hal_spi.c ****     }
3402:Drivers/STM32F1xx_HAL_Driver/Src/stm32f1xx_hal_spi.c **** #endif /* USE_SPI_CRC */
3403:Drivers/STM32F1xx_HAL_Driver/Src/stm32f1xx_hal_spi.c ****     SPI_CloseRx_ISR(hspi);
 6388              		.loc 1 3403 5
 6389 0038 7868     		ldr	r0, [r7, #4]
 6390 003a FFF7FEFF 		bl	SPI_CloseRx_ISR
 6391              	.L305:
3404:Drivers/STM32F1xx_HAL_Driver/Src/stm32f1xx_hal_spi.c ****   }
3405:Drivers/STM32F1xx_HAL_Driver/Src/stm32f1xx_hal_spi.c **** }
 6392              		.loc 1 3405 1
 6393 003e 00BF     		nop
 6394 0040 0837     		adds	r7, r7, #8
 6395              	.LCFI239:
 6396              		.cfi_def_cfa_offset 8
 6397 0042 BD46     		mov	sp, r7
 6398              	.LCFI240:
 6399              		.cfi_def_cfa_register 13
 6400              		@ sp needed
 6401 0044 80BD     		pop	{r7, pc}
 6402              		.cfi_endproc
ARM GAS  C:\Users\Alex\AppData\Local\Temp\ccfYuLQH.s 			page 172


 6403              	.LFE109:
 6405              		.section	.text.SPI_TxISR_8BIT,"ax",%progbits
 6406              		.align	1
 6407              		.syntax unified
 6408              		.thumb
 6409              		.thumb_func
 6410              		.fpu softvfp
 6412              	SPI_TxISR_8BIT:
 6413              	.LFB110:
3406:Drivers/STM32F1xx_HAL_Driver/Src/stm32f1xx_hal_spi.c **** 
3407:Drivers/STM32F1xx_HAL_Driver/Src/stm32f1xx_hal_spi.c **** /**
3408:Drivers/STM32F1xx_HAL_Driver/Src/stm32f1xx_hal_spi.c ****   * @brief  Handle the data 8-bit transmit in Interrupt mode.
3409:Drivers/STM32F1xx_HAL_Driver/Src/stm32f1xx_hal_spi.c ****   * @param  hspi pointer to a SPI_HandleTypeDef structure that contains
3410:Drivers/STM32F1xx_HAL_Driver/Src/stm32f1xx_hal_spi.c ****   *               the configuration information for SPI module.
3411:Drivers/STM32F1xx_HAL_Driver/Src/stm32f1xx_hal_spi.c ****   * @retval None
3412:Drivers/STM32F1xx_HAL_Driver/Src/stm32f1xx_hal_spi.c ****   */
3413:Drivers/STM32F1xx_HAL_Driver/Src/stm32f1xx_hal_spi.c **** static void SPI_TxISR_8BIT(struct __SPI_HandleTypeDef *hspi)
3414:Drivers/STM32F1xx_HAL_Driver/Src/stm32f1xx_hal_spi.c **** {
 6414              		.loc 1 3414 1
 6415              		.cfi_startproc
 6416              		@ args = 0, pretend = 0, frame = 8
 6417              		@ frame_needed = 1, uses_anonymous_args = 0
 6418 0000 80B5     		push	{r7, lr}
 6419              	.LCFI241:
 6420              		.cfi_def_cfa_offset 8
 6421              		.cfi_offset 7, -8
 6422              		.cfi_offset 14, -4
 6423 0002 82B0     		sub	sp, sp, #8
 6424              	.LCFI242:
 6425              		.cfi_def_cfa_offset 16
 6426 0004 00AF     		add	r7, sp, #0
 6427              	.LCFI243:
 6428              		.cfi_def_cfa_register 7
 6429 0006 7860     		str	r0, [r7, #4]
3415:Drivers/STM32F1xx_HAL_Driver/Src/stm32f1xx_hal_spi.c ****   *(__IO uint8_t *)&hspi->Instance->DR = (*hspi->pTxBuffPtr);
 6430              		.loc 1 3415 48
 6431 0008 7B68     		ldr	r3, [r7, #4]
 6432 000a 1A6B     		ldr	r2, [r3, #48]
 6433              		.loc 1 3415 25
 6434 000c 7B68     		ldr	r3, [r7, #4]
 6435 000e 1B68     		ldr	r3, [r3]
 6436              		.loc 1 3415 20
 6437 0010 0C33     		adds	r3, r3, #12
 6438              		.loc 1 3415 43
 6439 0012 1278     		ldrb	r2, [r2]	@ zero_extendqisi2
 6440              		.loc 1 3415 40
 6441 0014 1A70     		strb	r2, [r3]
3416:Drivers/STM32F1xx_HAL_Driver/Src/stm32f1xx_hal_spi.c ****   hspi->pTxBuffPtr++;
 6442              		.loc 1 3416 7
 6443 0016 7B68     		ldr	r3, [r7, #4]
 6444 0018 1B6B     		ldr	r3, [r3, #48]
 6445              		.loc 1 3416 19
 6446 001a 5A1C     		adds	r2, r3, #1
 6447 001c 7B68     		ldr	r3, [r7, #4]
 6448 001e 1A63     		str	r2, [r3, #48]
3417:Drivers/STM32F1xx_HAL_Driver/Src/stm32f1xx_hal_spi.c ****   hspi->TxXferCount--;
 6449              		.loc 1 3417 7
ARM GAS  C:\Users\Alex\AppData\Local\Temp\ccfYuLQH.s 			page 173


 6450 0020 7B68     		ldr	r3, [r7, #4]
 6451 0022 DB8E     		ldrh	r3, [r3, #54]	@ movhi
 6452 0024 9BB2     		uxth	r3, r3
 6453              		.loc 1 3417 20
 6454 0026 013B     		subs	r3, r3, #1
 6455 0028 9AB2     		uxth	r2, r3
 6456 002a 7B68     		ldr	r3, [r7, #4]
 6457 002c DA86     		strh	r2, [r3, #54]	@ movhi
3418:Drivers/STM32F1xx_HAL_Driver/Src/stm32f1xx_hal_spi.c **** 
3419:Drivers/STM32F1xx_HAL_Driver/Src/stm32f1xx_hal_spi.c ****   if (hspi->TxXferCount == 0U)
 6458              		.loc 1 3419 11
 6459 002e 7B68     		ldr	r3, [r7, #4]
 6460 0030 DB8E     		ldrh	r3, [r3, #54]	@ movhi
 6461 0032 9BB2     		uxth	r3, r3
 6462              		.loc 1 3419 6
 6463 0034 002B     		cmp	r3, #0
 6464 0036 02D1     		bne	.L308
3420:Drivers/STM32F1xx_HAL_Driver/Src/stm32f1xx_hal_spi.c ****   {
3421:Drivers/STM32F1xx_HAL_Driver/Src/stm32f1xx_hal_spi.c **** #if (USE_SPI_CRC != 0U)
3422:Drivers/STM32F1xx_HAL_Driver/Src/stm32f1xx_hal_spi.c ****     if (hspi->Init.CRCCalculation == SPI_CRCCALCULATION_ENABLE)
3423:Drivers/STM32F1xx_HAL_Driver/Src/stm32f1xx_hal_spi.c ****     {
3424:Drivers/STM32F1xx_HAL_Driver/Src/stm32f1xx_hal_spi.c ****       /* Enable CRC Transmission */
3425:Drivers/STM32F1xx_HAL_Driver/Src/stm32f1xx_hal_spi.c ****       SET_BIT(hspi->Instance->CR1, SPI_CR1_CRCNEXT);
3426:Drivers/STM32F1xx_HAL_Driver/Src/stm32f1xx_hal_spi.c ****     }
3427:Drivers/STM32F1xx_HAL_Driver/Src/stm32f1xx_hal_spi.c **** #endif /* USE_SPI_CRC */
3428:Drivers/STM32F1xx_HAL_Driver/Src/stm32f1xx_hal_spi.c ****     SPI_CloseTx_ISR(hspi);
 6465              		.loc 1 3428 5
 6466 0038 7868     		ldr	r0, [r7, #4]
 6467 003a FFF7FEFF 		bl	SPI_CloseTx_ISR
 6468              	.L308:
3429:Drivers/STM32F1xx_HAL_Driver/Src/stm32f1xx_hal_spi.c ****   }
3430:Drivers/STM32F1xx_HAL_Driver/Src/stm32f1xx_hal_spi.c **** }
 6469              		.loc 1 3430 1
 6470 003e 00BF     		nop
 6471 0040 0837     		adds	r7, r7, #8
 6472              	.LCFI244:
 6473              		.cfi_def_cfa_offset 8
 6474 0042 BD46     		mov	sp, r7
 6475              	.LCFI245:
 6476              		.cfi_def_cfa_register 13
 6477              		@ sp needed
 6478 0044 80BD     		pop	{r7, pc}
 6479              		.cfi_endproc
 6480              	.LFE110:
 6482              		.section	.text.SPI_TxISR_16BIT,"ax",%progbits
 6483              		.align	1
 6484              		.syntax unified
 6485              		.thumb
 6486              		.thumb_func
 6487              		.fpu softvfp
 6489              	SPI_TxISR_16BIT:
 6490              	.LFB111:
3431:Drivers/STM32F1xx_HAL_Driver/Src/stm32f1xx_hal_spi.c **** 
3432:Drivers/STM32F1xx_HAL_Driver/Src/stm32f1xx_hal_spi.c **** /**
3433:Drivers/STM32F1xx_HAL_Driver/Src/stm32f1xx_hal_spi.c ****   * @brief  Handle the data 16-bit transmit in Interrupt mode.
3434:Drivers/STM32F1xx_HAL_Driver/Src/stm32f1xx_hal_spi.c ****   * @param  hspi pointer to a SPI_HandleTypeDef structure that contains
3435:Drivers/STM32F1xx_HAL_Driver/Src/stm32f1xx_hal_spi.c ****   *               the configuration information for SPI module.
ARM GAS  C:\Users\Alex\AppData\Local\Temp\ccfYuLQH.s 			page 174


3436:Drivers/STM32F1xx_HAL_Driver/Src/stm32f1xx_hal_spi.c ****   * @retval None
3437:Drivers/STM32F1xx_HAL_Driver/Src/stm32f1xx_hal_spi.c ****   */
3438:Drivers/STM32F1xx_HAL_Driver/Src/stm32f1xx_hal_spi.c **** static void SPI_TxISR_16BIT(struct __SPI_HandleTypeDef *hspi)
3439:Drivers/STM32F1xx_HAL_Driver/Src/stm32f1xx_hal_spi.c **** {
 6491              		.loc 1 3439 1
 6492              		.cfi_startproc
 6493              		@ args = 0, pretend = 0, frame = 8
 6494              		@ frame_needed = 1, uses_anonymous_args = 0
 6495 0000 80B5     		push	{r7, lr}
 6496              	.LCFI246:
 6497              		.cfi_def_cfa_offset 8
 6498              		.cfi_offset 7, -8
 6499              		.cfi_offset 14, -4
 6500 0002 82B0     		sub	sp, sp, #8
 6501              	.LCFI247:
 6502              		.cfi_def_cfa_offset 16
 6503 0004 00AF     		add	r7, sp, #0
 6504              	.LCFI248:
 6505              		.cfi_def_cfa_register 7
 6506 0006 7860     		str	r0, [r7, #4]
3440:Drivers/STM32F1xx_HAL_Driver/Src/stm32f1xx_hal_spi.c ****   /* Transmit data in 16 Bit mode */
3441:Drivers/STM32F1xx_HAL_Driver/Src/stm32f1xx_hal_spi.c ****   hspi->Instance->DR = *((uint16_t *)hspi->pTxBuffPtr);
 6507              		.loc 1 3441 42
 6508 0008 7B68     		ldr	r3, [r7, #4]
 6509 000a 1B6B     		ldr	r3, [r3, #48]
 6510              		.loc 1 3441 24
 6511 000c 1A88     		ldrh	r2, [r3]
 6512              		.loc 1 3441 7
 6513 000e 7B68     		ldr	r3, [r7, #4]
 6514 0010 1B68     		ldr	r3, [r3]
 6515              		.loc 1 3441 22
 6516 0012 DA60     		str	r2, [r3, #12]
3442:Drivers/STM32F1xx_HAL_Driver/Src/stm32f1xx_hal_spi.c ****   hspi->pTxBuffPtr += sizeof(uint16_t);
 6517              		.loc 1 3442 20
 6518 0014 7B68     		ldr	r3, [r7, #4]
 6519 0016 1B6B     		ldr	r3, [r3, #48]
 6520 0018 9A1C     		adds	r2, r3, #2
 6521 001a 7B68     		ldr	r3, [r7, #4]
 6522 001c 1A63     		str	r2, [r3, #48]
3443:Drivers/STM32F1xx_HAL_Driver/Src/stm32f1xx_hal_spi.c ****   hspi->TxXferCount--;
 6523              		.loc 1 3443 7
 6524 001e 7B68     		ldr	r3, [r7, #4]
 6525 0020 DB8E     		ldrh	r3, [r3, #54]	@ movhi
 6526 0022 9BB2     		uxth	r3, r3
 6527              		.loc 1 3443 20
 6528 0024 013B     		subs	r3, r3, #1
 6529 0026 9AB2     		uxth	r2, r3
 6530 0028 7B68     		ldr	r3, [r7, #4]
 6531 002a DA86     		strh	r2, [r3, #54]	@ movhi
3444:Drivers/STM32F1xx_HAL_Driver/Src/stm32f1xx_hal_spi.c **** 
3445:Drivers/STM32F1xx_HAL_Driver/Src/stm32f1xx_hal_spi.c ****   if (hspi->TxXferCount == 0U)
 6532              		.loc 1 3445 11
 6533 002c 7B68     		ldr	r3, [r7, #4]
 6534 002e DB8E     		ldrh	r3, [r3, #54]	@ movhi
 6535 0030 9BB2     		uxth	r3, r3
 6536              		.loc 1 3445 6
 6537 0032 002B     		cmp	r3, #0
ARM GAS  C:\Users\Alex\AppData\Local\Temp\ccfYuLQH.s 			page 175


 6538 0034 02D1     		bne	.L311
3446:Drivers/STM32F1xx_HAL_Driver/Src/stm32f1xx_hal_spi.c ****   {
3447:Drivers/STM32F1xx_HAL_Driver/Src/stm32f1xx_hal_spi.c **** #if (USE_SPI_CRC != 0U)
3448:Drivers/STM32F1xx_HAL_Driver/Src/stm32f1xx_hal_spi.c ****     if (hspi->Init.CRCCalculation == SPI_CRCCALCULATION_ENABLE)
3449:Drivers/STM32F1xx_HAL_Driver/Src/stm32f1xx_hal_spi.c ****     {
3450:Drivers/STM32F1xx_HAL_Driver/Src/stm32f1xx_hal_spi.c ****       /* Enable CRC Transmission */
3451:Drivers/STM32F1xx_HAL_Driver/Src/stm32f1xx_hal_spi.c ****       SET_BIT(hspi->Instance->CR1, SPI_CR1_CRCNEXT);
3452:Drivers/STM32F1xx_HAL_Driver/Src/stm32f1xx_hal_spi.c ****     }
3453:Drivers/STM32F1xx_HAL_Driver/Src/stm32f1xx_hal_spi.c **** #endif /* USE_SPI_CRC */
3454:Drivers/STM32F1xx_HAL_Driver/Src/stm32f1xx_hal_spi.c ****     SPI_CloseTx_ISR(hspi);
 6539              		.loc 1 3454 5
 6540 0036 7868     		ldr	r0, [r7, #4]
 6541 0038 FFF7FEFF 		bl	SPI_CloseTx_ISR
 6542              	.L311:
3455:Drivers/STM32F1xx_HAL_Driver/Src/stm32f1xx_hal_spi.c ****   }
3456:Drivers/STM32F1xx_HAL_Driver/Src/stm32f1xx_hal_spi.c **** }
 6543              		.loc 1 3456 1
 6544 003c 00BF     		nop
 6545 003e 0837     		adds	r7, r7, #8
 6546              	.LCFI249:
 6547              		.cfi_def_cfa_offset 8
 6548 0040 BD46     		mov	sp, r7
 6549              	.LCFI250:
 6550              		.cfi_def_cfa_register 13
 6551              		@ sp needed
 6552 0042 80BD     		pop	{r7, pc}
 6553              		.cfi_endproc
 6554              	.LFE111:
 6556              		.section	.text.SPI_WaitFlagStateUntilTimeout,"ax",%progbits
 6557              		.align	1
 6558              		.syntax unified
 6559              		.thumb
 6560              		.thumb_func
 6561              		.fpu softvfp
 6563              	SPI_WaitFlagStateUntilTimeout:
 6564              	.LFB112:
3457:Drivers/STM32F1xx_HAL_Driver/Src/stm32f1xx_hal_spi.c **** 
3458:Drivers/STM32F1xx_HAL_Driver/Src/stm32f1xx_hal_spi.c **** /**
3459:Drivers/STM32F1xx_HAL_Driver/Src/stm32f1xx_hal_spi.c ****   * @brief  Handle SPI Communication Timeout.
3460:Drivers/STM32F1xx_HAL_Driver/Src/stm32f1xx_hal_spi.c ****   * @param  hspi pointer to a SPI_HandleTypeDef structure that contains
3461:Drivers/STM32F1xx_HAL_Driver/Src/stm32f1xx_hal_spi.c ****   *              the configuration information for SPI module.
3462:Drivers/STM32F1xx_HAL_Driver/Src/stm32f1xx_hal_spi.c ****   * @param  Flag SPI flag to check
3463:Drivers/STM32F1xx_HAL_Driver/Src/stm32f1xx_hal_spi.c ****   * @param  State flag state to check
3464:Drivers/STM32F1xx_HAL_Driver/Src/stm32f1xx_hal_spi.c ****   * @param  Timeout Timeout duration
3465:Drivers/STM32F1xx_HAL_Driver/Src/stm32f1xx_hal_spi.c ****   * @param  Tickstart tick start value
3466:Drivers/STM32F1xx_HAL_Driver/Src/stm32f1xx_hal_spi.c ****   * @retval HAL status
3467:Drivers/STM32F1xx_HAL_Driver/Src/stm32f1xx_hal_spi.c ****   */
3468:Drivers/STM32F1xx_HAL_Driver/Src/stm32f1xx_hal_spi.c **** static HAL_StatusTypeDef SPI_WaitFlagStateUntilTimeout(SPI_HandleTypeDef *hspi, uint32_t Flag, Flag
3469:Drivers/STM32F1xx_HAL_Driver/Src/stm32f1xx_hal_spi.c ****                                                        uint32_t Timeout, uint32_t Tickstart)
3470:Drivers/STM32F1xx_HAL_Driver/Src/stm32f1xx_hal_spi.c **** {
 6565              		.loc 1 3470 1
 6566              		.cfi_startproc
 6567              		@ args = 4, pretend = 0, frame = 16
 6568              		@ frame_needed = 1, uses_anonymous_args = 0
 6569 0000 80B5     		push	{r7, lr}
 6570              	.LCFI251:
 6571              		.cfi_def_cfa_offset 8
ARM GAS  C:\Users\Alex\AppData\Local\Temp\ccfYuLQH.s 			page 176


 6572              		.cfi_offset 7, -8
 6573              		.cfi_offset 14, -4
 6574 0002 84B0     		sub	sp, sp, #16
 6575              	.LCFI252:
 6576              		.cfi_def_cfa_offset 24
 6577 0004 00AF     		add	r7, sp, #0
 6578              	.LCFI253:
 6579              		.cfi_def_cfa_register 7
 6580 0006 F860     		str	r0, [r7, #12]
 6581 0008 B960     		str	r1, [r7, #8]
 6582 000a 3B60     		str	r3, [r7]
 6583 000c 1346     		mov	r3, r2
 6584 000e FB71     		strb	r3, [r7, #7]
3471:Drivers/STM32F1xx_HAL_Driver/Src/stm32f1xx_hal_spi.c ****   while ((__HAL_SPI_GET_FLAG(hspi, Flag) ? SET : RESET) != State)
 6585              		.loc 1 3471 9
 6586 0010 4CE0     		b	.L313
 6587              	.L319:
3472:Drivers/STM32F1xx_HAL_Driver/Src/stm32f1xx_hal_spi.c ****   {
3473:Drivers/STM32F1xx_HAL_Driver/Src/stm32f1xx_hal_spi.c ****     if (Timeout != HAL_MAX_DELAY)
 6588              		.loc 1 3473 8
 6589 0012 3B68     		ldr	r3, [r7]
 6590 0014 B3F1FF3F 		cmp	r3, #-1
 6591 0018 48D0     		beq	.L313
3474:Drivers/STM32F1xx_HAL_Driver/Src/stm32f1xx_hal_spi.c ****     {
3475:Drivers/STM32F1xx_HAL_Driver/Src/stm32f1xx_hal_spi.c ****       if (((HAL_GetTick() - Tickstart) >= Timeout) || (Timeout == 0U))
 6592              		.loc 1 3475 13
 6593 001a FFF7FEFF 		bl	HAL_GetTick
 6594 001e 0246     		mov	r2, r0
 6595              		.loc 1 3475 27
 6596 0020 BB69     		ldr	r3, [r7, #24]
 6597 0022 D31A     		subs	r3, r2, r3
 6598              		.loc 1 3475 10
 6599 0024 3A68     		ldr	r2, [r7]
 6600 0026 9A42     		cmp	r2, r3
 6601 0028 02D9     		bls	.L314
 6602              		.loc 1 3475 52 discriminator 1
 6603 002a 3B68     		ldr	r3, [r7]
 6604 002c 002B     		cmp	r3, #0
 6605 002e 3DD1     		bne	.L313
 6606              	.L314:
3476:Drivers/STM32F1xx_HAL_Driver/Src/stm32f1xx_hal_spi.c ****       {
3477:Drivers/STM32F1xx_HAL_Driver/Src/stm32f1xx_hal_spi.c ****         /* Disable the SPI and reset the CRC: the CRC value should be cleared
3478:Drivers/STM32F1xx_HAL_Driver/Src/stm32f1xx_hal_spi.c ****         on both master and slave sides in order to resynchronize the master
3479:Drivers/STM32F1xx_HAL_Driver/Src/stm32f1xx_hal_spi.c ****         and slave for their respective CRC calculation */
3480:Drivers/STM32F1xx_HAL_Driver/Src/stm32f1xx_hal_spi.c **** 
3481:Drivers/STM32F1xx_HAL_Driver/Src/stm32f1xx_hal_spi.c ****         /* Disable TXE, RXNE and ERR interrupts for the interrupt process */
3482:Drivers/STM32F1xx_HAL_Driver/Src/stm32f1xx_hal_spi.c ****         __HAL_SPI_DISABLE_IT(hspi, (SPI_IT_TXE | SPI_IT_RXNE | SPI_IT_ERR));
 6607              		.loc 1 3482 9
 6608 0030 FB68     		ldr	r3, [r7, #12]
 6609 0032 1B68     		ldr	r3, [r3]
 6610 0034 5A68     		ldr	r2, [r3, #4]
 6611 0036 FB68     		ldr	r3, [r7, #12]
 6612 0038 1B68     		ldr	r3, [r3]
 6613 003a 22F0E002 		bic	r2, r2, #224
 6614 003e 5A60     		str	r2, [r3, #4]
3483:Drivers/STM32F1xx_HAL_Driver/Src/stm32f1xx_hal_spi.c **** 
3484:Drivers/STM32F1xx_HAL_Driver/Src/stm32f1xx_hal_spi.c ****         if ((hspi->Init.Mode == SPI_MODE_MASTER) && ((hspi->Init.Direction == SPI_DIRECTION_1LINE)
ARM GAS  C:\Users\Alex\AppData\Local\Temp\ccfYuLQH.s 			page 177


 6615              		.loc 1 3484 24
 6616 0040 FB68     		ldr	r3, [r7, #12]
 6617 0042 5B68     		ldr	r3, [r3, #4]
 6618              		.loc 1 3484 12
 6619 0044 B3F5827F 		cmp	r3, #260
 6620 0048 11D1     		bne	.L315
 6621              		.loc 1 3484 65 discriminator 1
 6622 004a FB68     		ldr	r3, [r7, #12]
 6623 004c 9B68     		ldr	r3, [r3, #8]
 6624              		.loc 1 3484 50 discriminator 1
 6625 004e B3F5004F 		cmp	r3, #32768
 6626 0052 04D0     		beq	.L316
3485:Drivers/STM32F1xx_HAL_Driver/Src/stm32f1xx_hal_spi.c ****                                                      || (hspi->Init.Direction == SPI_DIRECTION_2LIN
 6627              		.loc 1 3485 68
 6628 0054 FB68     		ldr	r3, [r7, #12]
 6629 0056 9B68     		ldr	r3, [r3, #8]
 6630              		.loc 1 3485 54
 6631 0058 B3F5806F 		cmp	r3, #1024
 6632 005c 07D1     		bne	.L315
 6633              	.L316:
3486:Drivers/STM32F1xx_HAL_Driver/Src/stm32f1xx_hal_spi.c ****         {
3487:Drivers/STM32F1xx_HAL_Driver/Src/stm32f1xx_hal_spi.c ****           /* Disable SPI peripheral */
3488:Drivers/STM32F1xx_HAL_Driver/Src/stm32f1xx_hal_spi.c ****           __HAL_SPI_DISABLE(hspi);
 6634              		.loc 1 3488 11
 6635 005e FB68     		ldr	r3, [r7, #12]
 6636 0060 1B68     		ldr	r3, [r3]
 6637 0062 1A68     		ldr	r2, [r3]
 6638 0064 FB68     		ldr	r3, [r7, #12]
 6639 0066 1B68     		ldr	r3, [r3]
 6640 0068 22F04002 		bic	r2, r2, #64
 6641 006c 1A60     		str	r2, [r3]
 6642              	.L315:
3489:Drivers/STM32F1xx_HAL_Driver/Src/stm32f1xx_hal_spi.c ****         }
3490:Drivers/STM32F1xx_HAL_Driver/Src/stm32f1xx_hal_spi.c **** 
3491:Drivers/STM32F1xx_HAL_Driver/Src/stm32f1xx_hal_spi.c ****         /* Reset CRC Calculation */
3492:Drivers/STM32F1xx_HAL_Driver/Src/stm32f1xx_hal_spi.c ****         if (hspi->Init.CRCCalculation == SPI_CRCCALCULATION_ENABLE)
 6643              		.loc 1 3492 23
 6644 006e FB68     		ldr	r3, [r7, #12]
 6645 0070 9B6A     		ldr	r3, [r3, #40]
 6646              		.loc 1 3492 12
 6647 0072 B3F5005F 		cmp	r3, #8192
 6648 0076 0FD1     		bne	.L317
3493:Drivers/STM32F1xx_HAL_Driver/Src/stm32f1xx_hal_spi.c ****         {
3494:Drivers/STM32F1xx_HAL_Driver/Src/stm32f1xx_hal_spi.c ****           SPI_RESET_CRC(hspi);
 6649              		.loc 1 3494 11
 6650 0078 FB68     		ldr	r3, [r7, #12]
 6651 007a 1B68     		ldr	r3, [r3]
 6652 007c 1A68     		ldr	r2, [r3]
 6653 007e FB68     		ldr	r3, [r7, #12]
 6654 0080 1B68     		ldr	r3, [r3]
 6655 0082 22F40052 		bic	r2, r2, #8192
 6656 0086 1A60     		str	r2, [r3]
 6657 0088 FB68     		ldr	r3, [r7, #12]
 6658 008a 1B68     		ldr	r3, [r3]
 6659 008c 1A68     		ldr	r2, [r3]
 6660 008e FB68     		ldr	r3, [r7, #12]
 6661 0090 1B68     		ldr	r3, [r3]
ARM GAS  C:\Users\Alex\AppData\Local\Temp\ccfYuLQH.s 			page 178


 6662 0092 42F40052 		orr	r2, r2, #8192
 6663 0096 1A60     		str	r2, [r3]
 6664              	.L317:
3495:Drivers/STM32F1xx_HAL_Driver/Src/stm32f1xx_hal_spi.c ****         }
3496:Drivers/STM32F1xx_HAL_Driver/Src/stm32f1xx_hal_spi.c **** 
3497:Drivers/STM32F1xx_HAL_Driver/Src/stm32f1xx_hal_spi.c ****         hspi->State = HAL_SPI_STATE_READY;
 6665              		.loc 1 3497 21
 6666 0098 FB68     		ldr	r3, [r7, #12]
 6667 009a 0122     		movs	r2, #1
 6668 009c 83F85120 		strb	r2, [r3, #81]
3498:Drivers/STM32F1xx_HAL_Driver/Src/stm32f1xx_hal_spi.c **** 
3499:Drivers/STM32F1xx_HAL_Driver/Src/stm32f1xx_hal_spi.c ****         /* Process Unlocked */
3500:Drivers/STM32F1xx_HAL_Driver/Src/stm32f1xx_hal_spi.c ****         __HAL_UNLOCK(hspi);
 6669              		.loc 1 3500 9
 6670 00a0 FB68     		ldr	r3, [r7, #12]
 6671 00a2 0022     		movs	r2, #0
 6672 00a4 83F85020 		strb	r2, [r3, #80]
3501:Drivers/STM32F1xx_HAL_Driver/Src/stm32f1xx_hal_spi.c **** 
3502:Drivers/STM32F1xx_HAL_Driver/Src/stm32f1xx_hal_spi.c ****         return HAL_TIMEOUT;
 6673              		.loc 1 3502 16
 6674 00a8 0323     		movs	r3, #3
 6675 00aa 0FE0     		b	.L318
 6676              	.L313:
3471:Drivers/STM32F1xx_HAL_Driver/Src/stm32f1xx_hal_spi.c ****   {
 6677              		.loc 1 3471 11
 6678 00ac FB68     		ldr	r3, [r7, #12]
 6679 00ae 1B68     		ldr	r3, [r3]
 6680 00b0 9A68     		ldr	r2, [r3, #8]
 6681 00b2 BB68     		ldr	r3, [r7, #8]
 6682 00b4 1340     		ands	r3, r3, r2
3471:Drivers/STM32F1xx_HAL_Driver/Src/stm32f1xx_hal_spi.c ****   {
 6683              		.loc 1 3471 48
 6684 00b6 BA68     		ldr	r2, [r7, #8]
 6685 00b8 9A42     		cmp	r2, r3
 6686 00ba 0CBF     		ite	eq
 6687 00bc 0123     		moveq	r3, #1
 6688 00be 0023     		movne	r3, #0
 6689 00c0 DBB2     		uxtb	r3, r3
 6690 00c2 1A46     		mov	r2, r3
3471:Drivers/STM32F1xx_HAL_Driver/Src/stm32f1xx_hal_spi.c ****   {
 6691              		.loc 1 3471 57
 6692 00c4 FB79     		ldrb	r3, [r7, #7]	@ zero_extendqisi2
3471:Drivers/STM32F1xx_HAL_Driver/Src/stm32f1xx_hal_spi.c ****   {
 6693              		.loc 1 3471 9
 6694 00c6 9A42     		cmp	r2, r3
 6695 00c8 A3D1     		bne	.L319
3503:Drivers/STM32F1xx_HAL_Driver/Src/stm32f1xx_hal_spi.c ****       }
3504:Drivers/STM32F1xx_HAL_Driver/Src/stm32f1xx_hal_spi.c ****     }
3505:Drivers/STM32F1xx_HAL_Driver/Src/stm32f1xx_hal_spi.c ****   }
3506:Drivers/STM32F1xx_HAL_Driver/Src/stm32f1xx_hal_spi.c **** 
3507:Drivers/STM32F1xx_HAL_Driver/Src/stm32f1xx_hal_spi.c ****   return HAL_OK;
 6696              		.loc 1 3507 10
 6697 00ca 0023     		movs	r3, #0
 6698              	.L318:
3508:Drivers/STM32F1xx_HAL_Driver/Src/stm32f1xx_hal_spi.c **** }
 6699              		.loc 1 3508 1
 6700 00cc 1846     		mov	r0, r3
ARM GAS  C:\Users\Alex\AppData\Local\Temp\ccfYuLQH.s 			page 179


 6701 00ce 1037     		adds	r7, r7, #16
 6702              	.LCFI254:
 6703              		.cfi_def_cfa_offset 8
 6704 00d0 BD46     		mov	sp, r7
 6705              	.LCFI255:
 6706              		.cfi_def_cfa_register 13
 6707              		@ sp needed
 6708 00d2 80BD     		pop	{r7, pc}
 6709              		.cfi_endproc
 6710              	.LFE112:
 6712              		.section	.text.SPI_EndRxTransaction,"ax",%progbits
 6713              		.align	1
 6714              		.syntax unified
 6715              		.thumb
 6716              		.thumb_func
 6717              		.fpu softvfp
 6719              	SPI_EndRxTransaction:
 6720              	.LFB113:
3509:Drivers/STM32F1xx_HAL_Driver/Src/stm32f1xx_hal_spi.c **** 
3510:Drivers/STM32F1xx_HAL_Driver/Src/stm32f1xx_hal_spi.c **** /**
3511:Drivers/STM32F1xx_HAL_Driver/Src/stm32f1xx_hal_spi.c ****   * @brief  Handle the check of the RX transaction complete.
3512:Drivers/STM32F1xx_HAL_Driver/Src/stm32f1xx_hal_spi.c ****   * @param  hspi pointer to a SPI_HandleTypeDef structure that contains
3513:Drivers/STM32F1xx_HAL_Driver/Src/stm32f1xx_hal_spi.c ****   *               the configuration information for SPI module.
3514:Drivers/STM32F1xx_HAL_Driver/Src/stm32f1xx_hal_spi.c ****   * @param  Timeout Timeout duration
3515:Drivers/STM32F1xx_HAL_Driver/Src/stm32f1xx_hal_spi.c ****   * @param  Tickstart tick start value
3516:Drivers/STM32F1xx_HAL_Driver/Src/stm32f1xx_hal_spi.c ****   * @retval HAL status
3517:Drivers/STM32F1xx_HAL_Driver/Src/stm32f1xx_hal_spi.c ****   */
3518:Drivers/STM32F1xx_HAL_Driver/Src/stm32f1xx_hal_spi.c **** static HAL_StatusTypeDef SPI_EndRxTransaction(SPI_HandleTypeDef *hspi,  uint32_t Timeout, uint32_t 
3519:Drivers/STM32F1xx_HAL_Driver/Src/stm32f1xx_hal_spi.c **** {
 6721              		.loc 1 3519 1
 6722              		.cfi_startproc
 6723              		@ args = 0, pretend = 0, frame = 16
 6724              		@ frame_needed = 1, uses_anonymous_args = 0
 6725 0000 80B5     		push	{r7, lr}
 6726              	.LCFI256:
 6727              		.cfi_def_cfa_offset 8
 6728              		.cfi_offset 7, -8
 6729              		.cfi_offset 14, -4
 6730 0002 86B0     		sub	sp, sp, #24
 6731              	.LCFI257:
 6732              		.cfi_def_cfa_offset 32
 6733 0004 02AF     		add	r7, sp, #8
 6734              	.LCFI258:
 6735              		.cfi_def_cfa 7, 24
 6736 0006 F860     		str	r0, [r7, #12]
 6737 0008 B960     		str	r1, [r7, #8]
 6738 000a 7A60     		str	r2, [r7, #4]
3520:Drivers/STM32F1xx_HAL_Driver/Src/stm32f1xx_hal_spi.c ****   if ((hspi->Init.Mode == SPI_MODE_MASTER) && ((hspi->Init.Direction == SPI_DIRECTION_1LINE)
 6739              		.loc 1 3520 18
 6740 000c FB68     		ldr	r3, [r7, #12]
 6741 000e 5B68     		ldr	r3, [r3, #4]
 6742              		.loc 1 3520 6
 6743 0010 B3F5827F 		cmp	r3, #260
 6744 0014 11D1     		bne	.L321
 6745              		.loc 1 3520 59 discriminator 1
 6746 0016 FB68     		ldr	r3, [r7, #12]
 6747 0018 9B68     		ldr	r3, [r3, #8]
ARM GAS  C:\Users\Alex\AppData\Local\Temp\ccfYuLQH.s 			page 180


 6748              		.loc 1 3520 44 discriminator 1
 6749 001a B3F5004F 		cmp	r3, #32768
 6750 001e 04D0     		beq	.L322
3521:Drivers/STM32F1xx_HAL_Driver/Src/stm32f1xx_hal_spi.c ****                                                || (hspi->Init.Direction == SPI_DIRECTION_2LINES_RXO
 6751              		.loc 1 3521 62
 6752 0020 FB68     		ldr	r3, [r7, #12]
 6753 0022 9B68     		ldr	r3, [r3, #8]
 6754              		.loc 1 3521 48
 6755 0024 B3F5806F 		cmp	r3, #1024
 6756 0028 07D1     		bne	.L321
 6757              	.L322:
3522:Drivers/STM32F1xx_HAL_Driver/Src/stm32f1xx_hal_spi.c ****   {
3523:Drivers/STM32F1xx_HAL_Driver/Src/stm32f1xx_hal_spi.c ****     /* Disable SPI peripheral */
3524:Drivers/STM32F1xx_HAL_Driver/Src/stm32f1xx_hal_spi.c ****     __HAL_SPI_DISABLE(hspi);
 6758              		.loc 1 3524 5
 6759 002a FB68     		ldr	r3, [r7, #12]
 6760 002c 1B68     		ldr	r3, [r3]
 6761 002e 1A68     		ldr	r2, [r3]
 6762 0030 FB68     		ldr	r3, [r7, #12]
 6763 0032 1B68     		ldr	r3, [r3]
 6764 0034 22F04002 		bic	r2, r2, #64
 6765 0038 1A60     		str	r2, [r3]
 6766              	.L321:
3525:Drivers/STM32F1xx_HAL_Driver/Src/stm32f1xx_hal_spi.c ****   }
3526:Drivers/STM32F1xx_HAL_Driver/Src/stm32f1xx_hal_spi.c **** 
3527:Drivers/STM32F1xx_HAL_Driver/Src/stm32f1xx_hal_spi.c ****   if ((hspi->Init.Mode == SPI_MODE_MASTER) && (hspi->Init.Direction == SPI_DIRECTION_2LINES_RXONLY)
 6767              		.loc 1 3527 18
 6768 003a FB68     		ldr	r3, [r7, #12]
 6769 003c 5B68     		ldr	r3, [r3, #4]
 6770              		.loc 1 3527 6
 6771 003e B3F5827F 		cmp	r3, #260
 6772 0042 17D1     		bne	.L323
 6773              		.loc 1 3527 58 discriminator 1
 6774 0044 FB68     		ldr	r3, [r7, #12]
 6775 0046 9B68     		ldr	r3, [r3, #8]
 6776              		.loc 1 3527 44 discriminator 1
 6777 0048 B3F5806F 		cmp	r3, #1024
 6778 004c 12D1     		bne	.L323
3528:Drivers/STM32F1xx_HAL_Driver/Src/stm32f1xx_hal_spi.c ****   {
3529:Drivers/STM32F1xx_HAL_Driver/Src/stm32f1xx_hal_spi.c ****     /* Wait the RXNE reset */
3530:Drivers/STM32F1xx_HAL_Driver/Src/stm32f1xx_hal_spi.c ****     if (SPI_WaitFlagStateUntilTimeout(hspi, SPI_FLAG_RXNE, RESET, Timeout, Tickstart) != HAL_OK)
 6779              		.loc 1 3530 9
 6780 004e 7B68     		ldr	r3, [r7, #4]
 6781 0050 0093     		str	r3, [sp]
 6782 0052 BB68     		ldr	r3, [r7, #8]
 6783 0054 0022     		movs	r2, #0
 6784 0056 0121     		movs	r1, #1
 6785 0058 F868     		ldr	r0, [r7, #12]
 6786 005a FFF7FEFF 		bl	SPI_WaitFlagStateUntilTimeout
 6787 005e 0346     		mov	r3, r0
 6788              		.loc 1 3530 8
 6789 0060 002B     		cmp	r3, #0
 6790 0062 1AD0     		beq	.L326
3531:Drivers/STM32F1xx_HAL_Driver/Src/stm32f1xx_hal_spi.c ****     {
3532:Drivers/STM32F1xx_HAL_Driver/Src/stm32f1xx_hal_spi.c ****       SET_BIT(hspi->ErrorCode, HAL_SPI_ERROR_FLAG);
 6791              		.loc 1 3532 7
 6792 0064 FB68     		ldr	r3, [r7, #12]
ARM GAS  C:\Users\Alex\AppData\Local\Temp\ccfYuLQH.s 			page 181


 6793 0066 5B6D     		ldr	r3, [r3, #84]
 6794 0068 43F02002 		orr	r2, r3, #32
 6795 006c FB68     		ldr	r3, [r7, #12]
 6796 006e 5A65     		str	r2, [r3, #84]
3533:Drivers/STM32F1xx_HAL_Driver/Src/stm32f1xx_hal_spi.c ****       return HAL_TIMEOUT;
 6797              		.loc 1 3533 14
 6798 0070 0323     		movs	r3, #3
 6799 0072 13E0     		b	.L325
 6800              	.L323:
3534:Drivers/STM32F1xx_HAL_Driver/Src/stm32f1xx_hal_spi.c ****     }
3535:Drivers/STM32F1xx_HAL_Driver/Src/stm32f1xx_hal_spi.c ****   }
3536:Drivers/STM32F1xx_HAL_Driver/Src/stm32f1xx_hal_spi.c ****   else
3537:Drivers/STM32F1xx_HAL_Driver/Src/stm32f1xx_hal_spi.c ****   {
3538:Drivers/STM32F1xx_HAL_Driver/Src/stm32f1xx_hal_spi.c ****     /* Control the BSY flag */
3539:Drivers/STM32F1xx_HAL_Driver/Src/stm32f1xx_hal_spi.c ****     if (SPI_WaitFlagStateUntilTimeout(hspi, SPI_FLAG_BSY, RESET, Timeout, Tickstart) != HAL_OK)
 6801              		.loc 1 3539 9
 6802 0074 7B68     		ldr	r3, [r7, #4]
 6803 0076 0093     		str	r3, [sp]
 6804 0078 BB68     		ldr	r3, [r7, #8]
 6805 007a 0022     		movs	r2, #0
 6806 007c 8021     		movs	r1, #128
 6807 007e F868     		ldr	r0, [r7, #12]
 6808 0080 FFF7FEFF 		bl	SPI_WaitFlagStateUntilTimeout
 6809 0084 0346     		mov	r3, r0
 6810              		.loc 1 3539 8
 6811 0086 002B     		cmp	r3, #0
 6812 0088 07D0     		beq	.L326
3540:Drivers/STM32F1xx_HAL_Driver/Src/stm32f1xx_hal_spi.c ****     {
3541:Drivers/STM32F1xx_HAL_Driver/Src/stm32f1xx_hal_spi.c ****       SET_BIT(hspi->ErrorCode, HAL_SPI_ERROR_FLAG);
 6813              		.loc 1 3541 7
 6814 008a FB68     		ldr	r3, [r7, #12]
 6815 008c 5B6D     		ldr	r3, [r3, #84]
 6816 008e 43F02002 		orr	r2, r3, #32
 6817 0092 FB68     		ldr	r3, [r7, #12]
 6818 0094 5A65     		str	r2, [r3, #84]
3542:Drivers/STM32F1xx_HAL_Driver/Src/stm32f1xx_hal_spi.c ****       return HAL_TIMEOUT;
 6819              		.loc 1 3542 14
 6820 0096 0323     		movs	r3, #3
 6821 0098 00E0     		b	.L325
 6822              	.L326:
3543:Drivers/STM32F1xx_HAL_Driver/Src/stm32f1xx_hal_spi.c ****     }
3544:Drivers/STM32F1xx_HAL_Driver/Src/stm32f1xx_hal_spi.c ****   }
3545:Drivers/STM32F1xx_HAL_Driver/Src/stm32f1xx_hal_spi.c ****   return HAL_OK;
 6823              		.loc 1 3545 10
 6824 009a 0023     		movs	r3, #0
 6825              	.L325:
3546:Drivers/STM32F1xx_HAL_Driver/Src/stm32f1xx_hal_spi.c **** }
 6826              		.loc 1 3546 1
 6827 009c 1846     		mov	r0, r3
 6828 009e 1037     		adds	r7, r7, #16
 6829              	.LCFI259:
 6830              		.cfi_def_cfa_offset 8
 6831 00a0 BD46     		mov	sp, r7
 6832              	.LCFI260:
 6833              		.cfi_def_cfa_register 13
 6834              		@ sp needed
 6835 00a2 80BD     		pop	{r7, pc}
ARM GAS  C:\Users\Alex\AppData\Local\Temp\ccfYuLQH.s 			page 182


 6836              		.cfi_endproc
 6837              	.LFE113:
 6839              		.section	.text.SPI_EndRxTxTransaction,"ax",%progbits
 6840              		.align	1
 6841              		.syntax unified
 6842              		.thumb
 6843              		.thumb_func
 6844              		.fpu softvfp
 6846              	SPI_EndRxTxTransaction:
 6847              	.LFB114:
3547:Drivers/STM32F1xx_HAL_Driver/Src/stm32f1xx_hal_spi.c **** 
3548:Drivers/STM32F1xx_HAL_Driver/Src/stm32f1xx_hal_spi.c **** /**
3549:Drivers/STM32F1xx_HAL_Driver/Src/stm32f1xx_hal_spi.c ****   * @brief  Handle the check of the RXTX or TX transaction complete.
3550:Drivers/STM32F1xx_HAL_Driver/Src/stm32f1xx_hal_spi.c ****   * @param  hspi SPI handle
3551:Drivers/STM32F1xx_HAL_Driver/Src/stm32f1xx_hal_spi.c ****   * @param  Timeout Timeout duration
3552:Drivers/STM32F1xx_HAL_Driver/Src/stm32f1xx_hal_spi.c ****   * @param  Tickstart tick start value
3553:Drivers/STM32F1xx_HAL_Driver/Src/stm32f1xx_hal_spi.c ****   * @retval HAL status
3554:Drivers/STM32F1xx_HAL_Driver/Src/stm32f1xx_hal_spi.c ****   */
3555:Drivers/STM32F1xx_HAL_Driver/Src/stm32f1xx_hal_spi.c **** static HAL_StatusTypeDef SPI_EndRxTxTransaction(SPI_HandleTypeDef *hspi, uint32_t Timeout, uint32_t
3556:Drivers/STM32F1xx_HAL_Driver/Src/stm32f1xx_hal_spi.c **** {
 6848              		.loc 1 3556 1
 6849              		.cfi_startproc
 6850              		@ args = 0, pretend = 0, frame = 16
 6851              		@ frame_needed = 1, uses_anonymous_args = 0
 6852 0000 80B5     		push	{r7, lr}
 6853              	.LCFI261:
 6854              		.cfi_def_cfa_offset 8
 6855              		.cfi_offset 7, -8
 6856              		.cfi_offset 14, -4
 6857 0002 86B0     		sub	sp, sp, #24
 6858              	.LCFI262:
 6859              		.cfi_def_cfa_offset 32
 6860 0004 02AF     		add	r7, sp, #8
 6861              	.LCFI263:
 6862              		.cfi_def_cfa 7, 24
 6863 0006 F860     		str	r0, [r7, #12]
 6864 0008 B960     		str	r1, [r7, #8]
 6865 000a 7A60     		str	r2, [r7, #4]
3557:Drivers/STM32F1xx_HAL_Driver/Src/stm32f1xx_hal_spi.c ****   /* Control the BSY flag */
3558:Drivers/STM32F1xx_HAL_Driver/Src/stm32f1xx_hal_spi.c ****   if (SPI_WaitFlagStateUntilTimeout(hspi, SPI_FLAG_BSY, RESET, Timeout, Tickstart) != HAL_OK)
 6866              		.loc 1 3558 7
 6867 000c 7B68     		ldr	r3, [r7, #4]
 6868 000e 0093     		str	r3, [sp]
 6869 0010 BB68     		ldr	r3, [r7, #8]
 6870 0012 0022     		movs	r2, #0
 6871 0014 8021     		movs	r1, #128
 6872 0016 F868     		ldr	r0, [r7, #12]
 6873 0018 FFF7FEFF 		bl	SPI_WaitFlagStateUntilTimeout
 6874 001c 0346     		mov	r3, r0
 6875              		.loc 1 3558 6
 6876 001e 002B     		cmp	r3, #0
 6877 0020 07D0     		beq	.L328
3559:Drivers/STM32F1xx_HAL_Driver/Src/stm32f1xx_hal_spi.c ****   {
3560:Drivers/STM32F1xx_HAL_Driver/Src/stm32f1xx_hal_spi.c ****     SET_BIT(hspi->ErrorCode, HAL_SPI_ERROR_FLAG);
 6878              		.loc 1 3560 5
 6879 0022 FB68     		ldr	r3, [r7, #12]
 6880 0024 5B6D     		ldr	r3, [r3, #84]
ARM GAS  C:\Users\Alex\AppData\Local\Temp\ccfYuLQH.s 			page 183


 6881 0026 43F02002 		orr	r2, r3, #32
 6882 002a FB68     		ldr	r3, [r7, #12]
 6883 002c 5A65     		str	r2, [r3, #84]
3561:Drivers/STM32F1xx_HAL_Driver/Src/stm32f1xx_hal_spi.c ****     return HAL_TIMEOUT;
 6884              		.loc 1 3561 12
 6885 002e 0323     		movs	r3, #3
 6886 0030 00E0     		b	.L329
 6887              	.L328:
3562:Drivers/STM32F1xx_HAL_Driver/Src/stm32f1xx_hal_spi.c ****   }
3563:Drivers/STM32F1xx_HAL_Driver/Src/stm32f1xx_hal_spi.c ****   return HAL_OK;
 6888              		.loc 1 3563 10
 6889 0032 0023     		movs	r3, #0
 6890              	.L329:
3564:Drivers/STM32F1xx_HAL_Driver/Src/stm32f1xx_hal_spi.c **** }
 6891              		.loc 1 3564 1
 6892 0034 1846     		mov	r0, r3
 6893 0036 1037     		adds	r7, r7, #16
 6894              	.LCFI264:
 6895              		.cfi_def_cfa_offset 8
 6896 0038 BD46     		mov	sp, r7
 6897              	.LCFI265:
 6898              		.cfi_def_cfa_register 13
 6899              		@ sp needed
 6900 003a 80BD     		pop	{r7, pc}
 6901              		.cfi_endproc
 6902              	.LFE114:
 6904              		.section	.text.SPI_CloseRxTx_ISR,"ax",%progbits
 6905              		.align	1
 6906              		.syntax unified
 6907              		.thumb
 6908              		.thumb_func
 6909              		.fpu softvfp
 6911              	SPI_CloseRxTx_ISR:
 6912              	.LFB115:
3565:Drivers/STM32F1xx_HAL_Driver/Src/stm32f1xx_hal_spi.c **** 
3566:Drivers/STM32F1xx_HAL_Driver/Src/stm32f1xx_hal_spi.c **** /**
3567:Drivers/STM32F1xx_HAL_Driver/Src/stm32f1xx_hal_spi.c ****   * @brief  Handle the end of the RXTX transaction.
3568:Drivers/STM32F1xx_HAL_Driver/Src/stm32f1xx_hal_spi.c ****   * @param  hspi pointer to a SPI_HandleTypeDef structure that contains
3569:Drivers/STM32F1xx_HAL_Driver/Src/stm32f1xx_hal_spi.c ****   *               the configuration information for SPI module.
3570:Drivers/STM32F1xx_HAL_Driver/Src/stm32f1xx_hal_spi.c ****   * @retval None
3571:Drivers/STM32F1xx_HAL_Driver/Src/stm32f1xx_hal_spi.c ****   */
3572:Drivers/STM32F1xx_HAL_Driver/Src/stm32f1xx_hal_spi.c **** static void SPI_CloseRxTx_ISR(SPI_HandleTypeDef *hspi)
3573:Drivers/STM32F1xx_HAL_Driver/Src/stm32f1xx_hal_spi.c **** {
 6913              		.loc 1 3573 1
 6914              		.cfi_startproc
 6915              		@ args = 0, pretend = 0, frame = 24
 6916              		@ frame_needed = 1, uses_anonymous_args = 0
 6917 0000 80B5     		push	{r7, lr}
 6918              	.LCFI266:
 6919              		.cfi_def_cfa_offset 8
 6920              		.cfi_offset 7, -8
 6921              		.cfi_offset 14, -4
 6922 0002 86B0     		sub	sp, sp, #24
 6923              	.LCFI267:
 6924              		.cfi_def_cfa_offset 32
 6925 0004 00AF     		add	r7, sp, #0
 6926              	.LCFI268:
ARM GAS  C:\Users\Alex\AppData\Local\Temp\ccfYuLQH.s 			page 184


 6927              		.cfi_def_cfa_register 7
 6928 0006 7860     		str	r0, [r7, #4]
3574:Drivers/STM32F1xx_HAL_Driver/Src/stm32f1xx_hal_spi.c ****   uint32_t tickstart;
3575:Drivers/STM32F1xx_HAL_Driver/Src/stm32f1xx_hal_spi.c ****   __IO uint32_t count = SPI_DEFAULT_TIMEOUT * (SystemCoreClock / 24U / 1000U);
 6929              		.loc 1 3575 70
 6930 0008 354B     		ldr	r3, .L341
 6931 000a 1B68     		ldr	r3, [r3]
 6932 000c 354A     		ldr	r2, .L341+4
 6933 000e A2FB0323 		umull	r2, r3, r2, r3
 6934 0012 5B0A     		lsrs	r3, r3, #9
 6935              		.loc 1 3575 45
 6936 0014 6422     		movs	r2, #100
 6937 0016 02FB03F3 		mul	r3, r2, r3
 6938              		.loc 1 3575 17
 6939 001a 3B61     		str	r3, [r7, #16]
3576:Drivers/STM32F1xx_HAL_Driver/Src/stm32f1xx_hal_spi.c **** 
3577:Drivers/STM32F1xx_HAL_Driver/Src/stm32f1xx_hal_spi.c ****   /* Init tickstart for timeout managment*/
3578:Drivers/STM32F1xx_HAL_Driver/Src/stm32f1xx_hal_spi.c ****   tickstart = HAL_GetTick();
 6940              		.loc 1 3578 15
 6941 001c FFF7FEFF 		bl	HAL_GetTick
 6942 0020 7861     		str	r0, [r7, #20]
3579:Drivers/STM32F1xx_HAL_Driver/Src/stm32f1xx_hal_spi.c **** 
3580:Drivers/STM32F1xx_HAL_Driver/Src/stm32f1xx_hal_spi.c ****   /* Disable ERR interrupt */
3581:Drivers/STM32F1xx_HAL_Driver/Src/stm32f1xx_hal_spi.c ****   __HAL_SPI_DISABLE_IT(hspi, SPI_IT_ERR);
 6943              		.loc 1 3581 3
 6944 0022 7B68     		ldr	r3, [r7, #4]
 6945 0024 1B68     		ldr	r3, [r3]
 6946 0026 5A68     		ldr	r2, [r3, #4]
 6947 0028 7B68     		ldr	r3, [r7, #4]
 6948 002a 1B68     		ldr	r3, [r3]
 6949 002c 22F02002 		bic	r2, r2, #32
 6950 0030 5A60     		str	r2, [r3, #4]
 6951              	.L333:
3582:Drivers/STM32F1xx_HAL_Driver/Src/stm32f1xx_hal_spi.c **** 
3583:Drivers/STM32F1xx_HAL_Driver/Src/stm32f1xx_hal_spi.c ****   /* Wait until TXE flag is set */
3584:Drivers/STM32F1xx_HAL_Driver/Src/stm32f1xx_hal_spi.c ****   do
3585:Drivers/STM32F1xx_HAL_Driver/Src/stm32f1xx_hal_spi.c ****   {
3586:Drivers/STM32F1xx_HAL_Driver/Src/stm32f1xx_hal_spi.c ****     if (count == 0U)
 6952              		.loc 1 3586 15
 6953 0032 3B69     		ldr	r3, [r7, #16]
 6954              		.loc 1 3586 8
 6955 0034 002B     		cmp	r3, #0
 6956 0036 06D1     		bne	.L331
3587:Drivers/STM32F1xx_HAL_Driver/Src/stm32f1xx_hal_spi.c ****     {
3588:Drivers/STM32F1xx_HAL_Driver/Src/stm32f1xx_hal_spi.c ****       SET_BIT(hspi->ErrorCode, HAL_SPI_ERROR_FLAG);
 6957              		.loc 1 3588 7
 6958 0038 7B68     		ldr	r3, [r7, #4]
 6959 003a 5B6D     		ldr	r3, [r3, #84]
 6960 003c 43F02002 		orr	r2, r3, #32
 6961 0040 7B68     		ldr	r3, [r7, #4]
 6962 0042 5A65     		str	r2, [r3, #84]
3589:Drivers/STM32F1xx_HAL_Driver/Src/stm32f1xx_hal_spi.c ****       break;
 6963              		.loc 1 3589 7
 6964 0044 09E0     		b	.L332
 6965              	.L331:
3590:Drivers/STM32F1xx_HAL_Driver/Src/stm32f1xx_hal_spi.c ****     }
3591:Drivers/STM32F1xx_HAL_Driver/Src/stm32f1xx_hal_spi.c ****     count--;
ARM GAS  C:\Users\Alex\AppData\Local\Temp\ccfYuLQH.s 			page 185


 6966              		.loc 1 3591 10
 6967 0046 3B69     		ldr	r3, [r7, #16]
 6968 0048 013B     		subs	r3, r3, #1
 6969 004a 3B61     		str	r3, [r7, #16]
3592:Drivers/STM32F1xx_HAL_Driver/Src/stm32f1xx_hal_spi.c ****   } while ((hspi->Instance->SR & SPI_FLAG_TXE) == RESET);
 6970              		.loc 1 3592 17
 6971 004c 7B68     		ldr	r3, [r7, #4]
 6972 004e 1B68     		ldr	r3, [r3]
 6973              		.loc 1 3592 27
 6974 0050 9B68     		ldr	r3, [r3, #8]
 6975              		.loc 1 3592 32
 6976 0052 03F00203 		and	r3, r3, #2
 6977              		.loc 1 3592 3
 6978 0056 002B     		cmp	r3, #0
 6979 0058 EBD0     		beq	.L333
 6980              	.L332:
3593:Drivers/STM32F1xx_HAL_Driver/Src/stm32f1xx_hal_spi.c **** 
3594:Drivers/STM32F1xx_HAL_Driver/Src/stm32f1xx_hal_spi.c ****   /* Check the end of the transaction */
3595:Drivers/STM32F1xx_HAL_Driver/Src/stm32f1xx_hal_spi.c ****   if (SPI_EndRxTxTransaction(hspi, SPI_DEFAULT_TIMEOUT, tickstart) != HAL_OK)
 6981              		.loc 1 3595 7
 6982 005a 7A69     		ldr	r2, [r7, #20]
 6983 005c 6421     		movs	r1, #100
 6984 005e 7868     		ldr	r0, [r7, #4]
 6985 0060 FFF7FEFF 		bl	SPI_EndRxTxTransaction
 6986 0064 0346     		mov	r3, r0
 6987              		.loc 1 3595 6
 6988 0066 002B     		cmp	r3, #0
 6989 0068 05D0     		beq	.L334
3596:Drivers/STM32F1xx_HAL_Driver/Src/stm32f1xx_hal_spi.c ****   {
3597:Drivers/STM32F1xx_HAL_Driver/Src/stm32f1xx_hal_spi.c ****     SET_BIT(hspi->ErrorCode, HAL_SPI_ERROR_FLAG);
 6990              		.loc 1 3597 5
 6991 006a 7B68     		ldr	r3, [r7, #4]
 6992 006c 5B6D     		ldr	r3, [r3, #84]
 6993 006e 43F02002 		orr	r2, r3, #32
 6994 0072 7B68     		ldr	r3, [r7, #4]
 6995 0074 5A65     		str	r2, [r3, #84]
 6996              	.L334:
3598:Drivers/STM32F1xx_HAL_Driver/Src/stm32f1xx_hal_spi.c ****   }
3599:Drivers/STM32F1xx_HAL_Driver/Src/stm32f1xx_hal_spi.c **** 
3600:Drivers/STM32F1xx_HAL_Driver/Src/stm32f1xx_hal_spi.c ****   /* Clear overrun flag in 2 Lines communication mode because received is not read */
3601:Drivers/STM32F1xx_HAL_Driver/Src/stm32f1xx_hal_spi.c ****   if (hspi->Init.Direction == SPI_DIRECTION_2LINES)
 6997              		.loc 1 3601 17
 6998 0076 7B68     		ldr	r3, [r7, #4]
 6999 0078 9B68     		ldr	r3, [r3, #8]
 7000              		.loc 1 3601 6
 7001 007a 002B     		cmp	r3, #0
 7002 007c 0AD1     		bne	.L335
 7003              	.LBB12:
3602:Drivers/STM32F1xx_HAL_Driver/Src/stm32f1xx_hal_spi.c ****   {
3603:Drivers/STM32F1xx_HAL_Driver/Src/stm32f1xx_hal_spi.c ****     __HAL_SPI_CLEAR_OVRFLAG(hspi);
 7004              		.loc 1 3603 5
 7005 007e 0023     		movs	r3, #0
 7006 0080 FB60     		str	r3, [r7, #12]
 7007 0082 7B68     		ldr	r3, [r7, #4]
 7008 0084 1B68     		ldr	r3, [r3]
 7009 0086 DB68     		ldr	r3, [r3, #12]
 7010 0088 FB60     		str	r3, [r7, #12]
ARM GAS  C:\Users\Alex\AppData\Local\Temp\ccfYuLQH.s 			page 186


 7011 008a 7B68     		ldr	r3, [r7, #4]
 7012 008c 1B68     		ldr	r3, [r3]
 7013 008e 9B68     		ldr	r3, [r3, #8]
 7014 0090 FB60     		str	r3, [r7, #12]
 7015 0092 FB68     		ldr	r3, [r7, #12]
 7016              	.L335:
 7017              	.LBE12:
3604:Drivers/STM32F1xx_HAL_Driver/Src/stm32f1xx_hal_spi.c ****   }
3605:Drivers/STM32F1xx_HAL_Driver/Src/stm32f1xx_hal_spi.c **** 
3606:Drivers/STM32F1xx_HAL_Driver/Src/stm32f1xx_hal_spi.c **** #if (USE_SPI_CRC != 0U)
3607:Drivers/STM32F1xx_HAL_Driver/Src/stm32f1xx_hal_spi.c ****   /* Check if CRC error occurred */
3608:Drivers/STM32F1xx_HAL_Driver/Src/stm32f1xx_hal_spi.c ****   if (__HAL_SPI_GET_FLAG(hspi, SPI_FLAG_CRCERR) != RESET)
3609:Drivers/STM32F1xx_HAL_Driver/Src/stm32f1xx_hal_spi.c ****   {
3610:Drivers/STM32F1xx_HAL_Driver/Src/stm32f1xx_hal_spi.c ****     /* Check if CRC error is valid or not (workaround to be applied or not) */
3611:Drivers/STM32F1xx_HAL_Driver/Src/stm32f1xx_hal_spi.c ****     if (SPI_ISCRCErrorValid(hspi) == SPI_VALID_CRC_ERROR)
3612:Drivers/STM32F1xx_HAL_Driver/Src/stm32f1xx_hal_spi.c ****     {
3613:Drivers/STM32F1xx_HAL_Driver/Src/stm32f1xx_hal_spi.c ****       hspi->State = HAL_SPI_STATE_READY;
3614:Drivers/STM32F1xx_HAL_Driver/Src/stm32f1xx_hal_spi.c ****       SET_BIT(hspi->ErrorCode, HAL_SPI_ERROR_CRC);
3615:Drivers/STM32F1xx_HAL_Driver/Src/stm32f1xx_hal_spi.c **** 
3616:Drivers/STM32F1xx_HAL_Driver/Src/stm32f1xx_hal_spi.c ****       /* Reset CRC Calculation */
3617:Drivers/STM32F1xx_HAL_Driver/Src/stm32f1xx_hal_spi.c ****       SPI_RESET_CRC(hspi);
3618:Drivers/STM32F1xx_HAL_Driver/Src/stm32f1xx_hal_spi.c **** 
3619:Drivers/STM32F1xx_HAL_Driver/Src/stm32f1xx_hal_spi.c ****       /* Call user error callback */
3620:Drivers/STM32F1xx_HAL_Driver/Src/stm32f1xx_hal_spi.c **** #if (USE_HAL_SPI_REGISTER_CALLBACKS == 1U)
3621:Drivers/STM32F1xx_HAL_Driver/Src/stm32f1xx_hal_spi.c ****       hspi->ErrorCallback(hspi);
3622:Drivers/STM32F1xx_HAL_Driver/Src/stm32f1xx_hal_spi.c **** #else
3623:Drivers/STM32F1xx_HAL_Driver/Src/stm32f1xx_hal_spi.c ****       HAL_SPI_ErrorCallback(hspi);
3624:Drivers/STM32F1xx_HAL_Driver/Src/stm32f1xx_hal_spi.c **** #endif /* USE_HAL_SPI_REGISTER_CALLBACKS */
3625:Drivers/STM32F1xx_HAL_Driver/Src/stm32f1xx_hal_spi.c ****     }
3626:Drivers/STM32F1xx_HAL_Driver/Src/stm32f1xx_hal_spi.c ****     else
3627:Drivers/STM32F1xx_HAL_Driver/Src/stm32f1xx_hal_spi.c ****     {
3628:Drivers/STM32F1xx_HAL_Driver/Src/stm32f1xx_hal_spi.c ****       __HAL_SPI_CLEAR_CRCERRFLAG(hspi);
3629:Drivers/STM32F1xx_HAL_Driver/Src/stm32f1xx_hal_spi.c ****     }
3630:Drivers/STM32F1xx_HAL_Driver/Src/stm32f1xx_hal_spi.c ****   }
3631:Drivers/STM32F1xx_HAL_Driver/Src/stm32f1xx_hal_spi.c ****   else
3632:Drivers/STM32F1xx_HAL_Driver/Src/stm32f1xx_hal_spi.c ****   {
3633:Drivers/STM32F1xx_HAL_Driver/Src/stm32f1xx_hal_spi.c **** #endif /* USE_SPI_CRC */
3634:Drivers/STM32F1xx_HAL_Driver/Src/stm32f1xx_hal_spi.c ****     if (hspi->ErrorCode == HAL_SPI_ERROR_NONE)
 7018              		.loc 1 3634 13
 7019 0094 7B68     		ldr	r3, [r7, #4]
 7020 0096 5B6D     		ldr	r3, [r3, #84]
 7021              		.loc 1 3634 8
 7022 0098 002B     		cmp	r3, #0
 7023 009a 15D1     		bne	.L336
3635:Drivers/STM32F1xx_HAL_Driver/Src/stm32f1xx_hal_spi.c ****     {
3636:Drivers/STM32F1xx_HAL_Driver/Src/stm32f1xx_hal_spi.c ****       if (hspi->State == HAL_SPI_STATE_BUSY_RX)
 7024              		.loc 1 3636 15
 7025 009c 7B68     		ldr	r3, [r7, #4]
 7026 009e 93F85130 		ldrb	r3, [r3, #81]
 7027 00a2 DBB2     		uxtb	r3, r3
 7028              		.loc 1 3636 10
 7029 00a4 042B     		cmp	r3, #4
 7030 00a6 07D1     		bne	.L337
3637:Drivers/STM32F1xx_HAL_Driver/Src/stm32f1xx_hal_spi.c ****       {
3638:Drivers/STM32F1xx_HAL_Driver/Src/stm32f1xx_hal_spi.c ****         hspi->State = HAL_SPI_STATE_READY;
 7031              		.loc 1 3638 21
 7032 00a8 7B68     		ldr	r3, [r7, #4]
ARM GAS  C:\Users\Alex\AppData\Local\Temp\ccfYuLQH.s 			page 187


 7033 00aa 0122     		movs	r2, #1
 7034 00ac 83F85120 		strb	r2, [r3, #81]
3639:Drivers/STM32F1xx_HAL_Driver/Src/stm32f1xx_hal_spi.c ****         /* Call user Rx complete callback */
3640:Drivers/STM32F1xx_HAL_Driver/Src/stm32f1xx_hal_spi.c **** #if (USE_HAL_SPI_REGISTER_CALLBACKS == 1U)
3641:Drivers/STM32F1xx_HAL_Driver/Src/stm32f1xx_hal_spi.c ****         hspi->RxCpltCallback(hspi);
3642:Drivers/STM32F1xx_HAL_Driver/Src/stm32f1xx_hal_spi.c **** #else
3643:Drivers/STM32F1xx_HAL_Driver/Src/stm32f1xx_hal_spi.c ****         HAL_SPI_RxCpltCallback(hspi);
 7035              		.loc 1 3643 9
 7036 00b0 7868     		ldr	r0, [r7, #4]
 7037 00b2 FFF7FEFF 		bl	HAL_SPI_RxCpltCallback
3644:Drivers/STM32F1xx_HAL_Driver/Src/stm32f1xx_hal_spi.c **** #endif /* USE_HAL_SPI_REGISTER_CALLBACKS */
3645:Drivers/STM32F1xx_HAL_Driver/Src/stm32f1xx_hal_spi.c ****       }
3646:Drivers/STM32F1xx_HAL_Driver/Src/stm32f1xx_hal_spi.c ****       else
3647:Drivers/STM32F1xx_HAL_Driver/Src/stm32f1xx_hal_spi.c ****       {
3648:Drivers/STM32F1xx_HAL_Driver/Src/stm32f1xx_hal_spi.c ****         hspi->State = HAL_SPI_STATE_READY;
3649:Drivers/STM32F1xx_HAL_Driver/Src/stm32f1xx_hal_spi.c ****         /* Call user TxRx complete callback */
3650:Drivers/STM32F1xx_HAL_Driver/Src/stm32f1xx_hal_spi.c **** #if (USE_HAL_SPI_REGISTER_CALLBACKS == 1U)
3651:Drivers/STM32F1xx_HAL_Driver/Src/stm32f1xx_hal_spi.c ****         hspi->TxRxCpltCallback(hspi);
3652:Drivers/STM32F1xx_HAL_Driver/Src/stm32f1xx_hal_spi.c **** #else
3653:Drivers/STM32F1xx_HAL_Driver/Src/stm32f1xx_hal_spi.c ****         HAL_SPI_TxRxCpltCallback(hspi);
3654:Drivers/STM32F1xx_HAL_Driver/Src/stm32f1xx_hal_spi.c **** #endif /* USE_HAL_SPI_REGISTER_CALLBACKS */
3655:Drivers/STM32F1xx_HAL_Driver/Src/stm32f1xx_hal_spi.c ****       }
3656:Drivers/STM32F1xx_HAL_Driver/Src/stm32f1xx_hal_spi.c ****     }
3657:Drivers/STM32F1xx_HAL_Driver/Src/stm32f1xx_hal_spi.c ****     else
3658:Drivers/STM32F1xx_HAL_Driver/Src/stm32f1xx_hal_spi.c ****     {
3659:Drivers/STM32F1xx_HAL_Driver/Src/stm32f1xx_hal_spi.c ****       hspi->State = HAL_SPI_STATE_READY;
3660:Drivers/STM32F1xx_HAL_Driver/Src/stm32f1xx_hal_spi.c ****       /* Call user error callback */
3661:Drivers/STM32F1xx_HAL_Driver/Src/stm32f1xx_hal_spi.c **** #if (USE_HAL_SPI_REGISTER_CALLBACKS == 1U)
3662:Drivers/STM32F1xx_HAL_Driver/Src/stm32f1xx_hal_spi.c ****       hspi->ErrorCallback(hspi);
3663:Drivers/STM32F1xx_HAL_Driver/Src/stm32f1xx_hal_spi.c **** #else
3664:Drivers/STM32F1xx_HAL_Driver/Src/stm32f1xx_hal_spi.c ****       HAL_SPI_ErrorCallback(hspi);
3665:Drivers/STM32F1xx_HAL_Driver/Src/stm32f1xx_hal_spi.c **** #endif /* USE_HAL_SPI_REGISTER_CALLBACKS */
3666:Drivers/STM32F1xx_HAL_Driver/Src/stm32f1xx_hal_spi.c ****     }
3667:Drivers/STM32F1xx_HAL_Driver/Src/stm32f1xx_hal_spi.c **** #if (USE_SPI_CRC != 0U)
3668:Drivers/STM32F1xx_HAL_Driver/Src/stm32f1xx_hal_spi.c ****   }
3669:Drivers/STM32F1xx_HAL_Driver/Src/stm32f1xx_hal_spi.c **** #endif /* USE_SPI_CRC */
3670:Drivers/STM32F1xx_HAL_Driver/Src/stm32f1xx_hal_spi.c **** }
 7038              		.loc 1 3670 1
 7039 00b6 0EE0     		b	.L340
 7040              	.L337:
3648:Drivers/STM32F1xx_HAL_Driver/Src/stm32f1xx_hal_spi.c ****         /* Call user TxRx complete callback */
 7041              		.loc 1 3648 21
 7042 00b8 7B68     		ldr	r3, [r7, #4]
 7043 00ba 0122     		movs	r2, #1
 7044 00bc 83F85120 		strb	r2, [r3, #81]
3653:Drivers/STM32F1xx_HAL_Driver/Src/stm32f1xx_hal_spi.c **** #endif /* USE_HAL_SPI_REGISTER_CALLBACKS */
 7045              		.loc 1 3653 9
 7046 00c0 7868     		ldr	r0, [r7, #4]
 7047 00c2 FFF7FEFF 		bl	HAL_SPI_TxRxCpltCallback
 7048              		.loc 1 3670 1
 7049 00c6 06E0     		b	.L340
 7050              	.L336:
3659:Drivers/STM32F1xx_HAL_Driver/Src/stm32f1xx_hal_spi.c ****       /* Call user error callback */
 7051              		.loc 1 3659 19
 7052 00c8 7B68     		ldr	r3, [r7, #4]
 7053 00ca 0122     		movs	r2, #1
 7054 00cc 83F85120 		strb	r2, [r3, #81]
ARM GAS  C:\Users\Alex\AppData\Local\Temp\ccfYuLQH.s 			page 188


3664:Drivers/STM32F1xx_HAL_Driver/Src/stm32f1xx_hal_spi.c **** #endif /* USE_HAL_SPI_REGISTER_CALLBACKS */
 7055              		.loc 1 3664 7
 7056 00d0 7868     		ldr	r0, [r7, #4]
 7057 00d2 FFF7FEFF 		bl	HAL_SPI_ErrorCallback
 7058              	.L340:
 7059              		.loc 1 3670 1
 7060 00d6 00BF     		nop
 7061 00d8 1837     		adds	r7, r7, #24
 7062              	.LCFI269:
 7063              		.cfi_def_cfa_offset 8
 7064 00da BD46     		mov	sp, r7
 7065              	.LCFI270:
 7066              		.cfi_def_cfa_register 13
 7067              		@ sp needed
 7068 00dc 80BD     		pop	{r7, pc}
 7069              	.L342:
 7070 00de 00BF     		.align	2
 7071              	.L341:
 7072 00e0 00000000 		.word	SystemCoreClock
 7073 00e4 F1197605 		.word	91625969
 7074              		.cfi_endproc
 7075              	.LFE115:
 7077              		.section	.text.SPI_CloseRx_ISR,"ax",%progbits
 7078              		.align	1
 7079              		.syntax unified
 7080              		.thumb
 7081              		.thumb_func
 7082              		.fpu softvfp
 7084              	SPI_CloseRx_ISR:
 7085              	.LFB116:
3671:Drivers/STM32F1xx_HAL_Driver/Src/stm32f1xx_hal_spi.c **** 
3672:Drivers/STM32F1xx_HAL_Driver/Src/stm32f1xx_hal_spi.c **** /**
3673:Drivers/STM32F1xx_HAL_Driver/Src/stm32f1xx_hal_spi.c ****   * @brief  Handle the end of the RX transaction.
3674:Drivers/STM32F1xx_HAL_Driver/Src/stm32f1xx_hal_spi.c ****   * @param  hspi pointer to a SPI_HandleTypeDef structure that contains
3675:Drivers/STM32F1xx_HAL_Driver/Src/stm32f1xx_hal_spi.c ****   *               the configuration information for SPI module.
3676:Drivers/STM32F1xx_HAL_Driver/Src/stm32f1xx_hal_spi.c ****   * @retval None
3677:Drivers/STM32F1xx_HAL_Driver/Src/stm32f1xx_hal_spi.c ****   */
3678:Drivers/STM32F1xx_HAL_Driver/Src/stm32f1xx_hal_spi.c **** static void SPI_CloseRx_ISR(SPI_HandleTypeDef *hspi)
3679:Drivers/STM32F1xx_HAL_Driver/Src/stm32f1xx_hal_spi.c **** {
 7086              		.loc 1 3679 1
 7087              		.cfi_startproc
 7088              		@ args = 0, pretend = 0, frame = 16
 7089              		@ frame_needed = 1, uses_anonymous_args = 0
 7090 0000 80B5     		push	{r7, lr}
 7091              	.LCFI271:
 7092              		.cfi_def_cfa_offset 8
 7093              		.cfi_offset 7, -8
 7094              		.cfi_offset 14, -4
 7095 0002 84B0     		sub	sp, sp, #16
 7096              	.LCFI272:
 7097              		.cfi_def_cfa_offset 24
 7098 0004 00AF     		add	r7, sp, #0
 7099              	.LCFI273:
 7100              		.cfi_def_cfa_register 7
 7101 0006 7860     		str	r0, [r7, #4]
3680:Drivers/STM32F1xx_HAL_Driver/Src/stm32f1xx_hal_spi.c ****   /* Disable RXNE and ERR interrupt */
3681:Drivers/STM32F1xx_HAL_Driver/Src/stm32f1xx_hal_spi.c ****   __HAL_SPI_DISABLE_IT(hspi, (SPI_IT_RXNE | SPI_IT_ERR));
ARM GAS  C:\Users\Alex\AppData\Local\Temp\ccfYuLQH.s 			page 189


 7102              		.loc 1 3681 3
 7103 0008 7B68     		ldr	r3, [r7, #4]
 7104 000a 1B68     		ldr	r3, [r3]
 7105 000c 5A68     		ldr	r2, [r3, #4]
 7106 000e 7B68     		ldr	r3, [r7, #4]
 7107 0010 1B68     		ldr	r3, [r3]
 7108 0012 22F06002 		bic	r2, r2, #96
 7109 0016 5A60     		str	r2, [r3, #4]
3682:Drivers/STM32F1xx_HAL_Driver/Src/stm32f1xx_hal_spi.c **** 
3683:Drivers/STM32F1xx_HAL_Driver/Src/stm32f1xx_hal_spi.c ****   /* Check the end of the transaction */
3684:Drivers/STM32F1xx_HAL_Driver/Src/stm32f1xx_hal_spi.c ****   if (SPI_EndRxTransaction(hspi, SPI_DEFAULT_TIMEOUT, HAL_GetTick()) != HAL_OK)
 7110              		.loc 1 3684 7
 7111 0018 FFF7FEFF 		bl	HAL_GetTick
 7112 001c 0346     		mov	r3, r0
 7113 001e 1A46     		mov	r2, r3
 7114 0020 6421     		movs	r1, #100
 7115 0022 7868     		ldr	r0, [r7, #4]
 7116 0024 FFF7FEFF 		bl	SPI_EndRxTransaction
 7117 0028 0346     		mov	r3, r0
 7118              		.loc 1 3684 6
 7119 002a 002B     		cmp	r3, #0
 7120 002c 05D0     		beq	.L344
3685:Drivers/STM32F1xx_HAL_Driver/Src/stm32f1xx_hal_spi.c ****   {
3686:Drivers/STM32F1xx_HAL_Driver/Src/stm32f1xx_hal_spi.c ****     SET_BIT(hspi->ErrorCode, HAL_SPI_ERROR_FLAG);
 7121              		.loc 1 3686 5
 7122 002e 7B68     		ldr	r3, [r7, #4]
 7123 0030 5B6D     		ldr	r3, [r3, #84]
 7124 0032 43F02002 		orr	r2, r3, #32
 7125 0036 7B68     		ldr	r3, [r7, #4]
 7126 0038 5A65     		str	r2, [r3, #84]
 7127              	.L344:
3687:Drivers/STM32F1xx_HAL_Driver/Src/stm32f1xx_hal_spi.c ****   }
3688:Drivers/STM32F1xx_HAL_Driver/Src/stm32f1xx_hal_spi.c **** 
3689:Drivers/STM32F1xx_HAL_Driver/Src/stm32f1xx_hal_spi.c ****   /* Clear overrun flag in 2 Lines communication mode because received is not read */
3690:Drivers/STM32F1xx_HAL_Driver/Src/stm32f1xx_hal_spi.c ****   if (hspi->Init.Direction == SPI_DIRECTION_2LINES)
 7128              		.loc 1 3690 17
 7129 003a 7B68     		ldr	r3, [r7, #4]
 7130 003c 9B68     		ldr	r3, [r3, #8]
 7131              		.loc 1 3690 6
 7132 003e 002B     		cmp	r3, #0
 7133 0040 0AD1     		bne	.L345
 7134              	.LBB13:
3691:Drivers/STM32F1xx_HAL_Driver/Src/stm32f1xx_hal_spi.c ****   {
3692:Drivers/STM32F1xx_HAL_Driver/Src/stm32f1xx_hal_spi.c ****     __HAL_SPI_CLEAR_OVRFLAG(hspi);
 7135              		.loc 1 3692 5
 7136 0042 0023     		movs	r3, #0
 7137 0044 FB60     		str	r3, [r7, #12]
 7138 0046 7B68     		ldr	r3, [r7, #4]
 7139 0048 1B68     		ldr	r3, [r3]
 7140 004a DB68     		ldr	r3, [r3, #12]
 7141 004c FB60     		str	r3, [r7, #12]
 7142 004e 7B68     		ldr	r3, [r7, #4]
 7143 0050 1B68     		ldr	r3, [r3]
 7144 0052 9B68     		ldr	r3, [r3, #8]
 7145 0054 FB60     		str	r3, [r7, #12]
 7146 0056 FB68     		ldr	r3, [r7, #12]
 7147              	.L345:
ARM GAS  C:\Users\Alex\AppData\Local\Temp\ccfYuLQH.s 			page 190


 7148              	.LBE13:
3693:Drivers/STM32F1xx_HAL_Driver/Src/stm32f1xx_hal_spi.c ****   }
3694:Drivers/STM32F1xx_HAL_Driver/Src/stm32f1xx_hal_spi.c ****   hspi->State = HAL_SPI_STATE_READY;
 7149              		.loc 1 3694 15
 7150 0058 7B68     		ldr	r3, [r7, #4]
 7151 005a 0122     		movs	r2, #1
 7152 005c 83F85120 		strb	r2, [r3, #81]
3695:Drivers/STM32F1xx_HAL_Driver/Src/stm32f1xx_hal_spi.c **** 
3696:Drivers/STM32F1xx_HAL_Driver/Src/stm32f1xx_hal_spi.c **** #if (USE_SPI_CRC != 0U)
3697:Drivers/STM32F1xx_HAL_Driver/Src/stm32f1xx_hal_spi.c ****   /* Check if CRC error occurred */
3698:Drivers/STM32F1xx_HAL_Driver/Src/stm32f1xx_hal_spi.c ****   if (__HAL_SPI_GET_FLAG(hspi, SPI_FLAG_CRCERR) != RESET)
3699:Drivers/STM32F1xx_HAL_Driver/Src/stm32f1xx_hal_spi.c ****   {
3700:Drivers/STM32F1xx_HAL_Driver/Src/stm32f1xx_hal_spi.c ****     /* Check if CRC error is valid or not (workaround to be applied or not) */
3701:Drivers/STM32F1xx_HAL_Driver/Src/stm32f1xx_hal_spi.c ****     if (SPI_ISCRCErrorValid(hspi) == SPI_VALID_CRC_ERROR)
3702:Drivers/STM32F1xx_HAL_Driver/Src/stm32f1xx_hal_spi.c ****     {
3703:Drivers/STM32F1xx_HAL_Driver/Src/stm32f1xx_hal_spi.c ****       SET_BIT(hspi->ErrorCode, HAL_SPI_ERROR_CRC);
3704:Drivers/STM32F1xx_HAL_Driver/Src/stm32f1xx_hal_spi.c **** 
3705:Drivers/STM32F1xx_HAL_Driver/Src/stm32f1xx_hal_spi.c ****       /* Reset CRC Calculation */
3706:Drivers/STM32F1xx_HAL_Driver/Src/stm32f1xx_hal_spi.c ****       SPI_RESET_CRC(hspi);
3707:Drivers/STM32F1xx_HAL_Driver/Src/stm32f1xx_hal_spi.c **** 
3708:Drivers/STM32F1xx_HAL_Driver/Src/stm32f1xx_hal_spi.c ****       /* Call user error callback */
3709:Drivers/STM32F1xx_HAL_Driver/Src/stm32f1xx_hal_spi.c **** #if (USE_HAL_SPI_REGISTER_CALLBACKS == 1U)
3710:Drivers/STM32F1xx_HAL_Driver/Src/stm32f1xx_hal_spi.c ****       hspi->ErrorCallback(hspi);
3711:Drivers/STM32F1xx_HAL_Driver/Src/stm32f1xx_hal_spi.c **** #else
3712:Drivers/STM32F1xx_HAL_Driver/Src/stm32f1xx_hal_spi.c ****       HAL_SPI_ErrorCallback(hspi);
3713:Drivers/STM32F1xx_HAL_Driver/Src/stm32f1xx_hal_spi.c **** #endif /* USE_HAL_SPI_REGISTER_CALLBACKS */
3714:Drivers/STM32F1xx_HAL_Driver/Src/stm32f1xx_hal_spi.c ****     }
3715:Drivers/STM32F1xx_HAL_Driver/Src/stm32f1xx_hal_spi.c ****     else
3716:Drivers/STM32F1xx_HAL_Driver/Src/stm32f1xx_hal_spi.c ****     {
3717:Drivers/STM32F1xx_HAL_Driver/Src/stm32f1xx_hal_spi.c ****       __HAL_SPI_CLEAR_CRCERRFLAG(hspi);
3718:Drivers/STM32F1xx_HAL_Driver/Src/stm32f1xx_hal_spi.c ****     }
3719:Drivers/STM32F1xx_HAL_Driver/Src/stm32f1xx_hal_spi.c ****   }
3720:Drivers/STM32F1xx_HAL_Driver/Src/stm32f1xx_hal_spi.c ****   else
3721:Drivers/STM32F1xx_HAL_Driver/Src/stm32f1xx_hal_spi.c ****   {
3722:Drivers/STM32F1xx_HAL_Driver/Src/stm32f1xx_hal_spi.c **** #endif /* USE_SPI_CRC */
3723:Drivers/STM32F1xx_HAL_Driver/Src/stm32f1xx_hal_spi.c ****     if (hspi->ErrorCode == HAL_SPI_ERROR_NONE)
 7153              		.loc 1 3723 13
 7154 0060 7B68     		ldr	r3, [r7, #4]
 7155 0062 5B6D     		ldr	r3, [r3, #84]
 7156              		.loc 1 3723 8
 7157 0064 002B     		cmp	r3, #0
 7158 0066 03D1     		bne	.L346
3724:Drivers/STM32F1xx_HAL_Driver/Src/stm32f1xx_hal_spi.c ****     {
3725:Drivers/STM32F1xx_HAL_Driver/Src/stm32f1xx_hal_spi.c ****       /* Call user Rx complete callback */
3726:Drivers/STM32F1xx_HAL_Driver/Src/stm32f1xx_hal_spi.c **** #if (USE_HAL_SPI_REGISTER_CALLBACKS == 1U)
3727:Drivers/STM32F1xx_HAL_Driver/Src/stm32f1xx_hal_spi.c ****       hspi->RxCpltCallback(hspi);
3728:Drivers/STM32F1xx_HAL_Driver/Src/stm32f1xx_hal_spi.c **** #else
3729:Drivers/STM32F1xx_HAL_Driver/Src/stm32f1xx_hal_spi.c ****       HAL_SPI_RxCpltCallback(hspi);
 7159              		.loc 1 3729 7
 7160 0068 7868     		ldr	r0, [r7, #4]
 7161 006a FFF7FEFF 		bl	HAL_SPI_RxCpltCallback
3730:Drivers/STM32F1xx_HAL_Driver/Src/stm32f1xx_hal_spi.c **** #endif /* USE_HAL_SPI_REGISTER_CALLBACKS */
3731:Drivers/STM32F1xx_HAL_Driver/Src/stm32f1xx_hal_spi.c ****     }
3732:Drivers/STM32F1xx_HAL_Driver/Src/stm32f1xx_hal_spi.c ****     else
3733:Drivers/STM32F1xx_HAL_Driver/Src/stm32f1xx_hal_spi.c ****     {
3734:Drivers/STM32F1xx_HAL_Driver/Src/stm32f1xx_hal_spi.c ****       /* Call user error callback */
3735:Drivers/STM32F1xx_HAL_Driver/Src/stm32f1xx_hal_spi.c **** #if (USE_HAL_SPI_REGISTER_CALLBACKS == 1U)
ARM GAS  C:\Users\Alex\AppData\Local\Temp\ccfYuLQH.s 			page 191


3736:Drivers/STM32F1xx_HAL_Driver/Src/stm32f1xx_hal_spi.c ****       hspi->ErrorCallback(hspi);
3737:Drivers/STM32F1xx_HAL_Driver/Src/stm32f1xx_hal_spi.c **** #else
3738:Drivers/STM32F1xx_HAL_Driver/Src/stm32f1xx_hal_spi.c ****       HAL_SPI_ErrorCallback(hspi);
3739:Drivers/STM32F1xx_HAL_Driver/Src/stm32f1xx_hal_spi.c **** #endif /* USE_HAL_SPI_REGISTER_CALLBACKS */
3740:Drivers/STM32F1xx_HAL_Driver/Src/stm32f1xx_hal_spi.c ****     }
3741:Drivers/STM32F1xx_HAL_Driver/Src/stm32f1xx_hal_spi.c **** #if (USE_SPI_CRC != 0U)
3742:Drivers/STM32F1xx_HAL_Driver/Src/stm32f1xx_hal_spi.c ****   }
3743:Drivers/STM32F1xx_HAL_Driver/Src/stm32f1xx_hal_spi.c **** #endif /* USE_SPI_CRC */
3744:Drivers/STM32F1xx_HAL_Driver/Src/stm32f1xx_hal_spi.c **** }
 7162              		.loc 1 3744 1
 7163 006e 02E0     		b	.L348
 7164              	.L346:
3738:Drivers/STM32F1xx_HAL_Driver/Src/stm32f1xx_hal_spi.c **** #endif /* USE_HAL_SPI_REGISTER_CALLBACKS */
 7165              		.loc 1 3738 7
 7166 0070 7868     		ldr	r0, [r7, #4]
 7167 0072 FFF7FEFF 		bl	HAL_SPI_ErrorCallback
 7168              	.L348:
 7169              		.loc 1 3744 1
 7170 0076 00BF     		nop
 7171 0078 1037     		adds	r7, r7, #16
 7172              	.LCFI274:
 7173              		.cfi_def_cfa_offset 8
 7174 007a BD46     		mov	sp, r7
 7175              	.LCFI275:
 7176              		.cfi_def_cfa_register 13
 7177              		@ sp needed
 7178 007c 80BD     		pop	{r7, pc}
 7179              		.cfi_endproc
 7180              	.LFE116:
 7182              		.section	.text.SPI_CloseTx_ISR,"ax",%progbits
 7183              		.align	1
 7184              		.syntax unified
 7185              		.thumb
 7186              		.thumb_func
 7187              		.fpu softvfp
 7189              	SPI_CloseTx_ISR:
 7190              	.LFB117:
3745:Drivers/STM32F1xx_HAL_Driver/Src/stm32f1xx_hal_spi.c **** 
3746:Drivers/STM32F1xx_HAL_Driver/Src/stm32f1xx_hal_spi.c **** /**
3747:Drivers/STM32F1xx_HAL_Driver/Src/stm32f1xx_hal_spi.c ****   * @brief  Handle the end of the TX transaction.
3748:Drivers/STM32F1xx_HAL_Driver/Src/stm32f1xx_hal_spi.c ****   * @param  hspi pointer to a SPI_HandleTypeDef structure that contains
3749:Drivers/STM32F1xx_HAL_Driver/Src/stm32f1xx_hal_spi.c ****   *               the configuration information for SPI module.
3750:Drivers/STM32F1xx_HAL_Driver/Src/stm32f1xx_hal_spi.c ****   * @retval None
3751:Drivers/STM32F1xx_HAL_Driver/Src/stm32f1xx_hal_spi.c ****   */
3752:Drivers/STM32F1xx_HAL_Driver/Src/stm32f1xx_hal_spi.c **** static void SPI_CloseTx_ISR(SPI_HandleTypeDef *hspi)
3753:Drivers/STM32F1xx_HAL_Driver/Src/stm32f1xx_hal_spi.c **** {
 7191              		.loc 1 3753 1
 7192              		.cfi_startproc
 7193              		@ args = 0, pretend = 0, frame = 24
 7194              		@ frame_needed = 1, uses_anonymous_args = 0
 7195 0000 80B5     		push	{r7, lr}
 7196              	.LCFI276:
 7197              		.cfi_def_cfa_offset 8
 7198              		.cfi_offset 7, -8
 7199              		.cfi_offset 14, -4
 7200 0002 86B0     		sub	sp, sp, #24
 7201              	.LCFI277:
ARM GAS  C:\Users\Alex\AppData\Local\Temp\ccfYuLQH.s 			page 192


 7202              		.cfi_def_cfa_offset 32
 7203 0004 00AF     		add	r7, sp, #0
 7204              	.LCFI278:
 7205              		.cfi_def_cfa_register 7
 7206 0006 7860     		str	r0, [r7, #4]
3754:Drivers/STM32F1xx_HAL_Driver/Src/stm32f1xx_hal_spi.c ****   uint32_t tickstart;
3755:Drivers/STM32F1xx_HAL_Driver/Src/stm32f1xx_hal_spi.c ****   __IO uint32_t count = SPI_DEFAULT_TIMEOUT * (SystemCoreClock / 24U / 1000U);
 7207              		.loc 1 3755 70
 7208 0008 2C4B     		ldr	r3, .L358
 7209 000a 1B68     		ldr	r3, [r3]
 7210 000c 2C4A     		ldr	r2, .L358+4
 7211 000e A2FB0323 		umull	r2, r3, r2, r3
 7212 0012 5B0A     		lsrs	r3, r3, #9
 7213              		.loc 1 3755 45
 7214 0014 6422     		movs	r2, #100
 7215 0016 02FB03F3 		mul	r3, r2, r3
 7216              		.loc 1 3755 17
 7217 001a 3B61     		str	r3, [r7, #16]
3756:Drivers/STM32F1xx_HAL_Driver/Src/stm32f1xx_hal_spi.c **** 
3757:Drivers/STM32F1xx_HAL_Driver/Src/stm32f1xx_hal_spi.c ****   /* Init tickstart for timeout management*/
3758:Drivers/STM32F1xx_HAL_Driver/Src/stm32f1xx_hal_spi.c ****   tickstart = HAL_GetTick();
 7218              		.loc 1 3758 15
 7219 001c FFF7FEFF 		bl	HAL_GetTick
 7220 0020 7861     		str	r0, [r7, #20]
 7221              	.L352:
3759:Drivers/STM32F1xx_HAL_Driver/Src/stm32f1xx_hal_spi.c **** 
3760:Drivers/STM32F1xx_HAL_Driver/Src/stm32f1xx_hal_spi.c ****   /* Wait until TXE flag is set */
3761:Drivers/STM32F1xx_HAL_Driver/Src/stm32f1xx_hal_spi.c ****   do
3762:Drivers/STM32F1xx_HAL_Driver/Src/stm32f1xx_hal_spi.c ****   {
3763:Drivers/STM32F1xx_HAL_Driver/Src/stm32f1xx_hal_spi.c ****     if (count == 0U)
 7222              		.loc 1 3763 15
 7223 0022 3B69     		ldr	r3, [r7, #16]
 7224              		.loc 1 3763 8
 7225 0024 002B     		cmp	r3, #0
 7226 0026 06D1     		bne	.L350
3764:Drivers/STM32F1xx_HAL_Driver/Src/stm32f1xx_hal_spi.c ****     {
3765:Drivers/STM32F1xx_HAL_Driver/Src/stm32f1xx_hal_spi.c ****       SET_BIT(hspi->ErrorCode, HAL_SPI_ERROR_FLAG);
 7227              		.loc 1 3765 7
 7228 0028 7B68     		ldr	r3, [r7, #4]
 7229 002a 5B6D     		ldr	r3, [r3, #84]
 7230 002c 43F02002 		orr	r2, r3, #32
 7231 0030 7B68     		ldr	r3, [r7, #4]
 7232 0032 5A65     		str	r2, [r3, #84]
3766:Drivers/STM32F1xx_HAL_Driver/Src/stm32f1xx_hal_spi.c ****       break;
 7233              		.loc 1 3766 7
 7234 0034 09E0     		b	.L351
 7235              	.L350:
3767:Drivers/STM32F1xx_HAL_Driver/Src/stm32f1xx_hal_spi.c ****     }
3768:Drivers/STM32F1xx_HAL_Driver/Src/stm32f1xx_hal_spi.c ****     count--;
 7236              		.loc 1 3768 10
 7237 0036 3B69     		ldr	r3, [r7, #16]
 7238 0038 013B     		subs	r3, r3, #1
 7239 003a 3B61     		str	r3, [r7, #16]
3769:Drivers/STM32F1xx_HAL_Driver/Src/stm32f1xx_hal_spi.c ****   } while ((hspi->Instance->SR & SPI_FLAG_TXE) == RESET);
 7240              		.loc 1 3769 17
 7241 003c 7B68     		ldr	r3, [r7, #4]
 7242 003e 1B68     		ldr	r3, [r3]
ARM GAS  C:\Users\Alex\AppData\Local\Temp\ccfYuLQH.s 			page 193


 7243              		.loc 1 3769 27
 7244 0040 9B68     		ldr	r3, [r3, #8]
 7245              		.loc 1 3769 32
 7246 0042 03F00203 		and	r3, r3, #2
 7247              		.loc 1 3769 3
 7248 0046 002B     		cmp	r3, #0
 7249 0048 EBD0     		beq	.L352
 7250              	.L351:
3770:Drivers/STM32F1xx_HAL_Driver/Src/stm32f1xx_hal_spi.c **** 
3771:Drivers/STM32F1xx_HAL_Driver/Src/stm32f1xx_hal_spi.c ****   /* Disable TXE and ERR interrupt */
3772:Drivers/STM32F1xx_HAL_Driver/Src/stm32f1xx_hal_spi.c ****   __HAL_SPI_DISABLE_IT(hspi, (SPI_IT_TXE | SPI_IT_ERR));
 7251              		.loc 1 3772 3
 7252 004a 7B68     		ldr	r3, [r7, #4]
 7253 004c 1B68     		ldr	r3, [r3]
 7254 004e 5A68     		ldr	r2, [r3, #4]
 7255 0050 7B68     		ldr	r3, [r7, #4]
 7256 0052 1B68     		ldr	r3, [r3]
 7257 0054 22F0A002 		bic	r2, r2, #160
 7258 0058 5A60     		str	r2, [r3, #4]
3773:Drivers/STM32F1xx_HAL_Driver/Src/stm32f1xx_hal_spi.c **** 
3774:Drivers/STM32F1xx_HAL_Driver/Src/stm32f1xx_hal_spi.c ****   /* Check the end of the transaction */
3775:Drivers/STM32F1xx_HAL_Driver/Src/stm32f1xx_hal_spi.c ****   if (SPI_EndRxTxTransaction(hspi, SPI_DEFAULT_TIMEOUT, tickstart) != HAL_OK)
 7259              		.loc 1 3775 7
 7260 005a 7A69     		ldr	r2, [r7, #20]
 7261 005c 6421     		movs	r1, #100
 7262 005e 7868     		ldr	r0, [r7, #4]
 7263 0060 FFF7FEFF 		bl	SPI_EndRxTxTransaction
 7264 0064 0346     		mov	r3, r0
 7265              		.loc 1 3775 6
 7266 0066 002B     		cmp	r3, #0
 7267 0068 05D0     		beq	.L353
3776:Drivers/STM32F1xx_HAL_Driver/Src/stm32f1xx_hal_spi.c ****   {
3777:Drivers/STM32F1xx_HAL_Driver/Src/stm32f1xx_hal_spi.c ****     SET_BIT(hspi->ErrorCode, HAL_SPI_ERROR_FLAG);
 7268              		.loc 1 3777 5
 7269 006a 7B68     		ldr	r3, [r7, #4]
 7270 006c 5B6D     		ldr	r3, [r3, #84]
 7271 006e 43F02002 		orr	r2, r3, #32
 7272 0072 7B68     		ldr	r3, [r7, #4]
 7273 0074 5A65     		str	r2, [r3, #84]
 7274              	.L353:
3778:Drivers/STM32F1xx_HAL_Driver/Src/stm32f1xx_hal_spi.c ****   }
3779:Drivers/STM32F1xx_HAL_Driver/Src/stm32f1xx_hal_spi.c **** 
3780:Drivers/STM32F1xx_HAL_Driver/Src/stm32f1xx_hal_spi.c ****   /* Clear overrun flag in 2 Lines communication mode because received is not read */
3781:Drivers/STM32F1xx_HAL_Driver/Src/stm32f1xx_hal_spi.c ****   if (hspi->Init.Direction == SPI_DIRECTION_2LINES)
 7275              		.loc 1 3781 17
 7276 0076 7B68     		ldr	r3, [r7, #4]
 7277 0078 9B68     		ldr	r3, [r3, #8]
 7278              		.loc 1 3781 6
 7279 007a 002B     		cmp	r3, #0
 7280 007c 0AD1     		bne	.L354
 7281              	.LBB14:
3782:Drivers/STM32F1xx_HAL_Driver/Src/stm32f1xx_hal_spi.c ****   {
3783:Drivers/STM32F1xx_HAL_Driver/Src/stm32f1xx_hal_spi.c ****     __HAL_SPI_CLEAR_OVRFLAG(hspi);
 7282              		.loc 1 3783 5
 7283 007e 0023     		movs	r3, #0
 7284 0080 FB60     		str	r3, [r7, #12]
 7285 0082 7B68     		ldr	r3, [r7, #4]
ARM GAS  C:\Users\Alex\AppData\Local\Temp\ccfYuLQH.s 			page 194


 7286 0084 1B68     		ldr	r3, [r3]
 7287 0086 DB68     		ldr	r3, [r3, #12]
 7288 0088 FB60     		str	r3, [r7, #12]
 7289 008a 7B68     		ldr	r3, [r7, #4]
 7290 008c 1B68     		ldr	r3, [r3]
 7291 008e 9B68     		ldr	r3, [r3, #8]
 7292 0090 FB60     		str	r3, [r7, #12]
 7293 0092 FB68     		ldr	r3, [r7, #12]
 7294              	.L354:
 7295              	.LBE14:
3784:Drivers/STM32F1xx_HAL_Driver/Src/stm32f1xx_hal_spi.c ****   }
3785:Drivers/STM32F1xx_HAL_Driver/Src/stm32f1xx_hal_spi.c **** 
3786:Drivers/STM32F1xx_HAL_Driver/Src/stm32f1xx_hal_spi.c ****   hspi->State = HAL_SPI_STATE_READY;
 7296              		.loc 1 3786 15
 7297 0094 7B68     		ldr	r3, [r7, #4]
 7298 0096 0122     		movs	r2, #1
 7299 0098 83F85120 		strb	r2, [r3, #81]
3787:Drivers/STM32F1xx_HAL_Driver/Src/stm32f1xx_hal_spi.c ****   if (hspi->ErrorCode != HAL_SPI_ERROR_NONE)
 7300              		.loc 1 3787 11
 7301 009c 7B68     		ldr	r3, [r7, #4]
 7302 009e 5B6D     		ldr	r3, [r3, #84]
 7303              		.loc 1 3787 6
 7304 00a0 002B     		cmp	r3, #0
 7305 00a2 03D0     		beq	.L355
3788:Drivers/STM32F1xx_HAL_Driver/Src/stm32f1xx_hal_spi.c ****   {
3789:Drivers/STM32F1xx_HAL_Driver/Src/stm32f1xx_hal_spi.c ****     /* Call user error callback */
3790:Drivers/STM32F1xx_HAL_Driver/Src/stm32f1xx_hal_spi.c **** #if (USE_HAL_SPI_REGISTER_CALLBACKS == 1U)
3791:Drivers/STM32F1xx_HAL_Driver/Src/stm32f1xx_hal_spi.c ****     hspi->ErrorCallback(hspi);
3792:Drivers/STM32F1xx_HAL_Driver/Src/stm32f1xx_hal_spi.c **** #else
3793:Drivers/STM32F1xx_HAL_Driver/Src/stm32f1xx_hal_spi.c ****     HAL_SPI_ErrorCallback(hspi);
 7306              		.loc 1 3793 5
 7307 00a4 7868     		ldr	r0, [r7, #4]
 7308 00a6 FFF7FEFF 		bl	HAL_SPI_ErrorCallback
3794:Drivers/STM32F1xx_HAL_Driver/Src/stm32f1xx_hal_spi.c **** #endif /* USE_HAL_SPI_REGISTER_CALLBACKS */
3795:Drivers/STM32F1xx_HAL_Driver/Src/stm32f1xx_hal_spi.c ****   }
3796:Drivers/STM32F1xx_HAL_Driver/Src/stm32f1xx_hal_spi.c ****   else
3797:Drivers/STM32F1xx_HAL_Driver/Src/stm32f1xx_hal_spi.c ****   {
3798:Drivers/STM32F1xx_HAL_Driver/Src/stm32f1xx_hal_spi.c ****     /* Call user Rx complete callback */
3799:Drivers/STM32F1xx_HAL_Driver/Src/stm32f1xx_hal_spi.c **** #if (USE_HAL_SPI_REGISTER_CALLBACKS == 1U)
3800:Drivers/STM32F1xx_HAL_Driver/Src/stm32f1xx_hal_spi.c ****     hspi->TxCpltCallback(hspi);
3801:Drivers/STM32F1xx_HAL_Driver/Src/stm32f1xx_hal_spi.c **** #else
3802:Drivers/STM32F1xx_HAL_Driver/Src/stm32f1xx_hal_spi.c ****     HAL_SPI_TxCpltCallback(hspi);
3803:Drivers/STM32F1xx_HAL_Driver/Src/stm32f1xx_hal_spi.c **** #endif /* USE_HAL_SPI_REGISTER_CALLBACKS */
3804:Drivers/STM32F1xx_HAL_Driver/Src/stm32f1xx_hal_spi.c ****   }
3805:Drivers/STM32F1xx_HAL_Driver/Src/stm32f1xx_hal_spi.c **** }
 7309              		.loc 1 3805 1
 7310 00aa 02E0     		b	.L357
 7311              	.L355:
3802:Drivers/STM32F1xx_HAL_Driver/Src/stm32f1xx_hal_spi.c **** #endif /* USE_HAL_SPI_REGISTER_CALLBACKS */
 7312              		.loc 1 3802 5
 7313 00ac 7868     		ldr	r0, [r7, #4]
 7314 00ae FFF7FEFF 		bl	HAL_SPI_TxCpltCallback
 7315              	.L357:
 7316              		.loc 1 3805 1
 7317 00b2 00BF     		nop
 7318 00b4 1837     		adds	r7, r7, #24
 7319              	.LCFI279:
ARM GAS  C:\Users\Alex\AppData\Local\Temp\ccfYuLQH.s 			page 195


 7320              		.cfi_def_cfa_offset 8
 7321 00b6 BD46     		mov	sp, r7
 7322              	.LCFI280:
 7323              		.cfi_def_cfa_register 13
 7324              		@ sp needed
 7325 00b8 80BD     		pop	{r7, pc}
 7326              	.L359:
 7327 00ba 00BF     		.align	2
 7328              	.L358:
 7329 00bc 00000000 		.word	SystemCoreClock
 7330 00c0 F1197605 		.word	91625969
 7331              		.cfi_endproc
 7332              	.LFE117:
 7334              		.section	.text.SPI_AbortRx_ISR,"ax",%progbits
 7335              		.align	1
 7336              		.syntax unified
 7337              		.thumb
 7338              		.thumb_func
 7339              		.fpu softvfp
 7341              	SPI_AbortRx_ISR:
 7342              	.LFB118:
3806:Drivers/STM32F1xx_HAL_Driver/Src/stm32f1xx_hal_spi.c **** 
3807:Drivers/STM32F1xx_HAL_Driver/Src/stm32f1xx_hal_spi.c **** /**
3808:Drivers/STM32F1xx_HAL_Driver/Src/stm32f1xx_hal_spi.c ****   * @brief  Handle abort a Rx transaction.
3809:Drivers/STM32F1xx_HAL_Driver/Src/stm32f1xx_hal_spi.c ****   * @param  hspi pointer to a SPI_HandleTypeDef structure that contains
3810:Drivers/STM32F1xx_HAL_Driver/Src/stm32f1xx_hal_spi.c ****   *               the configuration information for SPI module.
3811:Drivers/STM32F1xx_HAL_Driver/Src/stm32f1xx_hal_spi.c ****   * @retval None
3812:Drivers/STM32F1xx_HAL_Driver/Src/stm32f1xx_hal_spi.c ****   */
3813:Drivers/STM32F1xx_HAL_Driver/Src/stm32f1xx_hal_spi.c **** static void SPI_AbortRx_ISR(SPI_HandleTypeDef *hspi)
3814:Drivers/STM32F1xx_HAL_Driver/Src/stm32f1xx_hal_spi.c **** {
 7343              		.loc 1 3814 1
 7344              		.cfi_startproc
 7345              		@ args = 0, pretend = 0, frame = 16
 7346              		@ frame_needed = 1, uses_anonymous_args = 0
 7347              		@ link register save eliminated.
 7348 0000 80B4     		push	{r7}
 7349              	.LCFI281:
 7350              		.cfi_def_cfa_offset 4
 7351              		.cfi_offset 7, -4
 7352 0002 85B0     		sub	sp, sp, #20
 7353              	.LCFI282:
 7354              		.cfi_def_cfa_offset 24
 7355 0004 00AF     		add	r7, sp, #0
 7356              	.LCFI283:
 7357              		.cfi_def_cfa_register 7
 7358 0006 7860     		str	r0, [r7, #4]
3815:Drivers/STM32F1xx_HAL_Driver/Src/stm32f1xx_hal_spi.c ****   __IO uint32_t count = SPI_DEFAULT_TIMEOUT * (SystemCoreClock / 24U / 1000U);
 7359              		.loc 1 3815 70
 7360 0008 1C4B     		ldr	r3, .L364
 7361 000a 1B68     		ldr	r3, [r3]
 7362 000c 1C4A     		ldr	r2, .L364+4
 7363 000e A2FB0323 		umull	r2, r3, r2, r3
 7364 0012 5B0A     		lsrs	r3, r3, #9
 7365              		.loc 1 3815 45
 7366 0014 6422     		movs	r2, #100
 7367 0016 02FB03F3 		mul	r3, r2, r3
 7368              		.loc 1 3815 17
ARM GAS  C:\Users\Alex\AppData\Local\Temp\ccfYuLQH.s 			page 196


 7369 001a FB60     		str	r3, [r7, #12]
 7370              	.L363:
3816:Drivers/STM32F1xx_HAL_Driver/Src/stm32f1xx_hal_spi.c **** 
3817:Drivers/STM32F1xx_HAL_Driver/Src/stm32f1xx_hal_spi.c ****   /* Wait until TXE flag is set */
3818:Drivers/STM32F1xx_HAL_Driver/Src/stm32f1xx_hal_spi.c ****   do
3819:Drivers/STM32F1xx_HAL_Driver/Src/stm32f1xx_hal_spi.c ****   {
3820:Drivers/STM32F1xx_HAL_Driver/Src/stm32f1xx_hal_spi.c ****     if (count == 0U)
 7371              		.loc 1 3820 15
 7372 001c FB68     		ldr	r3, [r7, #12]
 7373              		.loc 1 3820 8
 7374 001e 002B     		cmp	r3, #0
 7375 0020 06D1     		bne	.L361
3821:Drivers/STM32F1xx_HAL_Driver/Src/stm32f1xx_hal_spi.c ****     {
3822:Drivers/STM32F1xx_HAL_Driver/Src/stm32f1xx_hal_spi.c ****       SET_BIT(hspi->ErrorCode, HAL_SPI_ERROR_ABORT);
 7376              		.loc 1 3822 7
 7377 0022 7B68     		ldr	r3, [r7, #4]
 7378 0024 5B6D     		ldr	r3, [r3, #84]
 7379 0026 43F04002 		orr	r2, r3, #64
 7380 002a 7B68     		ldr	r3, [r7, #4]
 7381 002c 5A65     		str	r2, [r3, #84]
3823:Drivers/STM32F1xx_HAL_Driver/Src/stm32f1xx_hal_spi.c ****       break;
 7382              		.loc 1 3823 7
 7383 002e 09E0     		b	.L362
 7384              	.L361:
3824:Drivers/STM32F1xx_HAL_Driver/Src/stm32f1xx_hal_spi.c ****     }
3825:Drivers/STM32F1xx_HAL_Driver/Src/stm32f1xx_hal_spi.c ****     count--;
 7385              		.loc 1 3825 10
 7386 0030 FB68     		ldr	r3, [r7, #12]
 7387 0032 013B     		subs	r3, r3, #1
 7388 0034 FB60     		str	r3, [r7, #12]
3826:Drivers/STM32F1xx_HAL_Driver/Src/stm32f1xx_hal_spi.c ****   } while ((hspi->Instance->SR & SPI_FLAG_TXE) == RESET);
 7389              		.loc 1 3826 17
 7390 0036 7B68     		ldr	r3, [r7, #4]
 7391 0038 1B68     		ldr	r3, [r3]
 7392              		.loc 1 3826 27
 7393 003a 9B68     		ldr	r3, [r3, #8]
 7394              		.loc 1 3826 32
 7395 003c 03F00203 		and	r3, r3, #2
 7396              		.loc 1 3826 3
 7397 0040 002B     		cmp	r3, #0
 7398 0042 EBD0     		beq	.L363
 7399              	.L362:
3827:Drivers/STM32F1xx_HAL_Driver/Src/stm32f1xx_hal_spi.c **** 
3828:Drivers/STM32F1xx_HAL_Driver/Src/stm32f1xx_hal_spi.c ****   /* Disable SPI Peripheral */
3829:Drivers/STM32F1xx_HAL_Driver/Src/stm32f1xx_hal_spi.c ****   __HAL_SPI_DISABLE(hspi);
 7400              		.loc 1 3829 3
 7401 0044 7B68     		ldr	r3, [r7, #4]
 7402 0046 1B68     		ldr	r3, [r3]
 7403 0048 1A68     		ldr	r2, [r3]
 7404 004a 7B68     		ldr	r3, [r7, #4]
 7405 004c 1B68     		ldr	r3, [r3]
 7406 004e 22F04002 		bic	r2, r2, #64
 7407 0052 1A60     		str	r2, [r3]
3830:Drivers/STM32F1xx_HAL_Driver/Src/stm32f1xx_hal_spi.c **** 
3831:Drivers/STM32F1xx_HAL_Driver/Src/stm32f1xx_hal_spi.c ****   /* Disable TXEIE, RXNEIE and ERRIE(mode fault event, overrun error, TI frame error) interrupts */
3832:Drivers/STM32F1xx_HAL_Driver/Src/stm32f1xx_hal_spi.c ****   CLEAR_BIT(hspi->Instance->CR2, (SPI_CR2_TXEIE | SPI_CR2_RXNEIE | SPI_CR2_ERRIE));
 7408              		.loc 1 3832 3
ARM GAS  C:\Users\Alex\AppData\Local\Temp\ccfYuLQH.s 			page 197


 7409 0054 7B68     		ldr	r3, [r7, #4]
 7410 0056 1B68     		ldr	r3, [r3]
 7411 0058 5A68     		ldr	r2, [r3, #4]
 7412 005a 7B68     		ldr	r3, [r7, #4]
 7413 005c 1B68     		ldr	r3, [r3]
 7414 005e 22F0E002 		bic	r2, r2, #224
 7415 0062 5A60     		str	r2, [r3, #4]
3833:Drivers/STM32F1xx_HAL_Driver/Src/stm32f1xx_hal_spi.c **** 
3834:Drivers/STM32F1xx_HAL_Driver/Src/stm32f1xx_hal_spi.c ****   /* Read CRC to flush Data Register */
3835:Drivers/STM32F1xx_HAL_Driver/Src/stm32f1xx_hal_spi.c ****   READ_REG(hspi->Instance->DR);
 7416              		.loc 1 3835 3
 7417 0064 7B68     		ldr	r3, [r7, #4]
 7418 0066 1B68     		ldr	r3, [r3]
 7419 0068 DB68     		ldr	r3, [r3, #12]
3836:Drivers/STM32F1xx_HAL_Driver/Src/stm32f1xx_hal_spi.c **** 
3837:Drivers/STM32F1xx_HAL_Driver/Src/stm32f1xx_hal_spi.c ****   hspi->State = HAL_SPI_STATE_ABORT;
 7420              		.loc 1 3837 15
 7421 006a 7B68     		ldr	r3, [r7, #4]
 7422 006c 0722     		movs	r2, #7
 7423 006e 83F85120 		strb	r2, [r3, #81]
3838:Drivers/STM32F1xx_HAL_Driver/Src/stm32f1xx_hal_spi.c **** }
 7424              		.loc 1 3838 1
 7425 0072 00BF     		nop
 7426 0074 1437     		adds	r7, r7, #20
 7427              	.LCFI284:
 7428              		.cfi_def_cfa_offset 4
 7429 0076 BD46     		mov	sp, r7
 7430              	.LCFI285:
 7431              		.cfi_def_cfa_register 13
 7432              		@ sp needed
 7433 0078 80BC     		pop	{r7}
 7434              	.LCFI286:
 7435              		.cfi_restore 7
 7436              		.cfi_def_cfa_offset 0
 7437 007a 7047     		bx	lr
 7438              	.L365:
 7439              		.align	2
 7440              	.L364:
 7441 007c 00000000 		.word	SystemCoreClock
 7442 0080 F1197605 		.word	91625969
 7443              		.cfi_endproc
 7444              	.LFE118:
 7446              		.section	.text.SPI_AbortTx_ISR,"ax",%progbits
 7447              		.align	1
 7448              		.syntax unified
 7449              		.thumb
 7450              		.thumb_func
 7451              		.fpu softvfp
 7453              	SPI_AbortTx_ISR:
 7454              	.LFB119:
3839:Drivers/STM32F1xx_HAL_Driver/Src/stm32f1xx_hal_spi.c **** 
3840:Drivers/STM32F1xx_HAL_Driver/Src/stm32f1xx_hal_spi.c **** /**
3841:Drivers/STM32F1xx_HAL_Driver/Src/stm32f1xx_hal_spi.c ****   * @brief  Handle abort a Tx or Rx/Tx transaction.
3842:Drivers/STM32F1xx_HAL_Driver/Src/stm32f1xx_hal_spi.c ****   * @param  hspi pointer to a SPI_HandleTypeDef structure that contains
3843:Drivers/STM32F1xx_HAL_Driver/Src/stm32f1xx_hal_spi.c ****   *               the configuration information for SPI module.
3844:Drivers/STM32F1xx_HAL_Driver/Src/stm32f1xx_hal_spi.c ****   * @retval None
3845:Drivers/STM32F1xx_HAL_Driver/Src/stm32f1xx_hal_spi.c ****   */
ARM GAS  C:\Users\Alex\AppData\Local\Temp\ccfYuLQH.s 			page 198


3846:Drivers/STM32F1xx_HAL_Driver/Src/stm32f1xx_hal_spi.c **** static void SPI_AbortTx_ISR(SPI_HandleTypeDef *hspi)
3847:Drivers/STM32F1xx_HAL_Driver/Src/stm32f1xx_hal_spi.c **** {
 7455              		.loc 1 3847 1
 7456              		.cfi_startproc
 7457              		@ args = 0, pretend = 0, frame = 8
 7458              		@ frame_needed = 1, uses_anonymous_args = 0
 7459              		@ link register save eliminated.
 7460 0000 80B4     		push	{r7}
 7461              	.LCFI287:
 7462              		.cfi_def_cfa_offset 4
 7463              		.cfi_offset 7, -4
 7464 0002 83B0     		sub	sp, sp, #12
 7465              	.LCFI288:
 7466              		.cfi_def_cfa_offset 16
 7467 0004 00AF     		add	r7, sp, #0
 7468              	.LCFI289:
 7469              		.cfi_def_cfa_register 7
 7470 0006 7860     		str	r0, [r7, #4]
3848:Drivers/STM32F1xx_HAL_Driver/Src/stm32f1xx_hal_spi.c ****   /* Disable TXEIE interrupt */
3849:Drivers/STM32F1xx_HAL_Driver/Src/stm32f1xx_hal_spi.c ****   CLEAR_BIT(hspi->Instance->CR2, (SPI_CR2_TXEIE));
 7471              		.loc 1 3849 3
 7472 0008 7B68     		ldr	r3, [r7, #4]
 7473 000a 1B68     		ldr	r3, [r3]
 7474 000c 5A68     		ldr	r2, [r3, #4]
 7475 000e 7B68     		ldr	r3, [r7, #4]
 7476 0010 1B68     		ldr	r3, [r3]
 7477 0012 22F08002 		bic	r2, r2, #128
 7478 0016 5A60     		str	r2, [r3, #4]
3850:Drivers/STM32F1xx_HAL_Driver/Src/stm32f1xx_hal_spi.c **** 
3851:Drivers/STM32F1xx_HAL_Driver/Src/stm32f1xx_hal_spi.c ****   /* Disable SPI Peripheral */
3852:Drivers/STM32F1xx_HAL_Driver/Src/stm32f1xx_hal_spi.c ****   __HAL_SPI_DISABLE(hspi);
 7479              		.loc 1 3852 3
 7480 0018 7B68     		ldr	r3, [r7, #4]
 7481 001a 1B68     		ldr	r3, [r3]
 7482 001c 1A68     		ldr	r2, [r3]
 7483 001e 7B68     		ldr	r3, [r7, #4]
 7484 0020 1B68     		ldr	r3, [r3]
 7485 0022 22F04002 		bic	r2, r2, #64
 7486 0026 1A60     		str	r2, [r3]
3853:Drivers/STM32F1xx_HAL_Driver/Src/stm32f1xx_hal_spi.c **** 
3854:Drivers/STM32F1xx_HAL_Driver/Src/stm32f1xx_hal_spi.c ****   hspi->State = HAL_SPI_STATE_ABORT;
 7487              		.loc 1 3854 15
 7488 0028 7B68     		ldr	r3, [r7, #4]
 7489 002a 0722     		movs	r2, #7
 7490 002c 83F85120 		strb	r2, [r3, #81]
3855:Drivers/STM32F1xx_HAL_Driver/Src/stm32f1xx_hal_spi.c **** }
 7491              		.loc 1 3855 1
 7492 0030 00BF     		nop
 7493 0032 0C37     		adds	r7, r7, #12
 7494              	.LCFI290:
 7495              		.cfi_def_cfa_offset 4
 7496 0034 BD46     		mov	sp, r7
 7497              	.LCFI291:
 7498              		.cfi_def_cfa_register 13
 7499              		@ sp needed
 7500 0036 80BC     		pop	{r7}
 7501              	.LCFI292:
ARM GAS  C:\Users\Alex\AppData\Local\Temp\ccfYuLQH.s 			page 199


 7502              		.cfi_restore 7
 7503              		.cfi_def_cfa_offset 0
 7504 0038 7047     		bx	lr
 7505              		.cfi_endproc
 7506              	.LFE119:
 7508              		.text
 7509              	.Letext0:
 7510              		.file 2 "c:\\program files\\gnu tools arm embedded patched 64\\8.2.1-1.2-20190119-1237\\arm-none-e
 7511              		.file 3 "c:\\program files\\gnu tools arm embedded patched 64\\8.2.1-1.2-20190119-1237\\arm-none-e
 7512              		.file 4 "Drivers/CMSIS/Include/core_cm3.h"
 7513              		.file 5 "Drivers/CMSIS/Device/ST/STM32F1xx/Include/system_stm32f1xx.h"
 7514              		.file 6 "Drivers/CMSIS/Device/ST/STM32F1xx/Include/stm32f103xb.h"
 7515              		.file 7 "Drivers/CMSIS/Device/ST/STM32F1xx/Include/stm32f1xx.h"
 7516              		.file 8 "Drivers/STM32F1xx_HAL_Driver/Inc/stm32f1xx_hal_def.h"
 7517              		.file 9 "Drivers/STM32F1xx_HAL_Driver/Inc/stm32f1xx_hal_dma.h"
 7518              		.file 10 "Drivers/STM32F1xx_HAL_Driver/Inc/stm32f1xx_hal_spi.h"
 7519              		.file 11 "Drivers/STM32F1xx_HAL_Driver/Inc/stm32f1xx_hal.h"
ARM GAS  C:\Users\Alex\AppData\Local\Temp\ccfYuLQH.s 			page 200


DEFINED SYMBOLS
                            *ABS*:0000000000000000 stm32f1xx_hal_spi.c
C:\Users\Alex\AppData\Local\Temp\ccfYuLQH.s:16     .text.HAL_SPI_Init:0000000000000000 $t
C:\Users\Alex\AppData\Local\Temp\ccfYuLQH.s:24     .text.HAL_SPI_Init:0000000000000000 HAL_SPI_Init
C:\Users\Alex\AppData\Local\Temp\ccfYuLQH.s:238    .text.HAL_SPI_MspInit:0000000000000000 HAL_SPI_MspInit
C:\Users\Alex\AppData\Local\Temp\ccfYuLQH.s:154    .text.HAL_SPI_DeInit:0000000000000000 $t
C:\Users\Alex\AppData\Local\Temp\ccfYuLQH.s:161    .text.HAL_SPI_DeInit:0000000000000000 HAL_SPI_DeInit
C:\Users\Alex\AppData\Local\Temp\ccfYuLQH.s:281    .text.HAL_SPI_MspDeInit:0000000000000000 HAL_SPI_MspDeInit
C:\Users\Alex\AppData\Local\Temp\ccfYuLQH.s:231    .text.HAL_SPI_MspInit:0000000000000000 $t
C:\Users\Alex\AppData\Local\Temp\ccfYuLQH.s:274    .text.HAL_SPI_MspDeInit:0000000000000000 $t
C:\Users\Alex\AppData\Local\Temp\ccfYuLQH.s:317    .text.HAL_SPI_Transmit:0000000000000000 $t
C:\Users\Alex\AppData\Local\Temp\ccfYuLQH.s:324    .text.HAL_SPI_Transmit:0000000000000000 HAL_SPI_Transmit
C:\Users\Alex\AppData\Local\Temp\ccfYuLQH.s:6846   .text.SPI_EndRxTxTransaction:0000000000000000 SPI_EndRxTxTransaction
C:\Users\Alex\AppData\Local\Temp\ccfYuLQH.s:771    .text.HAL_SPI_Receive:0000000000000000 $t
C:\Users\Alex\AppData\Local\Temp\ccfYuLQH.s:778    .text.HAL_SPI_Receive:0000000000000000 HAL_SPI_Receive
C:\Users\Alex\AppData\Local\Temp\ccfYuLQH.s:1162   .text.HAL_SPI_TransmitReceive:0000000000000000 HAL_SPI_TransmitReceive
C:\Users\Alex\AppData\Local\Temp\ccfYuLQH.s:6719   .text.SPI_EndRxTransaction:0000000000000000 SPI_EndRxTransaction
C:\Users\Alex\AppData\Local\Temp\ccfYuLQH.s:1155   .text.HAL_SPI_TransmitReceive:0000000000000000 $t
C:\Users\Alex\AppData\Local\Temp\ccfYuLQH.s:1750   .text.HAL_SPI_Transmit_IT:0000000000000000 $t
C:\Users\Alex\AppData\Local\Temp\ccfYuLQH.s:1757   .text.HAL_SPI_Transmit_IT:0000000000000000 HAL_SPI_Transmit_IT
C:\Users\Alex\AppData\Local\Temp\ccfYuLQH.s:1945   .text.HAL_SPI_Transmit_IT:00000000000000fc $d
C:\Users\Alex\AppData\Local\Temp\ccfYuLQH.s:6489   .text.SPI_TxISR_16BIT:0000000000000000 SPI_TxISR_16BIT
C:\Users\Alex\AppData\Local\Temp\ccfYuLQH.s:6412   .text.SPI_TxISR_8BIT:0000000000000000 SPI_TxISR_8BIT
C:\Users\Alex\AppData\Local\Temp\ccfYuLQH.s:1951   .text.HAL_SPI_Receive_IT:0000000000000000 $t
C:\Users\Alex\AppData\Local\Temp\ccfYuLQH.s:1958   .text.HAL_SPI_Receive_IT:0000000000000000 HAL_SPI_Receive_IT
C:\Users\Alex\AppData\Local\Temp\ccfYuLQH.s:2180   .text.HAL_SPI_TransmitReceive_IT:0000000000000000 HAL_SPI_TransmitReceive_IT
C:\Users\Alex\AppData\Local\Temp\ccfYuLQH.s:2167   .text.HAL_SPI_Receive_IT:0000000000000124 $d
C:\Users\Alex\AppData\Local\Temp\ccfYuLQH.s:6336   .text.SPI_RxISR_16BIT:0000000000000000 SPI_RxISR_16BIT
C:\Users\Alex\AppData\Local\Temp\ccfYuLQH.s:6258   .text.SPI_RxISR_8BIT:0000000000000000 SPI_RxISR_8BIT
C:\Users\Alex\AppData\Local\Temp\ccfYuLQH.s:2173   .text.HAL_SPI_TransmitReceive_IT:0000000000000000 $t
C:\Users\Alex\AppData\Local\Temp\ccfYuLQH.s:2389   .text.HAL_SPI_TransmitReceive_IT:0000000000000118 $d
C:\Users\Alex\AppData\Local\Temp\ccfYuLQH.s:6078   .text.SPI_2linesRxISR_16BIT:0000000000000000 SPI_2linesRxISR_16BIT
C:\Users\Alex\AppData\Local\Temp\ccfYuLQH.s:6169   .text.SPI_2linesTxISR_16BIT:0000000000000000 SPI_2linesTxISR_16BIT
C:\Users\Alex\AppData\Local\Temp\ccfYuLQH.s:5893   .text.SPI_2linesRxISR_8BIT:0000000000000000 SPI_2linesRxISR_8BIT
C:\Users\Alex\AppData\Local\Temp\ccfYuLQH.s:5986   .text.SPI_2linesTxISR_8BIT:0000000000000000 SPI_2linesTxISR_8BIT
C:\Users\Alex\AppData\Local\Temp\ccfYuLQH.s:2397   .text.HAL_SPI_Transmit_DMA:0000000000000000 $t
C:\Users\Alex\AppData\Local\Temp\ccfYuLQH.s:2404   .text.HAL_SPI_Transmit_DMA:0000000000000000 HAL_SPI_Transmit_DMA
C:\Users\Alex\AppData\Local\Temp\ccfYuLQH.s:2645   .text.HAL_SPI_Transmit_DMA:0000000000000150 $d
C:\Users\Alex\AppData\Local\Temp\ccfYuLQH.s:5340   .text.SPI_DMAHalfTransmitCplt:0000000000000000 SPI_DMAHalfTransmitCplt
C:\Users\Alex\AppData\Local\Temp\ccfYuLQH.s:4987   .text.SPI_DMATransmitCplt:0000000000000000 SPI_DMATransmitCplt
C:\Users\Alex\AppData\Local\Temp\ccfYuLQH.s:5475   .text.SPI_DMAError:0000000000000000 SPI_DMAError
C:\Users\Alex\AppData\Local\Temp\ccfYuLQH.s:2652   .text.HAL_SPI_Receive_DMA:0000000000000000 $t
C:\Users\Alex\AppData\Local\Temp\ccfYuLQH.s:2659   .text.HAL_SPI_Receive_DMA:0000000000000000 HAL_SPI_Receive_DMA
C:\Users\Alex\AppData\Local\Temp\ccfYuLQH.s:2935   .text.HAL_SPI_TransmitReceive_DMA:0000000000000000 HAL_SPI_TransmitReceive_DMA
C:\Users\Alex\AppData\Local\Temp\ccfYuLQH.s:2921   .text.HAL_SPI_Receive_DMA:0000000000000174 $d
C:\Users\Alex\AppData\Local\Temp\ccfYuLQH.s:5385   .text.SPI_DMAHalfReceiveCplt:0000000000000000 SPI_DMAHalfReceiveCplt
C:\Users\Alex\AppData\Local\Temp\ccfYuLQH.s:5118   .text.SPI_DMAReceiveCplt:0000000000000000 SPI_DMAReceiveCplt
C:\Users\Alex\AppData\Local\Temp\ccfYuLQH.s:2928   .text.HAL_SPI_TransmitReceive_DMA:0000000000000000 $t
C:\Users\Alex\AppData\Local\Temp\ccfYuLQH.s:3288   .text.HAL_SPI_TransmitReceive_DMA:00000000000001f0 $d
C:\Users\Alex\AppData\Local\Temp\ccfYuLQH.s:5430   .text.SPI_DMAHalfTransmitReceiveCplt:0000000000000000 SPI_DMAHalfTransmitReceiveCplt
C:\Users\Alex\AppData\Local\Temp\ccfYuLQH.s:5226   .text.SPI_DMATransmitReceiveCplt:0000000000000000 SPI_DMATransmitReceiveCplt
C:\Users\Alex\AppData\Local\Temp\ccfYuLQH.s:3297   .text.HAL_SPI_Abort:0000000000000000 $t
C:\Users\Alex\AppData\Local\Temp\ccfYuLQH.s:3304   .text.HAL_SPI_Abort:0000000000000000 HAL_SPI_Abort
C:\Users\Alex\AppData\Local\Temp\ccfYuLQH.s:3613   .text.HAL_SPI_Abort:00000000000001b8 $d
C:\Users\Alex\AppData\Local\Temp\ccfYuLQH.s:7453   .text.SPI_AbortTx_ISR:0000000000000000 SPI_AbortTx_ISR
C:\Users\Alex\AppData\Local\Temp\ccfYuLQH.s:7341   .text.SPI_AbortRx_ISR:0000000000000000 SPI_AbortRx_ISR
C:\Users\Alex\AppData\Local\Temp\ccfYuLQH.s:3621   .text.HAL_SPI_Abort_IT:0000000000000000 $t
ARM GAS  C:\Users\Alex\AppData\Local\Temp\ccfYuLQH.s 			page 201


C:\Users\Alex\AppData\Local\Temp\ccfYuLQH.s:3628   .text.HAL_SPI_Abort_IT:0000000000000000 HAL_SPI_Abort_IT
C:\Users\Alex\AppData\Local\Temp\ccfYuLQH.s:4852   .text.HAL_SPI_AbortCpltCallback:0000000000000000 HAL_SPI_AbortCpltCallback
C:\Users\Alex\AppData\Local\Temp\ccfYuLQH.s:3961   .text.HAL_SPI_Abort_IT:00000000000001cc $d
C:\Users\Alex\AppData\Local\Temp\ccfYuLQH.s:5591   .text.SPI_DMATxAbortCallback:0000000000000000 SPI_DMATxAbortCallback
C:\Users\Alex\AppData\Local\Temp\ccfYuLQH.s:5752   .text.SPI_DMARxAbortCallback:0000000000000000 SPI_DMARxAbortCallback
C:\Users\Alex\AppData\Local\Temp\ccfYuLQH.s:3971   .text.HAL_SPI_DMAPause:0000000000000000 $t
C:\Users\Alex\AppData\Local\Temp\ccfYuLQH.s:3978   .text.HAL_SPI_DMAPause:0000000000000000 HAL_SPI_DMAPause
C:\Users\Alex\AppData\Local\Temp\ccfYuLQH.s:4042   .text.HAL_SPI_DMAResume:0000000000000000 $t
C:\Users\Alex\AppData\Local\Temp\ccfYuLQH.s:4049   .text.HAL_SPI_DMAResume:0000000000000000 HAL_SPI_DMAResume
C:\Users\Alex\AppData\Local\Temp\ccfYuLQH.s:4113   .text.HAL_SPI_DMAStop:0000000000000000 $t
C:\Users\Alex\AppData\Local\Temp\ccfYuLQH.s:4120   .text.HAL_SPI_DMAStop:0000000000000000 HAL_SPI_DMAStop
C:\Users\Alex\AppData\Local\Temp\ccfYuLQH.s:4219   .text.HAL_SPI_IRQHandler:0000000000000000 $t
C:\Users\Alex\AppData\Local\Temp\ccfYuLQH.s:4226   .text.HAL_SPI_IRQHandler:0000000000000000 HAL_SPI_IRQHandler
C:\Users\Alex\AppData\Local\Temp\ccfYuLQH.s:4809   .text.HAL_SPI_ErrorCallback:0000000000000000 HAL_SPI_ErrorCallback
C:\Users\Alex\AppData\Local\Temp\ccfYuLQH.s:4539   .text.HAL_SPI_IRQHandler:00000000000001cc $d
C:\Users\Alex\AppData\Local\Temp\ccfYuLQH.s:5538   .text.SPI_DMAAbortOnError:0000000000000000 SPI_DMAAbortOnError
C:\Users\Alex\AppData\Local\Temp\ccfYuLQH.s:4544   .text.HAL_SPI_TxCpltCallback:0000000000000000 $t
C:\Users\Alex\AppData\Local\Temp\ccfYuLQH.s:4551   .text.HAL_SPI_TxCpltCallback:0000000000000000 HAL_SPI_TxCpltCallback
C:\Users\Alex\AppData\Local\Temp\ccfYuLQH.s:4587   .text.HAL_SPI_RxCpltCallback:0000000000000000 $t
C:\Users\Alex\AppData\Local\Temp\ccfYuLQH.s:4594   .text.HAL_SPI_RxCpltCallback:0000000000000000 HAL_SPI_RxCpltCallback
C:\Users\Alex\AppData\Local\Temp\ccfYuLQH.s:4630   .text.HAL_SPI_TxRxCpltCallback:0000000000000000 $t
C:\Users\Alex\AppData\Local\Temp\ccfYuLQH.s:4637   .text.HAL_SPI_TxRxCpltCallback:0000000000000000 HAL_SPI_TxRxCpltCallback
C:\Users\Alex\AppData\Local\Temp\ccfYuLQH.s:4673   .text.HAL_SPI_TxHalfCpltCallback:0000000000000000 $t
C:\Users\Alex\AppData\Local\Temp\ccfYuLQH.s:4680   .text.HAL_SPI_TxHalfCpltCallback:0000000000000000 HAL_SPI_TxHalfCpltCallback
C:\Users\Alex\AppData\Local\Temp\ccfYuLQH.s:4716   .text.HAL_SPI_RxHalfCpltCallback:0000000000000000 $t
C:\Users\Alex\AppData\Local\Temp\ccfYuLQH.s:4723   .text.HAL_SPI_RxHalfCpltCallback:0000000000000000 HAL_SPI_RxHalfCpltCallback
C:\Users\Alex\AppData\Local\Temp\ccfYuLQH.s:4759   .text.HAL_SPI_TxRxHalfCpltCallback:0000000000000000 $t
C:\Users\Alex\AppData\Local\Temp\ccfYuLQH.s:4766   .text.HAL_SPI_TxRxHalfCpltCallback:0000000000000000 HAL_SPI_TxRxHalfCpltCallback
C:\Users\Alex\AppData\Local\Temp\ccfYuLQH.s:4802   .text.HAL_SPI_ErrorCallback:0000000000000000 $t
C:\Users\Alex\AppData\Local\Temp\ccfYuLQH.s:4845   .text.HAL_SPI_AbortCpltCallback:0000000000000000 $t
C:\Users\Alex\AppData\Local\Temp\ccfYuLQH.s:4888   .text.HAL_SPI_GetState:0000000000000000 $t
C:\Users\Alex\AppData\Local\Temp\ccfYuLQH.s:4895   .text.HAL_SPI_GetState:0000000000000000 HAL_SPI_GetState
C:\Users\Alex\AppData\Local\Temp\ccfYuLQH.s:4935   .text.HAL_SPI_GetError:0000000000000000 $t
C:\Users\Alex\AppData\Local\Temp\ccfYuLQH.s:4942   .text.HAL_SPI_GetError:0000000000000000 HAL_SPI_GetError
C:\Users\Alex\AppData\Local\Temp\ccfYuLQH.s:4981   .text.SPI_DMATransmitCplt:0000000000000000 $t
C:\Users\Alex\AppData\Local\Temp\ccfYuLQH.s:5112   .text.SPI_DMAReceiveCplt:0000000000000000 $t
C:\Users\Alex\AppData\Local\Temp\ccfYuLQH.s:5220   .text.SPI_DMATransmitReceiveCplt:0000000000000000 $t
C:\Users\Alex\AppData\Local\Temp\ccfYuLQH.s:5334   .text.SPI_DMAHalfTransmitCplt:0000000000000000 $t
C:\Users\Alex\AppData\Local\Temp\ccfYuLQH.s:5379   .text.SPI_DMAHalfReceiveCplt:0000000000000000 $t
C:\Users\Alex\AppData\Local\Temp\ccfYuLQH.s:5424   .text.SPI_DMAHalfTransmitReceiveCplt:0000000000000000 $t
C:\Users\Alex\AppData\Local\Temp\ccfYuLQH.s:5469   .text.SPI_DMAError:0000000000000000 $t
C:\Users\Alex\AppData\Local\Temp\ccfYuLQH.s:5532   .text.SPI_DMAAbortOnError:0000000000000000 $t
C:\Users\Alex\AppData\Local\Temp\ccfYuLQH.s:5585   .text.SPI_DMATxAbortCallback:0000000000000000 $t
C:\Users\Alex\AppData\Local\Temp\ccfYuLQH.s:5740   .text.SPI_DMATxAbortCallback:00000000000000bc $d
C:\Users\Alex\AppData\Local\Temp\ccfYuLQH.s:5746   .text.SPI_DMARxAbortCallback:0000000000000000 $t
C:\Users\Alex\AppData\Local\Temp\ccfYuLQH.s:5887   .text.SPI_2linesRxISR_8BIT:0000000000000000 $t
C:\Users\Alex\AppData\Local\Temp\ccfYuLQH.s:6911   .text.SPI_CloseRxTx_ISR:0000000000000000 SPI_CloseRxTx_ISR
C:\Users\Alex\AppData\Local\Temp\ccfYuLQH.s:5980   .text.SPI_2linesTxISR_8BIT:0000000000000000 $t
C:\Users\Alex\AppData\Local\Temp\ccfYuLQH.s:6072   .text.SPI_2linesRxISR_16BIT:0000000000000000 $t
C:\Users\Alex\AppData\Local\Temp\ccfYuLQH.s:6163   .text.SPI_2linesTxISR_16BIT:0000000000000000 $t
C:\Users\Alex\AppData\Local\Temp\ccfYuLQH.s:6252   .text.SPI_RxISR_8BIT:0000000000000000 $t
C:\Users\Alex\AppData\Local\Temp\ccfYuLQH.s:7084   .text.SPI_CloseRx_ISR:0000000000000000 SPI_CloseRx_ISR
C:\Users\Alex\AppData\Local\Temp\ccfYuLQH.s:6330   .text.SPI_RxISR_16BIT:0000000000000000 $t
C:\Users\Alex\AppData\Local\Temp\ccfYuLQH.s:6406   .text.SPI_TxISR_8BIT:0000000000000000 $t
C:\Users\Alex\AppData\Local\Temp\ccfYuLQH.s:7189   .text.SPI_CloseTx_ISR:0000000000000000 SPI_CloseTx_ISR
C:\Users\Alex\AppData\Local\Temp\ccfYuLQH.s:6483   .text.SPI_TxISR_16BIT:0000000000000000 $t
C:\Users\Alex\AppData\Local\Temp\ccfYuLQH.s:6557   .text.SPI_WaitFlagStateUntilTimeout:0000000000000000 $t
ARM GAS  C:\Users\Alex\AppData\Local\Temp\ccfYuLQH.s 			page 202


C:\Users\Alex\AppData\Local\Temp\ccfYuLQH.s:6563   .text.SPI_WaitFlagStateUntilTimeout:0000000000000000 SPI_WaitFlagStateUntilTimeout
C:\Users\Alex\AppData\Local\Temp\ccfYuLQH.s:6713   .text.SPI_EndRxTransaction:0000000000000000 $t
C:\Users\Alex\AppData\Local\Temp\ccfYuLQH.s:6840   .text.SPI_EndRxTxTransaction:0000000000000000 $t
C:\Users\Alex\AppData\Local\Temp\ccfYuLQH.s:6905   .text.SPI_CloseRxTx_ISR:0000000000000000 $t
C:\Users\Alex\AppData\Local\Temp\ccfYuLQH.s:7072   .text.SPI_CloseRxTx_ISR:00000000000000e0 $d
C:\Users\Alex\AppData\Local\Temp\ccfYuLQH.s:7078   .text.SPI_CloseRx_ISR:0000000000000000 $t
C:\Users\Alex\AppData\Local\Temp\ccfYuLQH.s:7183   .text.SPI_CloseTx_ISR:0000000000000000 $t
C:\Users\Alex\AppData\Local\Temp\ccfYuLQH.s:7329   .text.SPI_CloseTx_ISR:00000000000000bc $d
C:\Users\Alex\AppData\Local\Temp\ccfYuLQH.s:7335   .text.SPI_AbortRx_ISR:0000000000000000 $t
C:\Users\Alex\AppData\Local\Temp\ccfYuLQH.s:7441   .text.SPI_AbortRx_ISR:000000000000007c $d
C:\Users\Alex\AppData\Local\Temp\ccfYuLQH.s:7447   .text.SPI_AbortTx_ISR:0000000000000000 $t

UNDEFINED SYMBOLS
HAL_GetTick
HAL_DMA_Start_IT
HAL_DMA_Abort
SystemCoreClock
HAL_DMA_Abort_IT
